   1              		.syntax unified
   2              		.cpu cortex-m3
   3              		.fpu softvfp
   4              		.eabi_attribute 20, 1
   5              		.eabi_attribute 21, 1
   6              		.eabi_attribute 23, 3
   7              		.eabi_attribute 24, 1
   8              		.eabi_attribute 25, 1
   9              		.eabi_attribute 26, 1
  10              		.eabi_attribute 30, 1
  11              		.eabi_attribute 34, 1
  12              		.eabi_attribute 18, 4
  13              		.thumb
  14              		.syntax unified
  15              		.file	"main.c"
  16              		.text
  17              	.Ltext0:
  18              		.cfi_sections	.debug_frame
  19              		.section	.text.usart_serial_getchar,"ax",%progbits
  20              		.align	2
  21              		.thumb
  22              		.thumb_func
  24              	usart_serial_getchar:
  25              	.LFB137:
  26              		.file 1 "/home/bekeband/workspace/OLIMEX_Start/src/sam_uart/uart_serial.h"
   1:/home/bekeband/workspace/OLIMEX_Start/src/sam_uart/uart_serial.h **** /**
   2:/home/bekeband/workspace/OLIMEX_Start/src/sam_uart/uart_serial.h ****  * \file
   3:/home/bekeband/workspace/OLIMEX_Start/src/sam_uart/uart_serial.h ****  *
   4:/home/bekeband/workspace/OLIMEX_Start/src/sam_uart/uart_serial.h ****  * \brief Uart Serial for SAM.
   5:/home/bekeband/workspace/OLIMEX_Start/src/sam_uart/uart_serial.h ****  *
   6:/home/bekeband/workspace/OLIMEX_Start/src/sam_uart/uart_serial.h ****  * Copyright (c) 2011-2015 Atmel Corporation. All rights reserved.
   7:/home/bekeband/workspace/OLIMEX_Start/src/sam_uart/uart_serial.h ****  *
   8:/home/bekeband/workspace/OLIMEX_Start/src/sam_uart/uart_serial.h ****  * \asf_license_start
   9:/home/bekeband/workspace/OLIMEX_Start/src/sam_uart/uart_serial.h ****  *
  10:/home/bekeband/workspace/OLIMEX_Start/src/sam_uart/uart_serial.h ****  * \page License
  11:/home/bekeband/workspace/OLIMEX_Start/src/sam_uart/uart_serial.h ****  *
  12:/home/bekeband/workspace/OLIMEX_Start/src/sam_uart/uart_serial.h ****  * Redistribution and use in source and binary forms, with or without
  13:/home/bekeband/workspace/OLIMEX_Start/src/sam_uart/uart_serial.h ****  * modification, are permitted provided that the following conditions are met:
  14:/home/bekeband/workspace/OLIMEX_Start/src/sam_uart/uart_serial.h ****  *
  15:/home/bekeband/workspace/OLIMEX_Start/src/sam_uart/uart_serial.h ****  * 1. Redistributions of source code must retain the above copyright notice,
  16:/home/bekeband/workspace/OLIMEX_Start/src/sam_uart/uart_serial.h ****  *    this list of conditions and the following disclaimer.
  17:/home/bekeband/workspace/OLIMEX_Start/src/sam_uart/uart_serial.h ****  *
  18:/home/bekeband/workspace/OLIMEX_Start/src/sam_uart/uart_serial.h ****  * 2. Redistributions in binary form must reproduce the above copyright notice,
  19:/home/bekeband/workspace/OLIMEX_Start/src/sam_uart/uart_serial.h ****  *    this list of conditions and the following disclaimer in the documentation
  20:/home/bekeband/workspace/OLIMEX_Start/src/sam_uart/uart_serial.h ****  *    and/or other materials provided with the distribution.
  21:/home/bekeband/workspace/OLIMEX_Start/src/sam_uart/uart_serial.h ****  *
  22:/home/bekeband/workspace/OLIMEX_Start/src/sam_uart/uart_serial.h ****  * 3. The name of Atmel may not be used to endorse or promote products derived
  23:/home/bekeband/workspace/OLIMEX_Start/src/sam_uart/uart_serial.h ****  *    from this software without specific prior written permission.
  24:/home/bekeband/workspace/OLIMEX_Start/src/sam_uart/uart_serial.h ****  *
  25:/home/bekeband/workspace/OLIMEX_Start/src/sam_uart/uart_serial.h ****  * 4. This software may only be redistributed and used in connection with an
  26:/home/bekeband/workspace/OLIMEX_Start/src/sam_uart/uart_serial.h ****  *    Atmel microcontroller product.
  27:/home/bekeband/workspace/OLIMEX_Start/src/sam_uart/uart_serial.h ****  *
  28:/home/bekeband/workspace/OLIMEX_Start/src/sam_uart/uart_serial.h ****  * THIS SOFTWARE IS PROVIDED BY ATMEL "AS IS" AND ANY EXPRESS OR IMPLIED
  29:/home/bekeband/workspace/OLIMEX_Start/src/sam_uart/uart_serial.h ****  * WARRANTIES, INCLUDING, BUT NOT LIMITED TO, THE IMPLIED WARRANTIES OF
  30:/home/bekeband/workspace/OLIMEX_Start/src/sam_uart/uart_serial.h ****  * MERCHANTABILITY, FITNESS FOR A PARTICULAR PURPOSE AND NON-INFRINGEMENT ARE
  31:/home/bekeband/workspace/OLIMEX_Start/src/sam_uart/uart_serial.h ****  * EXPRESSLY AND SPECIFICALLY DISCLAIMED. IN NO EVENT SHALL ATMEL BE LIABLE FOR
  32:/home/bekeband/workspace/OLIMEX_Start/src/sam_uart/uart_serial.h ****  * ANY DIRECT, INDIRECT, INCIDENTAL, SPECIAL, EXEMPLARY, OR CONSEQUENTIAL
  33:/home/bekeband/workspace/OLIMEX_Start/src/sam_uart/uart_serial.h ****  * DAMAGES (INCLUDING, BUT NOT LIMITED TO, PROCUREMENT OF SUBSTITUTE GOODS
  34:/home/bekeband/workspace/OLIMEX_Start/src/sam_uart/uart_serial.h ****  * OR SERVICES; LOSS OF USE, DATA, OR PROFITS; OR BUSINESS INTERRUPTION)
  35:/home/bekeband/workspace/OLIMEX_Start/src/sam_uart/uart_serial.h ****  * HOWEVER CAUSED AND ON ANY THEORY OF LIABILITY, WHETHER IN CONTRACT,
  36:/home/bekeband/workspace/OLIMEX_Start/src/sam_uart/uart_serial.h ****  * STRICT LIABILITY, OR TORT (INCLUDING NEGLIGENCE OR OTHERWISE) ARISING IN
  37:/home/bekeband/workspace/OLIMEX_Start/src/sam_uart/uart_serial.h ****  * ANY WAY OUT OF THE USE OF THIS SOFTWARE, EVEN IF ADVISED OF THE
  38:/home/bekeband/workspace/OLIMEX_Start/src/sam_uart/uart_serial.h ****  * POSSIBILITY OF SUCH DAMAGE.
  39:/home/bekeband/workspace/OLIMEX_Start/src/sam_uart/uart_serial.h ****  *
  40:/home/bekeband/workspace/OLIMEX_Start/src/sam_uart/uart_serial.h ****  * \asf_license_stop
  41:/home/bekeband/workspace/OLIMEX_Start/src/sam_uart/uart_serial.h ****  *
  42:/home/bekeband/workspace/OLIMEX_Start/src/sam_uart/uart_serial.h ****  */
  43:/home/bekeband/workspace/OLIMEX_Start/src/sam_uart/uart_serial.h **** /*
  44:/home/bekeband/workspace/OLIMEX_Start/src/sam_uart/uart_serial.h ****  * Support and FAQ: visit <a href="http://www.atmel.com/design-support/">Atmel Support</a>
  45:/home/bekeband/workspace/OLIMEX_Start/src/sam_uart/uart_serial.h ****  */
  46:/home/bekeband/workspace/OLIMEX_Start/src/sam_uart/uart_serial.h **** #ifndef _UART_SERIAL_H_
  47:/home/bekeband/workspace/OLIMEX_Start/src/sam_uart/uart_serial.h **** #define _UART_SERIAL_H_
  48:/home/bekeband/workspace/OLIMEX_Start/src/sam_uart/uart_serial.h **** 
  49:/home/bekeband/workspace/OLIMEX_Start/src/sam_uart/uart_serial.h **** #include "compiler.h"
  50:/home/bekeband/workspace/OLIMEX_Start/src/sam_uart/uart_serial.h **** #include "sysclk.h"
  51:/home/bekeband/workspace/OLIMEX_Start/src/sam_uart/uart_serial.h **** #if (SAMG55)
  52:/home/bekeband/workspace/OLIMEX_Start/src/sam_uart/uart_serial.h **** #include "flexcom.h"
  53:/home/bekeband/workspace/OLIMEX_Start/src/sam_uart/uart_serial.h **** #endif
  54:/home/bekeband/workspace/OLIMEX_Start/src/sam_uart/uart_serial.h **** #if ((!SAM4L) && (!SAMG55))
  55:/home/bekeband/workspace/OLIMEX_Start/src/sam_uart/uart_serial.h **** #include "uart.h"
  56:/home/bekeband/workspace/OLIMEX_Start/src/sam_uart/uart_serial.h **** #endif
  57:/home/bekeband/workspace/OLIMEX_Start/src/sam_uart/uart_serial.h **** #include "usart.h"
  58:/home/bekeband/workspace/OLIMEX_Start/src/sam_uart/uart_serial.h **** 
  59:/home/bekeband/workspace/OLIMEX_Start/src/sam_uart/uart_serial.h **** /** 
  60:/home/bekeband/workspace/OLIMEX_Start/src/sam_uart/uart_serial.h ****  * \name Serial Management Configuration
  61:/home/bekeband/workspace/OLIMEX_Start/src/sam_uart/uart_serial.h ****  */
  62:/home/bekeband/workspace/OLIMEX_Start/src/sam_uart/uart_serial.h **** //! @{
  63:/home/bekeband/workspace/OLIMEX_Start/src/sam_uart/uart_serial.h **** #include "conf_uart_serial.h"
  64:/home/bekeband/workspace/OLIMEX_Start/src/sam_uart/uart_serial.h **** 
  65:/home/bekeband/workspace/OLIMEX_Start/src/sam_uart/uart_serial.h **** //! @}
  66:/home/bekeband/workspace/OLIMEX_Start/src/sam_uart/uart_serial.h **** 
  67:/home/bekeband/workspace/OLIMEX_Start/src/sam_uart/uart_serial.h **** /** Input parameters when initializing RS232 and similar modes. */
  68:/home/bekeband/workspace/OLIMEX_Start/src/sam_uart/uart_serial.h **** typedef struct uart_rs232_options {
  69:/home/bekeband/workspace/OLIMEX_Start/src/sam_uart/uart_serial.h **** 	/** Set baud rate of the USART (unused in slave modes). */
  70:/home/bekeband/workspace/OLIMEX_Start/src/sam_uart/uart_serial.h **** 	uint32_t baudrate;
  71:/home/bekeband/workspace/OLIMEX_Start/src/sam_uart/uart_serial.h **** 
  72:/home/bekeband/workspace/OLIMEX_Start/src/sam_uart/uart_serial.h **** 	/** Number of bits to transmit as a character (5-bit to 9-bit). */
  73:/home/bekeband/workspace/OLIMEX_Start/src/sam_uart/uart_serial.h **** 	uint32_t charlength;
  74:/home/bekeband/workspace/OLIMEX_Start/src/sam_uart/uart_serial.h **** 
  75:/home/bekeband/workspace/OLIMEX_Start/src/sam_uart/uart_serial.h **** 	/**
  76:/home/bekeband/workspace/OLIMEX_Start/src/sam_uart/uart_serial.h **** 	 * Parity type: USART_PMODE_DISABLED_gc, USART_PMODE_EVEN_gc,
  77:/home/bekeband/workspace/OLIMEX_Start/src/sam_uart/uart_serial.h **** 	 * USART_PMODE_ODD_gc.
  78:/home/bekeband/workspace/OLIMEX_Start/src/sam_uart/uart_serial.h **** 	 */
  79:/home/bekeband/workspace/OLIMEX_Start/src/sam_uart/uart_serial.h **** 	uint32_t paritytype;
  80:/home/bekeband/workspace/OLIMEX_Start/src/sam_uart/uart_serial.h **** 
  81:/home/bekeband/workspace/OLIMEX_Start/src/sam_uart/uart_serial.h **** 	/** 1, 1.5 or 2 stop bits. */
  82:/home/bekeband/workspace/OLIMEX_Start/src/sam_uart/uart_serial.h **** 	uint32_t stopbits;
  83:/home/bekeband/workspace/OLIMEX_Start/src/sam_uart/uart_serial.h **** 
  84:/home/bekeband/workspace/OLIMEX_Start/src/sam_uart/uart_serial.h **** } usart_rs232_options_t;
  85:/home/bekeband/workspace/OLIMEX_Start/src/sam_uart/uart_serial.h **** 
  86:/home/bekeband/workspace/OLIMEX_Start/src/sam_uart/uart_serial.h **** typedef usart_rs232_options_t usart_serial_options_t;
  87:/home/bekeband/workspace/OLIMEX_Start/src/sam_uart/uart_serial.h **** 
  88:/home/bekeband/workspace/OLIMEX_Start/src/sam_uart/uart_serial.h **** typedef Usart *usart_if;
  89:/home/bekeband/workspace/OLIMEX_Start/src/sam_uart/uart_serial.h **** 
  90:/home/bekeband/workspace/OLIMEX_Start/src/sam_uart/uart_serial.h **** /** 
  91:/home/bekeband/workspace/OLIMEX_Start/src/sam_uart/uart_serial.h ****  * \brief Initializes the Usart in master mode.
  92:/home/bekeband/workspace/OLIMEX_Start/src/sam_uart/uart_serial.h ****  *
  93:/home/bekeband/workspace/OLIMEX_Start/src/sam_uart/uart_serial.h ****  * \param p_usart  Base address of the USART instance.
  94:/home/bekeband/workspace/OLIMEX_Start/src/sam_uart/uart_serial.h ****  * \param opt      Options needed to set up RS232 communication (see
  95:/home/bekeband/workspace/OLIMEX_Start/src/sam_uart/uart_serial.h ****  * \ref usart_options_t).
  96:/home/bekeband/workspace/OLIMEX_Start/src/sam_uart/uart_serial.h ****  */
  97:/home/bekeband/workspace/OLIMEX_Start/src/sam_uart/uart_serial.h **** static inline void usart_serial_init(usart_if p_usart,
  98:/home/bekeband/workspace/OLIMEX_Start/src/sam_uart/uart_serial.h **** 		usart_serial_options_t *opt)
  99:/home/bekeband/workspace/OLIMEX_Start/src/sam_uart/uart_serial.h **** {
 100:/home/bekeband/workspace/OLIMEX_Start/src/sam_uart/uart_serial.h **** #if ((!SAM4L) && (!SAMG55))
 101:/home/bekeband/workspace/OLIMEX_Start/src/sam_uart/uart_serial.h **** 	sam_uart_opt_t uart_settings;
 102:/home/bekeband/workspace/OLIMEX_Start/src/sam_uart/uart_serial.h **** 	uart_settings.ul_mck = sysclk_get_peripheral_hz();
 103:/home/bekeband/workspace/OLIMEX_Start/src/sam_uart/uart_serial.h **** 	uart_settings.ul_baudrate = opt->baudrate;
 104:/home/bekeband/workspace/OLIMEX_Start/src/sam_uart/uart_serial.h **** 	uart_settings.ul_mode = opt->paritytype;
 105:/home/bekeband/workspace/OLIMEX_Start/src/sam_uart/uart_serial.h **** #endif
 106:/home/bekeband/workspace/OLIMEX_Start/src/sam_uart/uart_serial.h **** 
 107:/home/bekeband/workspace/OLIMEX_Start/src/sam_uart/uart_serial.h **** 	sam_usart_opt_t usart_settings;
 108:/home/bekeband/workspace/OLIMEX_Start/src/sam_uart/uart_serial.h **** 	usart_settings.baudrate = opt->baudrate;
 109:/home/bekeband/workspace/OLIMEX_Start/src/sam_uart/uart_serial.h **** 	usart_settings.char_length = opt->charlength;
 110:/home/bekeband/workspace/OLIMEX_Start/src/sam_uart/uart_serial.h **** 	usart_settings.parity_type = opt->paritytype;
 111:/home/bekeband/workspace/OLIMEX_Start/src/sam_uart/uart_serial.h **** 	usart_settings.stop_bits= opt->stopbits;
 112:/home/bekeband/workspace/OLIMEX_Start/src/sam_uart/uart_serial.h **** 	usart_settings.channel_mode= US_MR_CHMODE_NORMAL;
 113:/home/bekeband/workspace/OLIMEX_Start/src/sam_uart/uart_serial.h **** 	
 114:/home/bekeband/workspace/OLIMEX_Start/src/sam_uart/uart_serial.h **** #ifdef UART
 115:/home/bekeband/workspace/OLIMEX_Start/src/sam_uart/uart_serial.h **** 	if (UART == (Uart*)p_usart) {
 116:/home/bekeband/workspace/OLIMEX_Start/src/sam_uart/uart_serial.h **** 		sysclk_enable_peripheral_clock(ID_UART);
 117:/home/bekeband/workspace/OLIMEX_Start/src/sam_uart/uart_serial.h **** 		/* Configure UART */
 118:/home/bekeband/workspace/OLIMEX_Start/src/sam_uart/uart_serial.h **** 		uart_init((Uart*)p_usart, &uart_settings);
 119:/home/bekeband/workspace/OLIMEX_Start/src/sam_uart/uart_serial.h **** 	}
 120:/home/bekeband/workspace/OLIMEX_Start/src/sam_uart/uart_serial.h **** #else
 121:/home/bekeband/workspace/OLIMEX_Start/src/sam_uart/uart_serial.h **** # ifdef UART0
 122:/home/bekeband/workspace/OLIMEX_Start/src/sam_uart/uart_serial.h **** 	if (UART0 == (Uart*)p_usart) {
 123:/home/bekeband/workspace/OLIMEX_Start/src/sam_uart/uart_serial.h **** 		sysclk_enable_peripheral_clock(ID_UART0);
 124:/home/bekeband/workspace/OLIMEX_Start/src/sam_uart/uart_serial.h **** 		/* Configure UART */
 125:/home/bekeband/workspace/OLIMEX_Start/src/sam_uart/uart_serial.h **** 		uart_init((Uart*)p_usart, &uart_settings);
 126:/home/bekeband/workspace/OLIMEX_Start/src/sam_uart/uart_serial.h **** 	}
 127:/home/bekeband/workspace/OLIMEX_Start/src/sam_uart/uart_serial.h **** # endif
 128:/home/bekeband/workspace/OLIMEX_Start/src/sam_uart/uart_serial.h **** # ifdef UART1
 129:/home/bekeband/workspace/OLIMEX_Start/src/sam_uart/uart_serial.h **** 	if (UART1 == (Uart*)p_usart) {
 130:/home/bekeband/workspace/OLIMEX_Start/src/sam_uart/uart_serial.h **** 		sysclk_enable_peripheral_clock(ID_UART1);
 131:/home/bekeband/workspace/OLIMEX_Start/src/sam_uart/uart_serial.h **** 		/* Configure UART */
 132:/home/bekeband/workspace/OLIMEX_Start/src/sam_uart/uart_serial.h **** 		uart_init((Uart*)p_usart, &uart_settings);
 133:/home/bekeband/workspace/OLIMEX_Start/src/sam_uart/uart_serial.h **** 	}
 134:/home/bekeband/workspace/OLIMEX_Start/src/sam_uart/uart_serial.h **** # endif
 135:/home/bekeband/workspace/OLIMEX_Start/src/sam_uart/uart_serial.h **** # ifdef UART2
 136:/home/bekeband/workspace/OLIMEX_Start/src/sam_uart/uart_serial.h **** 	if (UART2 == (Uart*)p_usart) {
 137:/home/bekeband/workspace/OLIMEX_Start/src/sam_uart/uart_serial.h **** 		sysclk_enable_peripheral_clock(ID_UART2);
 138:/home/bekeband/workspace/OLIMEX_Start/src/sam_uart/uart_serial.h **** 		/* Configure UART */
 139:/home/bekeband/workspace/OLIMEX_Start/src/sam_uart/uart_serial.h **** 		uart_init((Uart*)p_usart, &uart_settings);
 140:/home/bekeband/workspace/OLIMEX_Start/src/sam_uart/uart_serial.h **** 	}
 141:/home/bekeband/workspace/OLIMEX_Start/src/sam_uart/uart_serial.h **** # endif
 142:/home/bekeband/workspace/OLIMEX_Start/src/sam_uart/uart_serial.h **** # ifdef UART3
 143:/home/bekeband/workspace/OLIMEX_Start/src/sam_uart/uart_serial.h **** 	if (UART3 == (Uart*)p_usart) {
 144:/home/bekeband/workspace/OLIMEX_Start/src/sam_uart/uart_serial.h **** 		sysclk_enable_peripheral_clock(ID_UART3);
 145:/home/bekeband/workspace/OLIMEX_Start/src/sam_uart/uart_serial.h **** 		/* Configure UART */
 146:/home/bekeband/workspace/OLIMEX_Start/src/sam_uart/uart_serial.h **** 		uart_init((Uart*)p_usart, &uart_settings);
 147:/home/bekeband/workspace/OLIMEX_Start/src/sam_uart/uart_serial.h **** 	}
 148:/home/bekeband/workspace/OLIMEX_Start/src/sam_uart/uart_serial.h **** # endif
 149:/home/bekeband/workspace/OLIMEX_Start/src/sam_uart/uart_serial.h **** #endif /* ifdef UART */
 150:/home/bekeband/workspace/OLIMEX_Start/src/sam_uart/uart_serial.h **** 
 151:/home/bekeband/workspace/OLIMEX_Start/src/sam_uart/uart_serial.h **** 
 152:/home/bekeband/workspace/OLIMEX_Start/src/sam_uart/uart_serial.h **** #ifdef USART
 153:/home/bekeband/workspace/OLIMEX_Start/src/sam_uart/uart_serial.h **** 	if (USART == p_usart) {
 154:/home/bekeband/workspace/OLIMEX_Start/src/sam_uart/uart_serial.h **** #if (!SAM4L)
 155:/home/bekeband/workspace/OLIMEX_Start/src/sam_uart/uart_serial.h **** 		sysclk_enable_peripheral_clock(ID_USART);
 156:/home/bekeband/workspace/OLIMEX_Start/src/sam_uart/uart_serial.h **** 		/* Configure USART */
 157:/home/bekeband/workspace/OLIMEX_Start/src/sam_uart/uart_serial.h **** 		usart_init_rs232(p_usart, &usart_settings,
 158:/home/bekeband/workspace/OLIMEX_Start/src/sam_uart/uart_serial.h **** 				sysclk_get_peripheral_hz());
 159:/home/bekeband/workspace/OLIMEX_Start/src/sam_uart/uart_serial.h **** #endif
 160:/home/bekeband/workspace/OLIMEX_Start/src/sam_uart/uart_serial.h **** #if (SAM4L)
 161:/home/bekeband/workspace/OLIMEX_Start/src/sam_uart/uart_serial.h **** 		sysclk_enable_peripheral_clock(p_usart);
 162:/home/bekeband/workspace/OLIMEX_Start/src/sam_uart/uart_serial.h **** 		/* Configure USART */
 163:/home/bekeband/workspace/OLIMEX_Start/src/sam_uart/uart_serial.h **** 		usart_init_rs232(p_usart, &usart_settings,
 164:/home/bekeband/workspace/OLIMEX_Start/src/sam_uart/uart_serial.h **** 				sysclk_get_peripheral_bus_hz(p_usart));
 165:/home/bekeband/workspace/OLIMEX_Start/src/sam_uart/uart_serial.h **** #endif
 166:/home/bekeband/workspace/OLIMEX_Start/src/sam_uart/uart_serial.h **** 		/* Enable the receiver and transmitter. */
 167:/home/bekeband/workspace/OLIMEX_Start/src/sam_uart/uart_serial.h **** 		usart_enable_tx(p_usart);
 168:/home/bekeband/workspace/OLIMEX_Start/src/sam_uart/uart_serial.h **** 		usart_enable_rx(p_usart);
 169:/home/bekeband/workspace/OLIMEX_Start/src/sam_uart/uart_serial.h **** 	}
 170:/home/bekeband/workspace/OLIMEX_Start/src/sam_uart/uart_serial.h **** #else
 171:/home/bekeband/workspace/OLIMEX_Start/src/sam_uart/uart_serial.h **** # ifdef USART0
 172:/home/bekeband/workspace/OLIMEX_Start/src/sam_uart/uart_serial.h **** 	if (USART0 == p_usart) {
 173:/home/bekeband/workspace/OLIMEX_Start/src/sam_uart/uart_serial.h **** #if (!SAM4L)
 174:/home/bekeband/workspace/OLIMEX_Start/src/sam_uart/uart_serial.h **** #if (SAMG55)
 175:/home/bekeband/workspace/OLIMEX_Start/src/sam_uart/uart_serial.h **** 		flexcom_enable(FLEXCOM0);
 176:/home/bekeband/workspace/OLIMEX_Start/src/sam_uart/uart_serial.h **** 		flexcom_set_opmode(FLEXCOM0, FLEXCOM_USART);
 177:/home/bekeband/workspace/OLIMEX_Start/src/sam_uart/uart_serial.h **** #else
 178:/home/bekeband/workspace/OLIMEX_Start/src/sam_uart/uart_serial.h **** 		sysclk_enable_peripheral_clock(ID_USART0);
 179:/home/bekeband/workspace/OLIMEX_Start/src/sam_uart/uart_serial.h **** #endif
 180:/home/bekeband/workspace/OLIMEX_Start/src/sam_uart/uart_serial.h **** 		/* Configure USART */
 181:/home/bekeband/workspace/OLIMEX_Start/src/sam_uart/uart_serial.h **** 		usart_init_rs232(p_usart, &usart_settings,
 182:/home/bekeband/workspace/OLIMEX_Start/src/sam_uart/uart_serial.h **** 				sysclk_get_peripheral_hz());
 183:/home/bekeband/workspace/OLIMEX_Start/src/sam_uart/uart_serial.h **** #endif
 184:/home/bekeband/workspace/OLIMEX_Start/src/sam_uart/uart_serial.h **** #if (SAM4L)
 185:/home/bekeband/workspace/OLIMEX_Start/src/sam_uart/uart_serial.h **** 		sysclk_enable_peripheral_clock(p_usart);
 186:/home/bekeband/workspace/OLIMEX_Start/src/sam_uart/uart_serial.h **** 		/* Configure USART */
 187:/home/bekeband/workspace/OLIMEX_Start/src/sam_uart/uart_serial.h **** 		usart_init_rs232(p_usart, &usart_settings,
 188:/home/bekeband/workspace/OLIMEX_Start/src/sam_uart/uart_serial.h **** 				sysclk_get_peripheral_bus_hz(p_usart));
 189:/home/bekeband/workspace/OLIMEX_Start/src/sam_uart/uart_serial.h **** #endif
 190:/home/bekeband/workspace/OLIMEX_Start/src/sam_uart/uart_serial.h **** 		/* Enable the receiver and transmitter. */
 191:/home/bekeband/workspace/OLIMEX_Start/src/sam_uart/uart_serial.h **** 		usart_enable_tx(p_usart);
 192:/home/bekeband/workspace/OLIMEX_Start/src/sam_uart/uart_serial.h **** 		usart_enable_rx(p_usart);
 193:/home/bekeband/workspace/OLIMEX_Start/src/sam_uart/uart_serial.h **** 	}
 194:/home/bekeband/workspace/OLIMEX_Start/src/sam_uart/uart_serial.h **** # endif
 195:/home/bekeband/workspace/OLIMEX_Start/src/sam_uart/uart_serial.h **** # ifdef USART1
 196:/home/bekeband/workspace/OLIMEX_Start/src/sam_uart/uart_serial.h **** 	if (USART1 == p_usart) {
 197:/home/bekeband/workspace/OLIMEX_Start/src/sam_uart/uart_serial.h **** #if (!SAM4L)
 198:/home/bekeband/workspace/OLIMEX_Start/src/sam_uart/uart_serial.h **** #if (SAMG55)
 199:/home/bekeband/workspace/OLIMEX_Start/src/sam_uart/uart_serial.h **** 		flexcom_enable(FLEXCOM1);
 200:/home/bekeband/workspace/OLIMEX_Start/src/sam_uart/uart_serial.h **** 		flexcom_set_opmode(FLEXCOM1, FLEXCOM_USART);
 201:/home/bekeband/workspace/OLIMEX_Start/src/sam_uart/uart_serial.h **** #else
 202:/home/bekeband/workspace/OLIMEX_Start/src/sam_uart/uart_serial.h **** 		sysclk_enable_peripheral_clock(ID_USART1);
 203:/home/bekeband/workspace/OLIMEX_Start/src/sam_uart/uart_serial.h **** #endif
 204:/home/bekeband/workspace/OLIMEX_Start/src/sam_uart/uart_serial.h **** 		/* Configure USART */
 205:/home/bekeband/workspace/OLIMEX_Start/src/sam_uart/uart_serial.h **** 		usart_init_rs232(p_usart, &usart_settings,
 206:/home/bekeband/workspace/OLIMEX_Start/src/sam_uart/uart_serial.h **** 				sysclk_get_peripheral_hz());
 207:/home/bekeband/workspace/OLIMEX_Start/src/sam_uart/uart_serial.h **** #endif
 208:/home/bekeband/workspace/OLIMEX_Start/src/sam_uart/uart_serial.h **** #if (SAM4L)
 209:/home/bekeband/workspace/OLIMEX_Start/src/sam_uart/uart_serial.h **** 		sysclk_enable_peripheral_clock(p_usart);
 210:/home/bekeband/workspace/OLIMEX_Start/src/sam_uart/uart_serial.h **** 		/* Configure USART */
 211:/home/bekeband/workspace/OLIMEX_Start/src/sam_uart/uart_serial.h **** 		usart_init_rs232(p_usart, &usart_settings,
 212:/home/bekeband/workspace/OLIMEX_Start/src/sam_uart/uart_serial.h **** 				sysclk_get_peripheral_bus_hz(p_usart));
 213:/home/bekeband/workspace/OLIMEX_Start/src/sam_uart/uart_serial.h **** #endif
 214:/home/bekeband/workspace/OLIMEX_Start/src/sam_uart/uart_serial.h **** 		/* Enable the receiver and transmitter. */
 215:/home/bekeband/workspace/OLIMEX_Start/src/sam_uart/uart_serial.h **** 		usart_enable_tx(p_usart);
 216:/home/bekeband/workspace/OLIMEX_Start/src/sam_uart/uart_serial.h **** 		usart_enable_rx(p_usart);
 217:/home/bekeband/workspace/OLIMEX_Start/src/sam_uart/uart_serial.h **** 	}
 218:/home/bekeband/workspace/OLIMEX_Start/src/sam_uart/uart_serial.h **** # endif
 219:/home/bekeband/workspace/OLIMEX_Start/src/sam_uart/uart_serial.h **** # ifdef USART2
 220:/home/bekeband/workspace/OLIMEX_Start/src/sam_uart/uart_serial.h **** 	if (USART2 == p_usart) {
 221:/home/bekeband/workspace/OLIMEX_Start/src/sam_uart/uart_serial.h **** #if (!SAM4L)
 222:/home/bekeband/workspace/OLIMEX_Start/src/sam_uart/uart_serial.h **** #if (SAMG55)
 223:/home/bekeband/workspace/OLIMEX_Start/src/sam_uart/uart_serial.h **** 		flexcom_enable(FLEXCOM2);
 224:/home/bekeband/workspace/OLIMEX_Start/src/sam_uart/uart_serial.h **** 		flexcom_set_opmode(FLEXCOM2, FLEXCOM_USART);
 225:/home/bekeband/workspace/OLIMEX_Start/src/sam_uart/uart_serial.h **** #else
 226:/home/bekeband/workspace/OLIMEX_Start/src/sam_uart/uart_serial.h **** 		sysclk_enable_peripheral_clock(ID_USART2);
 227:/home/bekeband/workspace/OLIMEX_Start/src/sam_uart/uart_serial.h **** #endif
 228:/home/bekeband/workspace/OLIMEX_Start/src/sam_uart/uart_serial.h **** 		/* Configure USART */
 229:/home/bekeband/workspace/OLIMEX_Start/src/sam_uart/uart_serial.h **** 		usart_init_rs232(p_usart, &usart_settings,
 230:/home/bekeband/workspace/OLIMEX_Start/src/sam_uart/uart_serial.h **** 				sysclk_get_peripheral_hz());
 231:/home/bekeband/workspace/OLIMEX_Start/src/sam_uart/uart_serial.h **** #endif
 232:/home/bekeband/workspace/OLIMEX_Start/src/sam_uart/uart_serial.h **** #if (SAM4L)
 233:/home/bekeband/workspace/OLIMEX_Start/src/sam_uart/uart_serial.h **** 		sysclk_enable_peripheral_clock(p_usart);
 234:/home/bekeband/workspace/OLIMEX_Start/src/sam_uart/uart_serial.h **** 		/* Configure USART */
 235:/home/bekeband/workspace/OLIMEX_Start/src/sam_uart/uart_serial.h **** 		usart_init_rs232(p_usart, &usart_settings,
 236:/home/bekeband/workspace/OLIMEX_Start/src/sam_uart/uart_serial.h **** 				sysclk_get_peripheral_bus_hz(p_usart));
 237:/home/bekeband/workspace/OLIMEX_Start/src/sam_uart/uart_serial.h **** #endif
 238:/home/bekeband/workspace/OLIMEX_Start/src/sam_uart/uart_serial.h **** 		/* Enable the receiver and transmitter. */
 239:/home/bekeband/workspace/OLIMEX_Start/src/sam_uart/uart_serial.h **** 		usart_enable_tx(p_usart);
 240:/home/bekeband/workspace/OLIMEX_Start/src/sam_uart/uart_serial.h **** 		usart_enable_rx(p_usart);
 241:/home/bekeband/workspace/OLIMEX_Start/src/sam_uart/uart_serial.h **** 	}
 242:/home/bekeband/workspace/OLIMEX_Start/src/sam_uart/uart_serial.h **** # endif
 243:/home/bekeband/workspace/OLIMEX_Start/src/sam_uart/uart_serial.h **** # ifdef USART3
 244:/home/bekeband/workspace/OLIMEX_Start/src/sam_uart/uart_serial.h **** 	if (USART3 == p_usart) {
 245:/home/bekeband/workspace/OLIMEX_Start/src/sam_uart/uart_serial.h **** #if (!SAM4L)
 246:/home/bekeband/workspace/OLIMEX_Start/src/sam_uart/uart_serial.h **** #if (SAMG55)
 247:/home/bekeband/workspace/OLIMEX_Start/src/sam_uart/uart_serial.h **** 		flexcom_enable(FLEXCOM3);
 248:/home/bekeband/workspace/OLIMEX_Start/src/sam_uart/uart_serial.h **** 		flexcom_set_opmode(FLEXCOM3, FLEXCOM_USART);
 249:/home/bekeband/workspace/OLIMEX_Start/src/sam_uart/uart_serial.h **** #else
 250:/home/bekeband/workspace/OLIMEX_Start/src/sam_uart/uart_serial.h **** 		sysclk_enable_peripheral_clock(ID_USART3);
 251:/home/bekeband/workspace/OLIMEX_Start/src/sam_uart/uart_serial.h **** #endif
 252:/home/bekeband/workspace/OLIMEX_Start/src/sam_uart/uart_serial.h **** 		/* Configure USART */
 253:/home/bekeband/workspace/OLIMEX_Start/src/sam_uart/uart_serial.h **** 		usart_init_rs232(p_usart, &usart_settings,
 254:/home/bekeband/workspace/OLIMEX_Start/src/sam_uart/uart_serial.h **** 				sysclk_get_peripheral_hz());
 255:/home/bekeband/workspace/OLIMEX_Start/src/sam_uart/uart_serial.h **** #endif
 256:/home/bekeband/workspace/OLIMEX_Start/src/sam_uart/uart_serial.h **** #if (SAM4L)
 257:/home/bekeband/workspace/OLIMEX_Start/src/sam_uart/uart_serial.h **** 		sysclk_enable_peripheral_clock(p_usart);
 258:/home/bekeband/workspace/OLIMEX_Start/src/sam_uart/uart_serial.h **** 		/* Configure USART */
 259:/home/bekeband/workspace/OLIMEX_Start/src/sam_uart/uart_serial.h **** 		usart_init_rs232(p_usart, &usart_settings,
 260:/home/bekeband/workspace/OLIMEX_Start/src/sam_uart/uart_serial.h **** 				sysclk_get_peripheral_bus_hz(p_usart));
 261:/home/bekeband/workspace/OLIMEX_Start/src/sam_uart/uart_serial.h **** #endif
 262:/home/bekeband/workspace/OLIMEX_Start/src/sam_uart/uart_serial.h **** 		/* Enable the receiver and transmitter. */
 263:/home/bekeband/workspace/OLIMEX_Start/src/sam_uart/uart_serial.h **** 		usart_enable_tx(p_usart);
 264:/home/bekeband/workspace/OLIMEX_Start/src/sam_uart/uart_serial.h **** 		usart_enable_rx(p_usart);
 265:/home/bekeband/workspace/OLIMEX_Start/src/sam_uart/uart_serial.h **** 	}
 266:/home/bekeband/workspace/OLIMEX_Start/src/sam_uart/uart_serial.h **** # endif
 267:/home/bekeband/workspace/OLIMEX_Start/src/sam_uart/uart_serial.h **** # ifdef USART4
 268:/home/bekeband/workspace/OLIMEX_Start/src/sam_uart/uart_serial.h **** 	if (USART4 == p_usart) {
 269:/home/bekeband/workspace/OLIMEX_Start/src/sam_uart/uart_serial.h **** #if (!SAM4L)
 270:/home/bekeband/workspace/OLIMEX_Start/src/sam_uart/uart_serial.h **** #if (SAMG55)
 271:/home/bekeband/workspace/OLIMEX_Start/src/sam_uart/uart_serial.h **** 		flexcom_enable(FLEXCOM4);
 272:/home/bekeband/workspace/OLIMEX_Start/src/sam_uart/uart_serial.h **** 		flexcom_set_opmode(FLEXCOM4, FLEXCOM_USART);
 273:/home/bekeband/workspace/OLIMEX_Start/src/sam_uart/uart_serial.h **** #else
 274:/home/bekeband/workspace/OLIMEX_Start/src/sam_uart/uart_serial.h **** 		sysclk_enable_peripheral_clock(ID_USART4);
 275:/home/bekeband/workspace/OLIMEX_Start/src/sam_uart/uart_serial.h **** #endif
 276:/home/bekeband/workspace/OLIMEX_Start/src/sam_uart/uart_serial.h **** 		/* Configure USART */
 277:/home/bekeband/workspace/OLIMEX_Start/src/sam_uart/uart_serial.h **** 		usart_init_rs232(p_usart, &usart_settings,
 278:/home/bekeband/workspace/OLIMEX_Start/src/sam_uart/uart_serial.h **** 				sysclk_get_peripheral_hz());
 279:/home/bekeband/workspace/OLIMEX_Start/src/sam_uart/uart_serial.h **** #endif
 280:/home/bekeband/workspace/OLIMEX_Start/src/sam_uart/uart_serial.h **** #if (SAM4L)
 281:/home/bekeband/workspace/OLIMEX_Start/src/sam_uart/uart_serial.h **** 		sysclk_enable_peripheral_clock(p_usart);
 282:/home/bekeband/workspace/OLIMEX_Start/src/sam_uart/uart_serial.h **** 		/* Configure USART */
 283:/home/bekeband/workspace/OLIMEX_Start/src/sam_uart/uart_serial.h **** 		usart_init_rs232(p_usart, &usart_settings,
 284:/home/bekeband/workspace/OLIMEX_Start/src/sam_uart/uart_serial.h **** 				sysclk_get_peripheral_bus_hz(p_usart));
 285:/home/bekeband/workspace/OLIMEX_Start/src/sam_uart/uart_serial.h **** #endif
 286:/home/bekeband/workspace/OLIMEX_Start/src/sam_uart/uart_serial.h **** 		/* Enable the receiver and transmitter. */
 287:/home/bekeband/workspace/OLIMEX_Start/src/sam_uart/uart_serial.h **** 		usart_enable_tx(p_usart);
 288:/home/bekeband/workspace/OLIMEX_Start/src/sam_uart/uart_serial.h **** 		usart_enable_rx(p_usart);
 289:/home/bekeband/workspace/OLIMEX_Start/src/sam_uart/uart_serial.h **** 	}
 290:/home/bekeband/workspace/OLIMEX_Start/src/sam_uart/uart_serial.h **** # endif
 291:/home/bekeband/workspace/OLIMEX_Start/src/sam_uart/uart_serial.h **** # ifdef USART5
 292:/home/bekeband/workspace/OLIMEX_Start/src/sam_uart/uart_serial.h **** 	if (USART5 == p_usart) {
 293:/home/bekeband/workspace/OLIMEX_Start/src/sam_uart/uart_serial.h **** #if (!SAM4L)
 294:/home/bekeband/workspace/OLIMEX_Start/src/sam_uart/uart_serial.h **** #if (SAMG55)
 295:/home/bekeband/workspace/OLIMEX_Start/src/sam_uart/uart_serial.h **** 		flexcom_enable(FLEXCOM5);
 296:/home/bekeband/workspace/OLIMEX_Start/src/sam_uart/uart_serial.h **** 		flexcom_set_opmode(FLEXCOM5, FLEXCOM_USART);
 297:/home/bekeband/workspace/OLIMEX_Start/src/sam_uart/uart_serial.h **** #else
 298:/home/bekeband/workspace/OLIMEX_Start/src/sam_uart/uart_serial.h **** 		sysclk_enable_peripheral_clock(ID_USART5);
 299:/home/bekeband/workspace/OLIMEX_Start/src/sam_uart/uart_serial.h **** #endif
 300:/home/bekeband/workspace/OLIMEX_Start/src/sam_uart/uart_serial.h **** 		/* Configure USART */
 301:/home/bekeband/workspace/OLIMEX_Start/src/sam_uart/uart_serial.h **** 		usart_init_rs232(p_usart, &usart_settings,
 302:/home/bekeband/workspace/OLIMEX_Start/src/sam_uart/uart_serial.h **** 				sysclk_get_peripheral_hz());
 303:/home/bekeband/workspace/OLIMEX_Start/src/sam_uart/uart_serial.h **** #endif
 304:/home/bekeband/workspace/OLIMEX_Start/src/sam_uart/uart_serial.h **** #if (SAM4L)
 305:/home/bekeband/workspace/OLIMEX_Start/src/sam_uart/uart_serial.h **** 		sysclk_enable_peripheral_clock(p_usart);
 306:/home/bekeband/workspace/OLIMEX_Start/src/sam_uart/uart_serial.h **** 		/* Configure USART */
 307:/home/bekeband/workspace/OLIMEX_Start/src/sam_uart/uart_serial.h **** 		usart_init_rs232(p_usart, &usart_settings,
 308:/home/bekeband/workspace/OLIMEX_Start/src/sam_uart/uart_serial.h **** 				sysclk_get_peripheral_bus_hz(p_usart));
 309:/home/bekeband/workspace/OLIMEX_Start/src/sam_uart/uart_serial.h **** #endif
 310:/home/bekeband/workspace/OLIMEX_Start/src/sam_uart/uart_serial.h **** 		/* Enable the receiver and transmitter. */
 311:/home/bekeband/workspace/OLIMEX_Start/src/sam_uart/uart_serial.h **** 		usart_enable_tx(p_usart);
 312:/home/bekeband/workspace/OLIMEX_Start/src/sam_uart/uart_serial.h **** 		usart_enable_rx(p_usart);
 313:/home/bekeband/workspace/OLIMEX_Start/src/sam_uart/uart_serial.h **** 	}
 314:/home/bekeband/workspace/OLIMEX_Start/src/sam_uart/uart_serial.h **** # endif
 315:/home/bekeband/workspace/OLIMEX_Start/src/sam_uart/uart_serial.h **** # ifdef USART6
 316:/home/bekeband/workspace/OLIMEX_Start/src/sam_uart/uart_serial.h **** 	if (USART6 == p_usart) {
 317:/home/bekeband/workspace/OLIMEX_Start/src/sam_uart/uart_serial.h **** #if (!SAM4L)
 318:/home/bekeband/workspace/OLIMEX_Start/src/sam_uart/uart_serial.h **** #if (SAMG55)
 319:/home/bekeband/workspace/OLIMEX_Start/src/sam_uart/uart_serial.h **** 		flexcom_enable(FLEXCOM6);
 320:/home/bekeband/workspace/OLIMEX_Start/src/sam_uart/uart_serial.h **** 		flexcom_set_opmode(FLEXCOM6, FLEXCOM_USART);
 321:/home/bekeband/workspace/OLIMEX_Start/src/sam_uart/uart_serial.h **** #else
 322:/home/bekeband/workspace/OLIMEX_Start/src/sam_uart/uart_serial.h **** 		sysclk_enable_peripheral_clock(ID_USART6);
 323:/home/bekeband/workspace/OLIMEX_Start/src/sam_uart/uart_serial.h **** #endif
 324:/home/bekeband/workspace/OLIMEX_Start/src/sam_uart/uart_serial.h **** 		/* Configure USART */
 325:/home/bekeband/workspace/OLIMEX_Start/src/sam_uart/uart_serial.h **** 		usart_init_rs232(p_usart, &usart_settings,
 326:/home/bekeband/workspace/OLIMEX_Start/src/sam_uart/uart_serial.h **** 				sysclk_get_peripheral_hz());
 327:/home/bekeband/workspace/OLIMEX_Start/src/sam_uart/uart_serial.h **** #endif
 328:/home/bekeband/workspace/OLIMEX_Start/src/sam_uart/uart_serial.h **** #if (SAM4L)
 329:/home/bekeband/workspace/OLIMEX_Start/src/sam_uart/uart_serial.h **** 		sysclk_enable_peripheral_clock(p_usart);
 330:/home/bekeband/workspace/OLIMEX_Start/src/sam_uart/uart_serial.h **** 		/* Configure USART */
 331:/home/bekeband/workspace/OLIMEX_Start/src/sam_uart/uart_serial.h **** 		usart_init_rs232(p_usart, &usart_settings,
 332:/home/bekeband/workspace/OLIMEX_Start/src/sam_uart/uart_serial.h **** 				sysclk_get_peripheral_bus_hz(p_usart));
 333:/home/bekeband/workspace/OLIMEX_Start/src/sam_uart/uart_serial.h **** #endif
 334:/home/bekeband/workspace/OLIMEX_Start/src/sam_uart/uart_serial.h **** 		/* Enable the receiver and transmitter. */
 335:/home/bekeband/workspace/OLIMEX_Start/src/sam_uart/uart_serial.h **** 		usart_enable_tx(p_usart);
 336:/home/bekeband/workspace/OLIMEX_Start/src/sam_uart/uart_serial.h **** 		usart_enable_rx(p_usart);
 337:/home/bekeband/workspace/OLIMEX_Start/src/sam_uart/uart_serial.h **** 	}
 338:/home/bekeband/workspace/OLIMEX_Start/src/sam_uart/uart_serial.h **** # endif
 339:/home/bekeband/workspace/OLIMEX_Start/src/sam_uart/uart_serial.h **** # ifdef USART7
 340:/home/bekeband/workspace/OLIMEX_Start/src/sam_uart/uart_serial.h **** 	if (USART7 == p_usart) {
 341:/home/bekeband/workspace/OLIMEX_Start/src/sam_uart/uart_serial.h **** #if (!SAM4L)
 342:/home/bekeband/workspace/OLIMEX_Start/src/sam_uart/uart_serial.h **** #if (SAMG55)
 343:/home/bekeband/workspace/OLIMEX_Start/src/sam_uart/uart_serial.h **** 		flexcom_enable(FLEXCOM7);
 344:/home/bekeband/workspace/OLIMEX_Start/src/sam_uart/uart_serial.h **** 		flexcom_set_opmode(FLEXCOM7, FLEXCOM_USART);
 345:/home/bekeband/workspace/OLIMEX_Start/src/sam_uart/uart_serial.h **** #else
 346:/home/bekeband/workspace/OLIMEX_Start/src/sam_uart/uart_serial.h **** 		sysclk_enable_peripheral_clock(ID_USART7);
 347:/home/bekeband/workspace/OLIMEX_Start/src/sam_uart/uart_serial.h **** #endif
 348:/home/bekeband/workspace/OLIMEX_Start/src/sam_uart/uart_serial.h **** 		/* Configure USART */
 349:/home/bekeband/workspace/OLIMEX_Start/src/sam_uart/uart_serial.h **** 		usart_init_rs232(p_usart, &usart_settings,
 350:/home/bekeband/workspace/OLIMEX_Start/src/sam_uart/uart_serial.h **** 				sysclk_get_peripheral_hz());
 351:/home/bekeband/workspace/OLIMEX_Start/src/sam_uart/uart_serial.h **** #endif
 352:/home/bekeband/workspace/OLIMEX_Start/src/sam_uart/uart_serial.h **** #if (SAM4L)
 353:/home/bekeband/workspace/OLIMEX_Start/src/sam_uart/uart_serial.h **** 		sysclk_enable_peripheral_clock(p_usart);
 354:/home/bekeband/workspace/OLIMEX_Start/src/sam_uart/uart_serial.h **** 		/* Configure USART */
 355:/home/bekeband/workspace/OLIMEX_Start/src/sam_uart/uart_serial.h **** 		usart_init_rs232(p_usart, &usart_settings,
 356:/home/bekeband/workspace/OLIMEX_Start/src/sam_uart/uart_serial.h **** 				sysclk_get_peripheral_bus_hz(p_usart));
 357:/home/bekeband/workspace/OLIMEX_Start/src/sam_uart/uart_serial.h **** #endif
 358:/home/bekeband/workspace/OLIMEX_Start/src/sam_uart/uart_serial.h **** 		/* Enable the receiver and transmitter. */
 359:/home/bekeband/workspace/OLIMEX_Start/src/sam_uart/uart_serial.h **** 		usart_enable_tx(p_usart);
 360:/home/bekeband/workspace/OLIMEX_Start/src/sam_uart/uart_serial.h **** 		usart_enable_rx(p_usart);
 361:/home/bekeband/workspace/OLIMEX_Start/src/sam_uart/uart_serial.h **** 	}
 362:/home/bekeband/workspace/OLIMEX_Start/src/sam_uart/uart_serial.h **** # endif
 363:/home/bekeband/workspace/OLIMEX_Start/src/sam_uart/uart_serial.h **** 
 364:/home/bekeband/workspace/OLIMEX_Start/src/sam_uart/uart_serial.h **** #endif /* ifdef USART */
 365:/home/bekeband/workspace/OLIMEX_Start/src/sam_uart/uart_serial.h **** 
 366:/home/bekeband/workspace/OLIMEX_Start/src/sam_uart/uart_serial.h **** }
 367:/home/bekeband/workspace/OLIMEX_Start/src/sam_uart/uart_serial.h **** 
 368:/home/bekeband/workspace/OLIMEX_Start/src/sam_uart/uart_serial.h **** /**
 369:/home/bekeband/workspace/OLIMEX_Start/src/sam_uart/uart_serial.h ****  * \brief Sends a character with the USART.
 370:/home/bekeband/workspace/OLIMEX_Start/src/sam_uart/uart_serial.h ****  *
 371:/home/bekeband/workspace/OLIMEX_Start/src/sam_uart/uart_serial.h ****  * \param p_usart   Base address of the USART instance.
 372:/home/bekeband/workspace/OLIMEX_Start/src/sam_uart/uart_serial.h ****  * \param c       Character to write.
 373:/home/bekeband/workspace/OLIMEX_Start/src/sam_uart/uart_serial.h ****  *
 374:/home/bekeband/workspace/OLIMEX_Start/src/sam_uart/uart_serial.h ****  * \return Status.
 375:/home/bekeband/workspace/OLIMEX_Start/src/sam_uart/uart_serial.h ****  *   \retval 1  The character was written.
 376:/home/bekeband/workspace/OLIMEX_Start/src/sam_uart/uart_serial.h ****  *   \retval 0  The function timed out before the USART transmitter became
 377:/home/bekeband/workspace/OLIMEX_Start/src/sam_uart/uart_serial.h ****  * ready to send.
 378:/home/bekeband/workspace/OLIMEX_Start/src/sam_uart/uart_serial.h ****  */
 379:/home/bekeband/workspace/OLIMEX_Start/src/sam_uart/uart_serial.h **** static inline int usart_serial_putchar(usart_if p_usart, const uint8_t c)
 380:/home/bekeband/workspace/OLIMEX_Start/src/sam_uart/uart_serial.h **** {
 381:/home/bekeband/workspace/OLIMEX_Start/src/sam_uart/uart_serial.h **** #ifdef UART
 382:/home/bekeband/workspace/OLIMEX_Start/src/sam_uart/uart_serial.h **** 	if (UART == (Uart*)p_usart) {
 383:/home/bekeband/workspace/OLIMEX_Start/src/sam_uart/uart_serial.h **** 		while (uart_write((Uart*)p_usart, c)!=0);
 384:/home/bekeband/workspace/OLIMEX_Start/src/sam_uart/uart_serial.h **** 		return 1;
 385:/home/bekeband/workspace/OLIMEX_Start/src/sam_uart/uart_serial.h **** 	}
 386:/home/bekeband/workspace/OLIMEX_Start/src/sam_uart/uart_serial.h **** #else
 387:/home/bekeband/workspace/OLIMEX_Start/src/sam_uart/uart_serial.h **** # ifdef UART0
 388:/home/bekeband/workspace/OLIMEX_Start/src/sam_uart/uart_serial.h **** 	if (UART0 == (Uart*)p_usart) {
 389:/home/bekeband/workspace/OLIMEX_Start/src/sam_uart/uart_serial.h **** 		while (uart_write((Uart*)p_usart, c)!=0);
 390:/home/bekeband/workspace/OLIMEX_Start/src/sam_uart/uart_serial.h **** 		return 1;
 391:/home/bekeband/workspace/OLIMEX_Start/src/sam_uart/uart_serial.h **** 	}
 392:/home/bekeband/workspace/OLIMEX_Start/src/sam_uart/uart_serial.h **** # endif
 393:/home/bekeband/workspace/OLIMEX_Start/src/sam_uart/uart_serial.h **** # ifdef UART1
 394:/home/bekeband/workspace/OLIMEX_Start/src/sam_uart/uart_serial.h **** 	if (UART1 == (Uart*)p_usart) {
 395:/home/bekeband/workspace/OLIMEX_Start/src/sam_uart/uart_serial.h **** 		while (uart_write((Uart*)p_usart, c)!=0);
 396:/home/bekeband/workspace/OLIMEX_Start/src/sam_uart/uart_serial.h **** 		return 1;
 397:/home/bekeband/workspace/OLIMEX_Start/src/sam_uart/uart_serial.h **** 	}
 398:/home/bekeband/workspace/OLIMEX_Start/src/sam_uart/uart_serial.h **** # endif
 399:/home/bekeband/workspace/OLIMEX_Start/src/sam_uart/uart_serial.h **** # ifdef UART2
 400:/home/bekeband/workspace/OLIMEX_Start/src/sam_uart/uart_serial.h **** 	if (UART2 == (Uart*)p_usart) {
 401:/home/bekeband/workspace/OLIMEX_Start/src/sam_uart/uart_serial.h **** 		while (uart_write((Uart*)p_usart, c)!=0);
 402:/home/bekeband/workspace/OLIMEX_Start/src/sam_uart/uart_serial.h **** 		return 1;
 403:/home/bekeband/workspace/OLIMEX_Start/src/sam_uart/uart_serial.h **** 	}
 404:/home/bekeband/workspace/OLIMEX_Start/src/sam_uart/uart_serial.h **** # endif
 405:/home/bekeband/workspace/OLIMEX_Start/src/sam_uart/uart_serial.h **** # ifdef UART3
 406:/home/bekeband/workspace/OLIMEX_Start/src/sam_uart/uart_serial.h **** 	if (UART3 == (Uart*)p_usart) {
 407:/home/bekeband/workspace/OLIMEX_Start/src/sam_uart/uart_serial.h **** 		while (uart_write((Uart*)p_usart, c)!=0);
 408:/home/bekeband/workspace/OLIMEX_Start/src/sam_uart/uart_serial.h **** 		return 1;
 409:/home/bekeband/workspace/OLIMEX_Start/src/sam_uart/uart_serial.h **** 	}
 410:/home/bekeband/workspace/OLIMEX_Start/src/sam_uart/uart_serial.h **** # endif
 411:/home/bekeband/workspace/OLIMEX_Start/src/sam_uart/uart_serial.h **** #endif /* ifdef UART */
 412:/home/bekeband/workspace/OLIMEX_Start/src/sam_uart/uart_serial.h **** 
 413:/home/bekeband/workspace/OLIMEX_Start/src/sam_uart/uart_serial.h **** 
 414:/home/bekeband/workspace/OLIMEX_Start/src/sam_uart/uart_serial.h **** #ifdef USART
 415:/home/bekeband/workspace/OLIMEX_Start/src/sam_uart/uart_serial.h **** 	if (USART == p_usart) {
 416:/home/bekeband/workspace/OLIMEX_Start/src/sam_uart/uart_serial.h **** 		while (usart_write(p_usart, c)!=0);
 417:/home/bekeband/workspace/OLIMEX_Start/src/sam_uart/uart_serial.h **** 		return 1;
 418:/home/bekeband/workspace/OLIMEX_Start/src/sam_uart/uart_serial.h **** 	}
 419:/home/bekeband/workspace/OLIMEX_Start/src/sam_uart/uart_serial.h **** #else
 420:/home/bekeband/workspace/OLIMEX_Start/src/sam_uart/uart_serial.h **** # ifdef USART0
 421:/home/bekeband/workspace/OLIMEX_Start/src/sam_uart/uart_serial.h **** 	if (USART0 == p_usart) {
 422:/home/bekeband/workspace/OLIMEX_Start/src/sam_uart/uart_serial.h **** 		while (usart_write(p_usart, c)!=0);
 423:/home/bekeband/workspace/OLIMEX_Start/src/sam_uart/uart_serial.h **** 		return 1;
 424:/home/bekeband/workspace/OLIMEX_Start/src/sam_uart/uart_serial.h **** 	}
 425:/home/bekeband/workspace/OLIMEX_Start/src/sam_uart/uart_serial.h **** # endif
 426:/home/bekeband/workspace/OLIMEX_Start/src/sam_uart/uart_serial.h **** # ifdef USART1
 427:/home/bekeband/workspace/OLIMEX_Start/src/sam_uart/uart_serial.h **** 	if (USART1 == p_usart) {
 428:/home/bekeband/workspace/OLIMEX_Start/src/sam_uart/uart_serial.h **** 		while (usart_write(p_usart, c)!=0);
 429:/home/bekeband/workspace/OLIMEX_Start/src/sam_uart/uart_serial.h **** 		return 1;
 430:/home/bekeband/workspace/OLIMEX_Start/src/sam_uart/uart_serial.h **** 	}
 431:/home/bekeband/workspace/OLIMEX_Start/src/sam_uart/uart_serial.h **** # endif
 432:/home/bekeband/workspace/OLIMEX_Start/src/sam_uart/uart_serial.h **** # ifdef USART2
 433:/home/bekeband/workspace/OLIMEX_Start/src/sam_uart/uart_serial.h **** 	if (USART2 == p_usart) {
 434:/home/bekeband/workspace/OLIMEX_Start/src/sam_uart/uart_serial.h **** 		while (usart_write(p_usart, c)!=0);
 435:/home/bekeband/workspace/OLIMEX_Start/src/sam_uart/uart_serial.h **** 		return 1;
 436:/home/bekeband/workspace/OLIMEX_Start/src/sam_uart/uart_serial.h **** 	}
 437:/home/bekeband/workspace/OLIMEX_Start/src/sam_uart/uart_serial.h **** # endif
 438:/home/bekeband/workspace/OLIMEX_Start/src/sam_uart/uart_serial.h **** # ifdef USART3
 439:/home/bekeband/workspace/OLIMEX_Start/src/sam_uart/uart_serial.h **** 	if (USART3 == p_usart) {
 440:/home/bekeband/workspace/OLIMEX_Start/src/sam_uart/uart_serial.h **** 		while (usart_write(p_usart, c)!=0);
 441:/home/bekeband/workspace/OLIMEX_Start/src/sam_uart/uart_serial.h **** 		return 1;
 442:/home/bekeband/workspace/OLIMEX_Start/src/sam_uart/uart_serial.h **** 	}
 443:/home/bekeband/workspace/OLIMEX_Start/src/sam_uart/uart_serial.h **** # endif
 444:/home/bekeband/workspace/OLIMEX_Start/src/sam_uart/uart_serial.h **** # ifdef USART4
 445:/home/bekeband/workspace/OLIMEX_Start/src/sam_uart/uart_serial.h **** 	if (USART4 == p_usart) {
 446:/home/bekeband/workspace/OLIMEX_Start/src/sam_uart/uart_serial.h **** 		while (usart_write(p_usart, c)!=0);
 447:/home/bekeband/workspace/OLIMEX_Start/src/sam_uart/uart_serial.h **** 		return 1;
 448:/home/bekeband/workspace/OLIMEX_Start/src/sam_uart/uart_serial.h **** 	}
 449:/home/bekeband/workspace/OLIMEX_Start/src/sam_uart/uart_serial.h **** # endif
 450:/home/bekeband/workspace/OLIMEX_Start/src/sam_uart/uart_serial.h **** # ifdef USART5
 451:/home/bekeband/workspace/OLIMEX_Start/src/sam_uart/uart_serial.h **** 	if (USART5 == p_usart) {
 452:/home/bekeband/workspace/OLIMEX_Start/src/sam_uart/uart_serial.h **** 		while (usart_write(p_usart, c)!=0);
 453:/home/bekeband/workspace/OLIMEX_Start/src/sam_uart/uart_serial.h **** 		return 1;
 454:/home/bekeband/workspace/OLIMEX_Start/src/sam_uart/uart_serial.h **** 	}
 455:/home/bekeband/workspace/OLIMEX_Start/src/sam_uart/uart_serial.h **** # endif
 456:/home/bekeband/workspace/OLIMEX_Start/src/sam_uart/uart_serial.h **** # ifdef USART6
 457:/home/bekeband/workspace/OLIMEX_Start/src/sam_uart/uart_serial.h **** 	if (USART6 == p_usart) {
 458:/home/bekeband/workspace/OLIMEX_Start/src/sam_uart/uart_serial.h **** 		while (usart_write(p_usart, c)!=0);
 459:/home/bekeband/workspace/OLIMEX_Start/src/sam_uart/uart_serial.h **** 		return 1;
 460:/home/bekeband/workspace/OLIMEX_Start/src/sam_uart/uart_serial.h **** 	}
 461:/home/bekeband/workspace/OLIMEX_Start/src/sam_uart/uart_serial.h **** # endif
 462:/home/bekeband/workspace/OLIMEX_Start/src/sam_uart/uart_serial.h **** # ifdef USART7
 463:/home/bekeband/workspace/OLIMEX_Start/src/sam_uart/uart_serial.h **** 	if (USART7 == p_usart) {
 464:/home/bekeband/workspace/OLIMEX_Start/src/sam_uart/uart_serial.h **** 		while (usart_write(p_usart, c)!=0);
 465:/home/bekeband/workspace/OLIMEX_Start/src/sam_uart/uart_serial.h **** 		return 1;
 466:/home/bekeband/workspace/OLIMEX_Start/src/sam_uart/uart_serial.h **** 	}
 467:/home/bekeband/workspace/OLIMEX_Start/src/sam_uart/uart_serial.h **** # endif
 468:/home/bekeband/workspace/OLIMEX_Start/src/sam_uart/uart_serial.h **** #endif /* ifdef USART */
 469:/home/bekeband/workspace/OLIMEX_Start/src/sam_uart/uart_serial.h **** 
 470:/home/bekeband/workspace/OLIMEX_Start/src/sam_uart/uart_serial.h **** 	return 0;
 471:/home/bekeband/workspace/OLIMEX_Start/src/sam_uart/uart_serial.h **** }
 472:/home/bekeband/workspace/OLIMEX_Start/src/sam_uart/uart_serial.h **** /**
 473:/home/bekeband/workspace/OLIMEX_Start/src/sam_uart/uart_serial.h ****  * \brief Waits until a character is received, and returns it.
 474:/home/bekeband/workspace/OLIMEX_Start/src/sam_uart/uart_serial.h ****  *
 475:/home/bekeband/workspace/OLIMEX_Start/src/sam_uart/uart_serial.h ****  * \param p_usart   Base address of the USART instance.
 476:/home/bekeband/workspace/OLIMEX_Start/src/sam_uart/uart_serial.h ****  * \param data   Data to read
 477:/home/bekeband/workspace/OLIMEX_Start/src/sam_uart/uart_serial.h ****  *
 478:/home/bekeband/workspace/OLIMEX_Start/src/sam_uart/uart_serial.h ****  */
 479:/home/bekeband/workspace/OLIMEX_Start/src/sam_uart/uart_serial.h **** static inline void usart_serial_getchar(usart_if p_usart, uint8_t *data)
 480:/home/bekeband/workspace/OLIMEX_Start/src/sam_uart/uart_serial.h **** {
  27              		.loc 1 480 0
  28              		.cfi_startproc
  29              		@ args = 0, pretend = 0, frame = 8
  30              		@ frame_needed = 0, uses_anonymous_args = 0
  31              	.LVL0:
  32 0000 30B5     		push	{r4, r5, lr}
  33              		.cfi_def_cfa_offset 12
  34              		.cfi_offset 4, -12
  35              		.cfi_offset 5, -8
  36              		.cfi_offset 14, -4
  37 0002 83B0     		sub	sp, sp, #12
  38              		.cfi_def_cfa_offset 24
  39 0004 0446     		mov	r4, r0
  40 0006 0D46     		mov	r5, r1
 481:/home/bekeband/workspace/OLIMEX_Start/src/sam_uart/uart_serial.h **** 	uint32_t val = 0;
  41              		.loc 1 481 0
  42 0008 0023     		movs	r3, #0
  43 000a 0193     		str	r3, [sp, #4]
 482:/home/bekeband/workspace/OLIMEX_Start/src/sam_uart/uart_serial.h **** 
 483:/home/bekeband/workspace/OLIMEX_Start/src/sam_uart/uart_serial.h **** 	/* Avoid Cppcheck Warning */
 484:/home/bekeband/workspace/OLIMEX_Start/src/sam_uart/uart_serial.h **** 	UNUSED(val);
 485:/home/bekeband/workspace/OLIMEX_Start/src/sam_uart/uart_serial.h **** 
 486:/home/bekeband/workspace/OLIMEX_Start/src/sam_uart/uart_serial.h **** #ifdef UART
 487:/home/bekeband/workspace/OLIMEX_Start/src/sam_uart/uart_serial.h **** 	if (UART == (Uart*)p_usart) {
 488:/home/bekeband/workspace/OLIMEX_Start/src/sam_uart/uart_serial.h **** 		while (uart_read((Uart*)p_usart, data));
 489:/home/bekeband/workspace/OLIMEX_Start/src/sam_uart/uart_serial.h **** 	}
 490:/home/bekeband/workspace/OLIMEX_Start/src/sam_uart/uart_serial.h **** #else
 491:/home/bekeband/workspace/OLIMEX_Start/src/sam_uart/uart_serial.h **** # ifdef UART0
 492:/home/bekeband/workspace/OLIMEX_Start/src/sam_uart/uart_serial.h **** 	if (UART0 == (Uart*)p_usart) {
  44              		.loc 1 492 0
  45 000c 154B     		ldr	r3, .L11
  46 000e 9842     		cmp	r0, r3
  47 0010 05D1     		bne	.L2
  48              	.LVL1:
  49              	.L3:
 493:/home/bekeband/workspace/OLIMEX_Start/src/sam_uart/uart_serial.h **** 		while (uart_read((Uart*)p_usart, data));
  50              		.loc 1 493 0 discriminator 1
  51 0012 2946     		mov	r1, r5
  52 0014 2046     		mov	r0, r4
  53 0016 FFF7FEFF 		bl	uart_read
  54              	.LVL2:
  55 001a 0028     		cmp	r0, #0
  56 001c F9D1     		bne	.L3
  57              	.L2:
 494:/home/bekeband/workspace/OLIMEX_Start/src/sam_uart/uart_serial.h **** 	}
 495:/home/bekeband/workspace/OLIMEX_Start/src/sam_uart/uart_serial.h **** # endif
 496:/home/bekeband/workspace/OLIMEX_Start/src/sam_uart/uart_serial.h **** # ifdef UART1
 497:/home/bekeband/workspace/OLIMEX_Start/src/sam_uart/uart_serial.h **** 	if (UART1 == (Uart*)p_usart) {
  58              		.loc 1 497 0
  59 001e 124B     		ldr	r3, .L11+4
  60 0020 9C42     		cmp	r4, r3
  61 0022 05D1     		bne	.L4
  62              	.L5:
 498:/home/bekeband/workspace/OLIMEX_Start/src/sam_uart/uart_serial.h **** 		while (uart_read((Uart*)p_usart, data));
  63              		.loc 1 498 0 discriminator 1
  64 0024 2946     		mov	r1, r5
  65 0026 2046     		mov	r0, r4
  66 0028 FFF7FEFF 		bl	uart_read
  67              	.LVL3:
  68 002c 0028     		cmp	r0, #0
  69 002e F9D1     		bne	.L5
  70              	.L4:
 499:/home/bekeband/workspace/OLIMEX_Start/src/sam_uart/uart_serial.h **** 	}
 500:/home/bekeband/workspace/OLIMEX_Start/src/sam_uart/uart_serial.h **** # endif
 501:/home/bekeband/workspace/OLIMEX_Start/src/sam_uart/uart_serial.h **** # ifdef UART2
 502:/home/bekeband/workspace/OLIMEX_Start/src/sam_uart/uart_serial.h **** 	if (UART2 == (Uart*)p_usart) {
 503:/home/bekeband/workspace/OLIMEX_Start/src/sam_uart/uart_serial.h **** 		while (uart_read((Uart*)p_usart, data));
 504:/home/bekeband/workspace/OLIMEX_Start/src/sam_uart/uart_serial.h **** 	}
 505:/home/bekeband/workspace/OLIMEX_Start/src/sam_uart/uart_serial.h **** # endif
 506:/home/bekeband/workspace/OLIMEX_Start/src/sam_uart/uart_serial.h **** # ifdef UART3
 507:/home/bekeband/workspace/OLIMEX_Start/src/sam_uart/uart_serial.h **** 	if (UART3 == (Uart*)p_usart) {
 508:/home/bekeband/workspace/OLIMEX_Start/src/sam_uart/uart_serial.h **** 		while (uart_read((Uart*)p_usart, data));
 509:/home/bekeband/workspace/OLIMEX_Start/src/sam_uart/uart_serial.h **** 	}
 510:/home/bekeband/workspace/OLIMEX_Start/src/sam_uart/uart_serial.h **** # endif
 511:/home/bekeband/workspace/OLIMEX_Start/src/sam_uart/uart_serial.h **** #endif /* ifdef UART */
 512:/home/bekeband/workspace/OLIMEX_Start/src/sam_uart/uart_serial.h **** 
 513:/home/bekeband/workspace/OLIMEX_Start/src/sam_uart/uart_serial.h **** 
 514:/home/bekeband/workspace/OLIMEX_Start/src/sam_uart/uart_serial.h **** #ifdef USART
 515:/home/bekeband/workspace/OLIMEX_Start/src/sam_uart/uart_serial.h **** 	if (USART == p_usart) {
 516:/home/bekeband/workspace/OLIMEX_Start/src/sam_uart/uart_serial.h **** 		while (usart_read(p_usart, &val));
 517:/home/bekeband/workspace/OLIMEX_Start/src/sam_uart/uart_serial.h **** 		*data = (uint8_t)(val & 0xFF);
 518:/home/bekeband/workspace/OLIMEX_Start/src/sam_uart/uart_serial.h **** 	}
 519:/home/bekeband/workspace/OLIMEX_Start/src/sam_uart/uart_serial.h **** #else
 520:/home/bekeband/workspace/OLIMEX_Start/src/sam_uart/uart_serial.h **** # ifdef USART0
 521:/home/bekeband/workspace/OLIMEX_Start/src/sam_uart/uart_serial.h **** 	if (USART0 == p_usart) {
  71              		.loc 1 521 0
  72 0030 0E4B     		ldr	r3, .L11+8
  73 0032 9C42     		cmp	r4, r3
  74 0034 08D1     		bne	.L6
  75              	.L7:
 522:/home/bekeband/workspace/OLIMEX_Start/src/sam_uart/uart_serial.h **** 		while (usart_read(p_usart, &val));
  76              		.loc 1 522 0 discriminator 1
  77 0036 01A9     		add	r1, sp, #4
  78 0038 2046     		mov	r0, r4
  79 003a FFF7FEFF 		bl	usart_read
  80              	.LVL4:
  81 003e 0028     		cmp	r0, #0
  82 0040 F9D1     		bne	.L7
 523:/home/bekeband/workspace/OLIMEX_Start/src/sam_uart/uart_serial.h **** 		*data = (uint8_t)(val & 0xFF);
  83              		.loc 1 523 0
  84 0042 9DF80430 		ldrb	r3, [sp, #4]	@ zero_extendqisi2
  85 0046 2B70     		strb	r3, [r5]
  86              	.L6:
 524:/home/bekeband/workspace/OLIMEX_Start/src/sam_uart/uart_serial.h **** 	}
 525:/home/bekeband/workspace/OLIMEX_Start/src/sam_uart/uart_serial.h **** # endif
 526:/home/bekeband/workspace/OLIMEX_Start/src/sam_uart/uart_serial.h **** # ifdef USART1
 527:/home/bekeband/workspace/OLIMEX_Start/src/sam_uart/uart_serial.h **** 	if (USART1 == p_usart) {
  87              		.loc 1 527 0
  88 0048 094B     		ldr	r3, .L11+12
  89 004a 9C42     		cmp	r4, r3
  90 004c 08D1     		bne	.L1
  91              	.L9:
 528:/home/bekeband/workspace/OLIMEX_Start/src/sam_uart/uart_serial.h **** 		while (usart_read(p_usart, &val));
  92              		.loc 1 528 0 discriminator 1
  93 004e 01A9     		add	r1, sp, #4
  94 0050 2046     		mov	r0, r4
  95 0052 FFF7FEFF 		bl	usart_read
  96              	.LVL5:
  97 0056 0028     		cmp	r0, #0
  98 0058 F9D1     		bne	.L9
 529:/home/bekeband/workspace/OLIMEX_Start/src/sam_uart/uart_serial.h **** 		*data = (uint8_t)(val & 0xFF);
  99              		.loc 1 529 0
 100 005a 9DF80430 		ldrb	r3, [sp, #4]	@ zero_extendqisi2
 101 005e 2B70     		strb	r3, [r5]
 102              	.L1:
 530:/home/bekeband/workspace/OLIMEX_Start/src/sam_uart/uart_serial.h **** 	}
 531:/home/bekeband/workspace/OLIMEX_Start/src/sam_uart/uart_serial.h **** # endif
 532:/home/bekeband/workspace/OLIMEX_Start/src/sam_uart/uart_serial.h **** # ifdef USART2
 533:/home/bekeband/workspace/OLIMEX_Start/src/sam_uart/uart_serial.h **** 	if (USART2 == p_usart) {
 534:/home/bekeband/workspace/OLIMEX_Start/src/sam_uart/uart_serial.h **** 		while (usart_read(p_usart, &val));
 535:/home/bekeband/workspace/OLIMEX_Start/src/sam_uart/uart_serial.h **** 		*data = (uint8_t)(val & 0xFF);
 536:/home/bekeband/workspace/OLIMEX_Start/src/sam_uart/uart_serial.h **** 	}
 537:/home/bekeband/workspace/OLIMEX_Start/src/sam_uart/uart_serial.h **** # endif
 538:/home/bekeband/workspace/OLIMEX_Start/src/sam_uart/uart_serial.h **** # ifdef USART3
 539:/home/bekeband/workspace/OLIMEX_Start/src/sam_uart/uart_serial.h **** 	if (USART3 == p_usart) {
 540:/home/bekeband/workspace/OLIMEX_Start/src/sam_uart/uart_serial.h **** 		while (usart_read(p_usart, &val));
 541:/home/bekeband/workspace/OLIMEX_Start/src/sam_uart/uart_serial.h **** 		*data = (uint8_t)(val & 0xFF);
 542:/home/bekeband/workspace/OLIMEX_Start/src/sam_uart/uart_serial.h **** 	}
 543:/home/bekeband/workspace/OLIMEX_Start/src/sam_uart/uart_serial.h **** # endif
 544:/home/bekeband/workspace/OLIMEX_Start/src/sam_uart/uart_serial.h **** # ifdef USART4
 545:/home/bekeband/workspace/OLIMEX_Start/src/sam_uart/uart_serial.h **** 	if (USART4 == p_usart) {
 546:/home/bekeband/workspace/OLIMEX_Start/src/sam_uart/uart_serial.h **** 		while (usart_read(p_usart, &val));
 547:/home/bekeband/workspace/OLIMEX_Start/src/sam_uart/uart_serial.h **** 		*data = (uint8_t)(val & 0xFF);
 548:/home/bekeband/workspace/OLIMEX_Start/src/sam_uart/uart_serial.h **** 	}
 549:/home/bekeband/workspace/OLIMEX_Start/src/sam_uart/uart_serial.h **** # endif
 550:/home/bekeband/workspace/OLIMEX_Start/src/sam_uart/uart_serial.h **** # ifdef USART5
 551:/home/bekeband/workspace/OLIMEX_Start/src/sam_uart/uart_serial.h **** 	if (USART5 == p_usart) {
 552:/home/bekeband/workspace/OLIMEX_Start/src/sam_uart/uart_serial.h **** 		while (usart_read(p_usart, &val));
 553:/home/bekeband/workspace/OLIMEX_Start/src/sam_uart/uart_serial.h **** 		*data = (uint8_t)(val & 0xFF);
 554:/home/bekeband/workspace/OLIMEX_Start/src/sam_uart/uart_serial.h **** 	}
 555:/home/bekeband/workspace/OLIMEX_Start/src/sam_uart/uart_serial.h **** # endif
 556:/home/bekeband/workspace/OLIMEX_Start/src/sam_uart/uart_serial.h **** # ifdef USART6
 557:/home/bekeband/workspace/OLIMEX_Start/src/sam_uart/uart_serial.h **** 	if (USART6 == p_usart) {
 558:/home/bekeband/workspace/OLIMEX_Start/src/sam_uart/uart_serial.h **** 		while (usart_read(p_usart, &val));
 559:/home/bekeband/workspace/OLIMEX_Start/src/sam_uart/uart_serial.h **** 		*data = (uint8_t)(val & 0xFF);
 560:/home/bekeband/workspace/OLIMEX_Start/src/sam_uart/uart_serial.h **** 	}
 561:/home/bekeband/workspace/OLIMEX_Start/src/sam_uart/uart_serial.h **** # endif
 562:/home/bekeband/workspace/OLIMEX_Start/src/sam_uart/uart_serial.h **** # ifdef USART7
 563:/home/bekeband/workspace/OLIMEX_Start/src/sam_uart/uart_serial.h **** 	if (USART7 == p_usart) {
 564:/home/bekeband/workspace/OLIMEX_Start/src/sam_uart/uart_serial.h **** 		while (usart_read(p_usart, &val));
 565:/home/bekeband/workspace/OLIMEX_Start/src/sam_uart/uart_serial.h **** 		*data = (uint8_t)(val & 0xFF);
 566:/home/bekeband/workspace/OLIMEX_Start/src/sam_uart/uart_serial.h **** 	}
 567:/home/bekeband/workspace/OLIMEX_Start/src/sam_uart/uart_serial.h **** # endif
 568:/home/bekeband/workspace/OLIMEX_Start/src/sam_uart/uart_serial.h **** #endif /* ifdef USART */
 569:/home/bekeband/workspace/OLIMEX_Start/src/sam_uart/uart_serial.h **** 
 570:/home/bekeband/workspace/OLIMEX_Start/src/sam_uart/uart_serial.h **** }
 103              		.loc 1 570 0
 104 0060 03B0     		add	sp, sp, #12
 105              		.cfi_def_cfa_offset 12
 106              		@ sp needed
 107 0062 30BD     		pop	{r4, r5, pc}
 108              	.LVL6:
 109              	.L12:
 110              		.align	2
 111              	.L11:
 112 0064 00060E40 		.word	1074660864
 113 0068 00080E40 		.word	1074661376
 114 006c 00400240 		.word	1073889280
 115 0070 00800240 		.word	1073905664
 116              		.cfi_endproc
 117              	.LFE137:
 119              		.section	.text.usart_serial_putchar,"ax",%progbits
 120              		.align	2
 121              		.thumb
 122              		.thumb_func
 124              	usart_serial_putchar:
 125              	.LFB136:
 380:/home/bekeband/workspace/OLIMEX_Start/src/sam_uart/uart_serial.h **** #ifdef UART
 126              		.loc 1 380 0
 127              		.cfi_startproc
 128              		@ args = 0, pretend = 0, frame = 0
 129              		@ frame_needed = 0, uses_anonymous_args = 0
 130              	.LVL7:
 131 0000 38B5     		push	{r3, r4, r5, lr}
 132              		.cfi_def_cfa_offset 16
 133              		.cfi_offset 3, -16
 134              		.cfi_offset 4, -12
 135              		.cfi_offset 5, -8
 136              		.cfi_offset 14, -4
 137 0002 0446     		mov	r4, r0
 138 0004 0D46     		mov	r5, r1
 388:/home/bekeband/workspace/OLIMEX_Start/src/sam_uart/uart_serial.h **** 		while (uart_write((Uart*)p_usart, c)!=0);
 139              		.loc 1 388 0
 140 0006 174B     		ldr	r3, .L24
 141 0008 9842     		cmp	r0, r3
 142 000a 07D1     		bne	.L14
 143              	.LVL8:
 144              	.L15:
 389:/home/bekeband/workspace/OLIMEX_Start/src/sam_uart/uart_serial.h **** 		return 1;
 145              		.loc 1 389 0 discriminator 1
 146 000c 2946     		mov	r1, r5
 147 000e 2046     		mov	r0, r4
 148 0010 FFF7FEFF 		bl	uart_write
 149              	.LVL9:
 150 0014 0028     		cmp	r0, #0
 151 0016 F9D1     		bne	.L15
 390:/home/bekeband/workspace/OLIMEX_Start/src/sam_uart/uart_serial.h **** 	}
 152              		.loc 1 390 0
 153 0018 0120     		movs	r0, #1
 154 001a 38BD     		pop	{r3, r4, r5, pc}
 155              	.LVL10:
 156              	.L14:
 394:/home/bekeband/workspace/OLIMEX_Start/src/sam_uart/uart_serial.h **** 		while (uart_write((Uart*)p_usart, c)!=0);
 157              		.loc 1 394 0
 158 001c 124B     		ldr	r3, .L24+4
 159 001e 9842     		cmp	r0, r3
 160 0020 07D1     		bne	.L17
 161              	.LVL11:
 162              	.L18:
 395:/home/bekeband/workspace/OLIMEX_Start/src/sam_uart/uart_serial.h **** 		return 1;
 163              		.loc 1 395 0 discriminator 1
 164 0022 2946     		mov	r1, r5
 165 0024 2046     		mov	r0, r4
 166 0026 FFF7FEFF 		bl	uart_write
 167              	.LVL12:
 168 002a 0028     		cmp	r0, #0
 169 002c F9D1     		bne	.L18
 396:/home/bekeband/workspace/OLIMEX_Start/src/sam_uart/uart_serial.h **** 	}
 170              		.loc 1 396 0
 171 002e 0120     		movs	r0, #1
 172 0030 38BD     		pop	{r3, r4, r5, pc}
 173              	.LVL13:
 174              	.L17:
 421:/home/bekeband/workspace/OLIMEX_Start/src/sam_uart/uart_serial.h **** 		while (usart_write(p_usart, c)!=0);
 175              		.loc 1 421 0
 176 0032 0E4B     		ldr	r3, .L24+8
 177 0034 9842     		cmp	r0, r3
 178 0036 07D1     		bne	.L19
 179              	.LVL14:
 180              	.L20:
 422:/home/bekeband/workspace/OLIMEX_Start/src/sam_uart/uart_serial.h **** 		return 1;
 181              		.loc 1 422 0 discriminator 1
 182 0038 2946     		mov	r1, r5
 183 003a 2046     		mov	r0, r4
 184 003c FFF7FEFF 		bl	usart_write
 185              	.LVL15:
 186 0040 0028     		cmp	r0, #0
 187 0042 F9D1     		bne	.L20
 423:/home/bekeband/workspace/OLIMEX_Start/src/sam_uart/uart_serial.h **** 	}
 188              		.loc 1 423 0
 189 0044 0120     		movs	r0, #1
 190 0046 38BD     		pop	{r3, r4, r5, pc}
 191              	.LVL16:
 192              	.L19:
 427:/home/bekeband/workspace/OLIMEX_Start/src/sam_uart/uart_serial.h **** 		while (usart_write(p_usart, c)!=0);
 193              		.loc 1 427 0
 194 0048 094B     		ldr	r3, .L24+12
 195 004a 9842     		cmp	r0, r3
 196 004c 07D1     		bne	.L22
 197              	.LVL17:
 198              	.L21:
 428:/home/bekeband/workspace/OLIMEX_Start/src/sam_uart/uart_serial.h **** 		return 1;
 199              		.loc 1 428 0 discriminator 1
 200 004e 2946     		mov	r1, r5
 201 0050 2046     		mov	r0, r4
 202 0052 FFF7FEFF 		bl	usart_write
 203              	.LVL18:
 204 0056 0028     		cmp	r0, #0
 205 0058 F9D1     		bne	.L21
 429:/home/bekeband/workspace/OLIMEX_Start/src/sam_uart/uart_serial.h **** 	}
 206              		.loc 1 429 0
 207 005a 0120     		movs	r0, #1
 208 005c 38BD     		pop	{r3, r4, r5, pc}
 209              	.LVL19:
 210              	.L22:
 470:/home/bekeband/workspace/OLIMEX_Start/src/sam_uart/uart_serial.h **** }
 211              		.loc 1 470 0
 212 005e 0020     		movs	r0, #0
 213              	.LVL20:
 471:/home/bekeband/workspace/OLIMEX_Start/src/sam_uart/uart_serial.h **** /**
 214              		.loc 1 471 0
 215 0060 38BD     		pop	{r3, r4, r5, pc}
 216              	.LVL21:
 217              	.L25:
 218 0062 00BF     		.align	2
 219              	.L24:
 220 0064 00060E40 		.word	1074660864
 221 0068 00080E40 		.word	1074661376
 222 006c 00400240 		.word	1073889280
 223 0070 00800240 		.word	1073905664
 224              		.cfi_endproc
 225              	.LFE136:
 227              		.section	.text.configure_tc,"ax",%progbits
 228              		.align	2
 229              		.thumb
 230              		.thumb_func
 232              	configure_tc:
 233              	.LFB178:
 234              		.file 2 "../src/main.c"
   1:../src/main.c **** /**
   2:../src/main.c ****  * \file
   3:../src/main.c ****  *
   4:../src/main.c ****  * \brief Getting Started Application.
   5:../src/main.c ****  *
   6:../src/main.c ****  * Copyright (c) 2011-2015 Atmel Corporation. All rights reserved.
   7:../src/main.c ****  *
   8:../src/main.c ****  * \asf_license_start
   9:../src/main.c ****  *
  10:../src/main.c ****  * \page License
  11:../src/main.c ****  *
  12:../src/main.c ****  * Redistribution and use in source and binary forms, with or without
  13:../src/main.c ****  * modification, are permitted provided that the following conditions are met:
  14:../src/main.c ****  *
  15:../src/main.c ****  * 1. Redistributions of source code must retain the above copyright notice,
  16:../src/main.c ****  *    this list of conditions and the following disclaimer.
  17:../src/main.c ****  *
  18:../src/main.c ****  * 2. Redistributions in binary form must reproduce the above copyright notice,
  19:../src/main.c ****  *    this list of conditions and the following disclaimer in the documentation
  20:../src/main.c ****  *    and/or other materials provided with the distribution.
  21:../src/main.c ****  *
  22:../src/main.c ****  * 3. The name of Atmel may not be used to endorse or promote products derived
  23:../src/main.c ****  *    from this software without specific prior written permission.
  24:../src/main.c ****  *
  25:../src/main.c ****  * 4. This software may only be redistributed and used in connection with an
  26:../src/main.c ****  *    Atmel microcontroller product.
  27:../src/main.c ****  *
  28:../src/main.c ****  * THIS SOFTWARE IS PROVIDED BY ATMEL "AS IS" AND ANY EXPRESS OR IMPLIED
  29:../src/main.c ****  * WARRANTIES, INCLUDING, BUT NOT LIMITED TO, THE IMPLIED WARRANTIES OF
  30:../src/main.c ****  * MERCHANTABILITY, FITNESS FOR A PARTICULAR PURPOSE AND NON-INFRINGEMENT ARE
  31:../src/main.c ****  * EXPRESSLY AND SPECIFICALLY DISCLAIMED. IN NO EVENT SHALL ATMEL BE LIABLE FOR
  32:../src/main.c ****  * ANY DIRECT, INDIRECT, INCIDENTAL, SPECIAL, EXEMPLARY, OR CONSEQUENTIAL
  33:../src/main.c ****  * DAMAGES (INCLUDING, BUT NOT LIMITED TO, PROCUREMENT OF SUBSTITUTE GOODS
  34:../src/main.c ****  * OR SERVICES; LOSS OF USE, DATA, OR PROFITS; OR BUSINESS INTERRUPTION)
  35:../src/main.c ****  * HOWEVER CAUSED AND ON ANY THEORY OF LIABILITY, WHETHER IN CONTRACT,
  36:../src/main.c ****  * STRICT LIABILITY, OR TORT (INCLUDING NEGLIGENCE OR OTHERWISE) ARISING IN
  37:../src/main.c ****  * ANY WAY OUT OF THE USE OF THIS SOFTWARE, EVEN IF ADVISED OF THE
  38:../src/main.c ****  * POSSIBILITY OF SUCH DAMAGE.
  39:../src/main.c ****  *
  40:../src/main.c ****  * \asf_license_stop
  41:../src/main.c ****  *
  42:../src/main.c ****  */
  43:../src/main.c **** 
  44:../src/main.c **** /**
  45:../src/main.c ****  * \mainpage Getting Started Application
  46:../src/main.c ****  *
  47:../src/main.c ****  * \section Purpose
  48:../src/main.c ****  *
  49:../src/main.c ****  * The Getting Started example will help new users get familiar with Atmel's
  50:../src/main.c ****  * SAM family of microcontrollers. This basic application shows the startup
  51:../src/main.c ****  * sequence of a chip and how to use its core peripherals.
  52:../src/main.c ****  *
  53:../src/main.c ****  * \section Requirements
  54:../src/main.c ****  *
  55:../src/main.c ****  * This package can be used with SAM evaluation kits.
  56:../src/main.c ****  *
  57:../src/main.c ****  * \section Description
  58:../src/main.c ****  *
  59:../src/main.c ****  * The demonstration program makes the LED(s) on the board blink at a fixed rate.
  60:../src/main.c ****  * This rate is generated by using Time tick timer. The blinking can be stopped
  61:../src/main.c ****  * using the push button.
  62:../src/main.c ****  *
  63:../src/main.c ****  * \section Usage
  64:../src/main.c ****  *
  65:../src/main.c ****  * -# Build the program and download it inside the evaluation board.
  66:../src/main.c ****  * -# On the computer, open and configure a terminal application
  67:../src/main.c ****  *    (e.g. HyperTerminal on Microsoft Windows) with these settings:
  68:../src/main.c ****  *   - 115200 bauds
  69:../src/main.c ****  *   - 8 bits of data
  70:../src/main.c ****  *   - No parity
  71:../src/main.c ****  *   - 1 stop bit
  72:../src/main.c ****  *   - No flow control
  73:../src/main.c ****  * -# Start the application.
  74:../src/main.c ****  * -# The LED(s) should start blinking on the board. In the terminal window, the
  75:../src/main.c ****  *    following text should appear (values depend on the board and chip used):
  76:../src/main.c ****  *    \code
  77:../src/main.c **** 	-- Getting Started Example xxx --
  78:../src/main.c **** 	-- xxxxxx-xx
  79:../src/main.c **** 	-- Compiled: xxx xx xxxx xx:xx:xx --
  80:../src/main.c **** \endcode
  81:../src/main.c ****  * -# Pressing and release button 1 should make one LED stop & restart
  82:../src/main.c ****  *    blinking.
  83:../src/main.c ****  * -# If the button 2 available, pressing button 2 should make the other LED
  84:../src/main.c ****  *    stop & restart blinking.
  85:../src/main.c ****  *
  86:../src/main.c ****  */
  87:../src/main.c **** /*
  88:../src/main.c ****  * Support and FAQ: visit <a href="http://www.atmel.com/design-support/">Atmel Support</a>
  89:../src/main.c ****  */
  90:../src/main.c **** 
  91:../src/main.c **** #include "asf.h"
  92:../src/main.c **** #include "stdio_serial.h"
  93:../src/main.c **** #define SPI_SIMULATE
  94:../src/main.c **** #include "conf_board.h"
  95:../src/main.c **** #include "conf_clock.h"
  96:../src/main.c **** #include "conf_spi.h"
  97:../src/main.c **** #include "mdelay.h"
  98:../src/main.c **** #include "ili93xx.h"
  99:../src/main.c **** 
 100:../src/main.c **** 
 101:../src/main.c **** /* SPI Communicate buffer size. */
 102:../src/main.c **** #define COMM_BUFFER_SIZE   64
 103:../src/main.c **** 
 104:../src/main.c **** /** IRQ priority for PIO (The lower the value, the greater the priority) */
 105:../src/main.c **** // [main_def_pio_irq_prior]
 106:../src/main.c **** #define IRQ_PRIOR_PIO    0
 107:../src/main.c **** // [main_def_pio_irq_prior]
 108:../src/main.c **** 
 109:../src/main.c **** /** LED0 blink time, LED1 blink half this time, in ms */
 110:../src/main.c **** #define BLINK_PERIOD     1000
 111:../src/main.c **** 
 112:../src/main.c **** #define STRING_EOL    "\r"
 113:../src/main.c **** #define STRING_HEADER "-- Getting Started Example --\r\n" \
 114:../src/main.c **** 		"-- "BOARD_NAME" --\r\n" \
 115:../src/main.c **** 		"-- Compiled: "__DATE__" "__TIME__" --"STRING_EOL
 116:../src/main.c **** 
 117:../src/main.c **** /** LED0 blinking control. */
 118:../src/main.c **** // [main_var_led0_control]
 119:../src/main.c **** volatile bool g_b_led0_active = true;
 120:../src/main.c **** // [main_var_led0_control]
 121:../src/main.c **** 
 122:../src/main.c **** #ifdef LED1_GPIO
 123:../src/main.c **** /** LED1 blinking control. */
 124:../src/main.c **** // [main_var_led1_control]
 125:../src/main.c **** volatile bool g_b_led1_active = true;
 126:../src/main.c **** // [main_var_led1_control]
 127:../src/main.c **** #endif
 128:../src/main.c **** 
 129:../src/main.c **** 
 130:../src/main.c **** 
 131:../src/main.c **** struct ili93xx_opt_t g_ili93xx_display_opt;
 132:../src/main.c **** 
 133:../src/main.c **** /// @cond 0
 134:../src/main.c **** /**INDENT-OFF**/
 135:../src/main.c **** #ifdef __cplusplus
 136:../src/main.c **** extern "C" {
 137:../src/main.c **** #endif
 138:../src/main.c **** /**INDENT-ON**/
 139:../src/main.c **** /// @endcond
 140:../src/main.c **** 
 141:../src/main.c **** 
 142:../src/main.c **** /**
 143:../src/main.c ****  *  \brief Process Buttons Events
 144:../src/main.c ****  *
 145:../src/main.c ****  *  Change active states of LEDs when corresponding button events happened.
 146:../src/main.c ****  */
 147:../src/main.c **** static void ProcessButtonEvt(uint8_t uc_button)
 148:../src/main.c **** {
 149:../src/main.c **** // [main_button1_evnt_process]
 150:../src/main.c **** 	if (uc_button == 0) {
 151:../src/main.c **** 		g_b_led0_active = !g_b_led0_active;
 152:../src/main.c **** 		if (!g_b_led0_active) {
 153:../src/main.c **** //			ioport_set_pin_level(LED0_GPIO, IOPORT_PIN_LEVEL_HIGH);
 154:../src/main.c **** 		}
 155:../src/main.c **** 
 156:../src/main.c **** //	  ioport_toggle_pin_level(LCD_DC_GPIO);
 157:../src/main.c **** 
 158:../src/main.c **** 	}
 159:../src/main.c **** 
 160:../src/main.c **** // [main_button1_evnt_process]
 161:../src/main.c **** #ifdef LED1_GPIO 
 162:../src/main.c **** 	else {
 163:../src/main.c **** // [main_button2_evnt_process]
 164:../src/main.c **** 		g_b_led1_active = !g_b_led1_active;
 165:../src/main.c **** 
 166:../src/main.c **** 		/* Enable LED#2 and TC if they were enabled */
 167:../src/main.c **** 		if (g_b_led1_active) {
 168:../src/main.c **** 			ioport_set_pin_level(LED1_GPIO, IOPORT_PIN_LEVEL_LOW);
 169:../src/main.c **** 			tc_start(TC0, 0);
 170:../src/main.c **** 		}
 171:../src/main.c **** 		/* Disable LED#2 and TC if they were disabled */
 172:../src/main.c **** 		else {
 173:../src/main.c **** 			ioport_set_pin_level(LED1_GPIO, IOPORT_PIN_LEVEL_HIGH);
 174:../src/main.c **** 			tc_stop(TC0, 0);
 175:../src/main.c **** 		}
 176:../src/main.c **** 
 177:../src/main.c **** // [main_button2_evnt_process]
 178:../src/main.c **** 	}
 179:../src/main.c **** #endif
 180:../src/main.c **** }
 181:../src/main.c **** 
 182:../src/main.c **** 
 183:../src/main.c **** /**
 184:../src/main.c ****  *  \brief Handler for Button 1 rising edge interrupt.
 185:../src/main.c ****  *
 186:../src/main.c ****  *  Handle process led1 status change.
 187:../src/main.c ****  */
 188:../src/main.c **** // [main_button1_handler]
 189:../src/main.c **** static void Button1_Handler(uint32_t id, uint32_t mask)
 190:../src/main.c **** {
 191:../src/main.c ****   if (PIN_PUSHBUTTON_1_ID == id && PIN_PUSHBUTTON_1_MASK == mask) { ProcessButtonEvt(0); }
 192:../src/main.c **** }
 193:../src/main.c **** // [main_button1_handler]
 194:../src/main.c **** 
 195:../src/main.c **** #ifndef BOARD_NO_PUSHBUTTON_2
 196:../src/main.c **** /**
 197:../src/main.c ****  *  \brief Handler for Button 2 falling edge interrupt.
 198:../src/main.c ****  *
 199:../src/main.c ****  *  Handle process led2 status change.
 200:../src/main.c ****  */
 201:../src/main.c **** // [main_button2_handler] 
 202:../src/main.c **** static void Button2_Handler(uint32_t id, uint32_t mask)
 203:../src/main.c **** {
 204:../src/main.c ****   if (PIN_PUSHBUTTON_2_ID == id && PIN_PUSHBUTTON_2_MASK == mask) { ProcessButtonEvt(1); }
 205:../src/main.c **** }
 206:../src/main.c **** // [main_button2_handler]
 207:../src/main.c **** #endif
 208:../src/main.c **** 
 209:../src/main.c **** 
 210:../src/main.c **** /**
 211:../src/main.c ****  *  \brief Configure the Pushbuttons
 212:../src/main.c ****  *
 213:../src/main.c ****  *  Configure the PIO as inputs and generate corresponding interrupt when
 214:../src/main.c ****  *  pressed or released.
 215:../src/main.c ****  */
 216:../src/main.c **** static void configure_buttons(void)
 217:../src/main.c **** {
 218:../src/main.c **** // [main_button1_configure]
 219:../src/main.c **** 	/* Configure Pushbutton 1 */
 220:../src/main.c **** 	pmc_enable_periph_clk(PIN_PUSHBUTTON_1_ID);
 221:../src/main.c **** 	pio_set_debounce_filter(PIN_PUSHBUTTON_1_PIO, PIN_PUSHBUTTON_1_MASK, 10);
 222:../src/main.c **** 	/* Interrupt on rising edge  */
 223:../src/main.c **** 	pio_handler_set(PIN_PUSHBUTTON_1_PIO, PIN_PUSHBUTTON_1_ID,
 224:../src/main.c **** 			PIN_PUSHBUTTON_1_MASK, PIN_PUSHBUTTON_1_ATTR, Button1_Handler);
 225:../src/main.c **** 	NVIC_EnableIRQ((IRQn_Type) PIN_PUSHBUTTON_1_ID);
 226:../src/main.c **** 	pio_handler_set_priority(PIN_PUSHBUTTON_1_PIO,
 227:../src/main.c **** 			(IRQn_Type) PIN_PUSHBUTTON_1_ID, IRQ_PRIOR_PIO);
 228:../src/main.c **** 	pio_enable_interrupt(PIN_PUSHBUTTON_1_PIO, PIN_PUSHBUTTON_1_MASK);
 229:../src/main.c **** // [main_button1_configure]
 230:../src/main.c **** #ifndef BOARD_NO_PUSHBUTTON_2
 231:../src/main.c **** // [main_button2_configure]
 232:../src/main.c **** 	/* Configure Pushbutton 2 */
 233:../src/main.c **** 	pmc_enable_periph_clk(PIN_PUSHBUTTON_2_ID);
 234:../src/main.c **** 	pio_set_debounce_filter(PIN_PUSHBUTTON_2_PIO, PIN_PUSHBUTTON_2_MASK, 10);
 235:../src/main.c **** 	/* Interrupt on falling edge */
 236:../src/main.c **** 	pio_handler_set(PIN_PUSHBUTTON_2_PIO, PIN_PUSHBUTTON_2_ID,
 237:../src/main.c **** 			PIN_PUSHBUTTON_2_MASK, PIN_PUSHBUTTON_2_ATTR, Button2_Handler);
 238:../src/main.c **** 	NVIC_EnableIRQ((IRQn_Type) PIN_PUSHBUTTON_2_ID);
 239:../src/main.c **** 	pio_handler_set_priority(PIN_PUSHBUTTON_2_PIO,
 240:../src/main.c **** 			(IRQn_Type) PIN_PUSHBUTTON_2_ID, IRQ_PRIOR_PIO);
 241:../src/main.c **** 	pio_enable_interrupt(PIN_PUSHBUTTON_2_PIO, PIN_PUSHBUTTON_2_MASK);
 242:../src/main.c **** // [main_button2_configure]
 243:../src/main.c **** #endif
 244:../src/main.c **** }
 245:../src/main.c **** 
 246:../src/main.c **** 
 247:../src/main.c **** /**
 248:../src/main.c ****  *  Interrupt handler for TC0 interrupt. Toggles the state of LED\#2.
 249:../src/main.c ****  */
 250:../src/main.c **** // [main_tc0_handler]
 251:../src/main.c **** #ifndef BOARD_NO_LED_1
 252:../src/main.c **** void TC0_Handler(void)
 253:../src/main.c **** {
 254:../src/main.c **** 	volatile uint32_t ul_dummy;
 255:../src/main.c **** 
 256:../src/main.c **** 	/* Clear status bit to acknowledge interrupt */
 257:../src/main.c **** 	ul_dummy = tc_get_status(TC0, 0);
 258:../src/main.c **** 
 259:../src/main.c **** 	/* Avoid compiler warning */
 260:../src/main.c **** 	UNUSED(ul_dummy);
 261:../src/main.c **** 
 262:../src/main.c **** #ifdef LED1_GPIO
 263:../src/main.c **** 	/** Toggle LED state. */
 264:../src/main.c **** 	ioport_toggle_pin_level(LED1_GPIO);
 265:../src/main.c **** #endif
 266:../src/main.c **** 
 267:../src/main.c **** 	printf("2 ");
 268:../src/main.c **** }
 269:../src/main.c **** // [main_tc0_handler]
 270:../src/main.c **** 
 271:../src/main.c **** /**
 272:../src/main.c ****  *  Configure Timer Counter 0 to generate an interrupt every 250ms.
 273:../src/main.c ****  */
 274:../src/main.c **** // [main_tc_configure]
 275:../src/main.c **** static void configure_tc(void)
 276:../src/main.c **** {
 235              		.loc 2 276 0
 236              		.cfi_startproc
 237              		@ args = 0, pretend = 0, frame = 8
 238              		@ frame_needed = 0, uses_anonymous_args = 0
 239 0000 30B5     		push	{r4, r5, lr}
 240              		.cfi_def_cfa_offset 12
 241              		.cfi_offset 4, -12
 242              		.cfi_offset 5, -8
 243              		.cfi_offset 14, -4
 244 0002 85B0     		sub	sp, sp, #20
 245              		.cfi_def_cfa_offset 32
 277:../src/main.c **** 	uint32_t ul_div;
 278:../src/main.c **** 	uint32_t ul_tcclks;
 279:../src/main.c **** 	uint32_t ul_sysclk = sysclk_get_cpu_hz();
 280:../src/main.c **** 
 281:../src/main.c **** 	/* Configure PMC */
 282:../src/main.c **** 	pmc_enable_periph_clk(ID_TC0);
 246              		.loc 2 282 0
 247 0004 1720     		movs	r0, #23
 248 0006 FFF7FEFF 		bl	pmc_enable_periph_clk
 249              	.LVL22:
 283:../src/main.c **** #if SAMG55
 284:../src/main.c **** 	/* Enable PCK output */
 285:../src/main.c **** 	pmc_disable_pck(PMC_PCK_3);
 286:../src/main.c **** 	pmc_switch_pck_to_sclk(PMC_PCK_3, PMC_PCK_PRES_CLK_1);
 287:../src/main.c **** 	pmc_enable_pck(PMC_PCK_3);
 288:../src/main.c **** #endif
 289:../src/main.c **** 
 290:../src/main.c **** 	/** Configure TC for a 4Hz frequency and trigger on RC compare. */
 291:../src/main.c **** 	tc_find_mck_divisor(4, ul_sysclk, &ul_div, &ul_tcclks, ul_sysclk);
 250              		.loc 2 291 0
 251 000a 164C     		ldr	r4, .L29
 252 000c 0094     		str	r4, [sp]
 253 000e 02AB     		add	r3, sp, #8
 254 0010 03AA     		add	r2, sp, #12
 255 0012 2146     		mov	r1, r4
 256 0014 0420     		movs	r0, #4
 257 0016 FFF7FEFF 		bl	tc_find_mck_divisor
 258              	.LVL23:
 292:../src/main.c **** 	tc_init(TC0, 0, ul_tcclks | TC_CMR_CPCTRG);
 259              		.loc 2 292 0
 260 001a 134D     		ldr	r5, .L29+4
 261 001c 029A     		ldr	r2, [sp, #8]
 262 001e 42F48042 		orr	r2, r2, #16384
 263 0022 0021     		movs	r1, #0
 264 0024 2846     		mov	r0, r5
 265 0026 FFF7FEFF 		bl	tc_init
 266              	.LVL24:
 293:../src/main.c **** 	tc_write_rc(TC0, 0, (ul_sysclk / ul_div) / 4);
 267              		.loc 2 293 0
 268 002a 039A     		ldr	r2, [sp, #12]
 269 002c B4FBF2F2 		udiv	r2, r4, r2
 270 0030 9208     		lsrs	r2, r2, #2
 271 0032 0021     		movs	r1, #0
 272 0034 2846     		mov	r0, r5
 273 0036 FFF7FEFF 		bl	tc_write_rc
 274              	.LVL25:
 275              	.LBB119:
 276              	.LBB120:
 277              		.file 3 "/home/bekeband/workspace/OLIMEX_Start/src/core_cm3.h"
   1:/home/bekeband/workspace/OLIMEX_Start/src/core_cm3.h **** /**************************************************************************//**
   2:/home/bekeband/workspace/OLIMEX_Start/src/core_cm3.h ****  * @file     core_cm3.h
   3:/home/bekeband/workspace/OLIMEX_Start/src/core_cm3.h ****  * @brief    CMSIS Cortex-M3 Core Peripheral Access Layer Header File
   4:/home/bekeband/workspace/OLIMEX_Start/src/core_cm3.h ****  * @version  V4.00
   5:/home/bekeband/workspace/OLIMEX_Start/src/core_cm3.h ****  * @date     22. August 2014
   6:/home/bekeband/workspace/OLIMEX_Start/src/core_cm3.h ****  *
   7:/home/bekeband/workspace/OLIMEX_Start/src/core_cm3.h ****  * @note
   8:/home/bekeband/workspace/OLIMEX_Start/src/core_cm3.h ****  *
   9:/home/bekeband/workspace/OLIMEX_Start/src/core_cm3.h ****  ******************************************************************************/
  10:/home/bekeband/workspace/OLIMEX_Start/src/core_cm3.h **** /* Copyright (c) 2009 - 2014 ARM LIMITED
  11:/home/bekeband/workspace/OLIMEX_Start/src/core_cm3.h **** 
  12:/home/bekeband/workspace/OLIMEX_Start/src/core_cm3.h ****    All rights reserved.
  13:/home/bekeband/workspace/OLIMEX_Start/src/core_cm3.h ****    Redistribution and use in source and binary forms, with or without
  14:/home/bekeband/workspace/OLIMEX_Start/src/core_cm3.h ****    modification, are permitted provided that the following conditions are met:
  15:/home/bekeband/workspace/OLIMEX_Start/src/core_cm3.h ****    - Redistributions of source code must retain the above copyright
  16:/home/bekeband/workspace/OLIMEX_Start/src/core_cm3.h ****      notice, this list of conditions and the following disclaimer.
  17:/home/bekeband/workspace/OLIMEX_Start/src/core_cm3.h ****    - Redistributions in binary form must reproduce the above copyright
  18:/home/bekeband/workspace/OLIMEX_Start/src/core_cm3.h ****      notice, this list of conditions and the following disclaimer in the
  19:/home/bekeband/workspace/OLIMEX_Start/src/core_cm3.h ****      documentation and/or other materials provided with the distribution.
  20:/home/bekeband/workspace/OLIMEX_Start/src/core_cm3.h ****    - Neither the name of ARM nor the names of its contributors may be used
  21:/home/bekeband/workspace/OLIMEX_Start/src/core_cm3.h ****      to endorse or promote products derived from this software without
  22:/home/bekeband/workspace/OLIMEX_Start/src/core_cm3.h ****      specific prior written permission.
  23:/home/bekeband/workspace/OLIMEX_Start/src/core_cm3.h ****    *
  24:/home/bekeband/workspace/OLIMEX_Start/src/core_cm3.h ****    THIS SOFTWARE IS PROVIDED BY THE COPYRIGHT HOLDERS AND CONTRIBUTORS "AS IS"
  25:/home/bekeband/workspace/OLIMEX_Start/src/core_cm3.h ****    AND ANY EXPRESS OR IMPLIED WARRANTIES, INCLUDING, BUT NOT LIMITED TO, THE
  26:/home/bekeband/workspace/OLIMEX_Start/src/core_cm3.h ****    IMPLIED WARRANTIES OF MERCHANTABILITY AND FITNESS FOR A PARTICULAR PURPOSE
  27:/home/bekeband/workspace/OLIMEX_Start/src/core_cm3.h ****    ARE DISCLAIMED. IN NO EVENT SHALL COPYRIGHT HOLDERS AND CONTRIBUTORS BE
  28:/home/bekeband/workspace/OLIMEX_Start/src/core_cm3.h ****    LIABLE FOR ANY DIRECT, INDIRECT, INCIDENTAL, SPECIAL, EXEMPLARY, OR
  29:/home/bekeband/workspace/OLIMEX_Start/src/core_cm3.h ****    CONSEQUENTIAL DAMAGES (INCLUDING, BUT NOT LIMITED TO, PROCUREMENT OF
  30:/home/bekeband/workspace/OLIMEX_Start/src/core_cm3.h ****    SUBSTITUTE GOODS OR SERVICES; LOSS OF USE, DATA, OR PROFITS; OR BUSINESS
  31:/home/bekeband/workspace/OLIMEX_Start/src/core_cm3.h ****    INTERRUPTION) HOWEVER CAUSED AND ON ANY THEORY OF LIABILITY, WHETHER IN
  32:/home/bekeband/workspace/OLIMEX_Start/src/core_cm3.h ****    CONTRACT, STRICT LIABILITY, OR TORT (INCLUDING NEGLIGENCE OR OTHERWISE)
  33:/home/bekeband/workspace/OLIMEX_Start/src/core_cm3.h ****    ARISING IN ANY WAY OUT OF THE USE OF THIS SOFTWARE, EVEN IF ADVISED OF THE
  34:/home/bekeband/workspace/OLIMEX_Start/src/core_cm3.h ****    POSSIBILITY OF SUCH DAMAGE.
  35:/home/bekeband/workspace/OLIMEX_Start/src/core_cm3.h ****    ---------------------------------------------------------------------------*/
  36:/home/bekeband/workspace/OLIMEX_Start/src/core_cm3.h **** 
  37:/home/bekeband/workspace/OLIMEX_Start/src/core_cm3.h **** 
  38:/home/bekeband/workspace/OLIMEX_Start/src/core_cm3.h **** #if defined ( __ICCARM__ )
  39:/home/bekeband/workspace/OLIMEX_Start/src/core_cm3.h ****  #pragma system_include  /* treat file as system include file for MISRA check */
  40:/home/bekeband/workspace/OLIMEX_Start/src/core_cm3.h **** #endif
  41:/home/bekeband/workspace/OLIMEX_Start/src/core_cm3.h **** 
  42:/home/bekeband/workspace/OLIMEX_Start/src/core_cm3.h **** #ifndef __CORE_CM3_H_GENERIC
  43:/home/bekeband/workspace/OLIMEX_Start/src/core_cm3.h **** #define __CORE_CM3_H_GENERIC
  44:/home/bekeband/workspace/OLIMEX_Start/src/core_cm3.h **** 
  45:/home/bekeband/workspace/OLIMEX_Start/src/core_cm3.h **** #ifdef __cplusplus
  46:/home/bekeband/workspace/OLIMEX_Start/src/core_cm3.h ****  extern "C" {
  47:/home/bekeband/workspace/OLIMEX_Start/src/core_cm3.h **** #endif
  48:/home/bekeband/workspace/OLIMEX_Start/src/core_cm3.h **** 
  49:/home/bekeband/workspace/OLIMEX_Start/src/core_cm3.h **** /** \page CMSIS_MISRA_Exceptions  MISRA-C:2004 Compliance Exceptions
  50:/home/bekeband/workspace/OLIMEX_Start/src/core_cm3.h ****   CMSIS violates the following MISRA-C:2004 rules:
  51:/home/bekeband/workspace/OLIMEX_Start/src/core_cm3.h **** 
  52:/home/bekeband/workspace/OLIMEX_Start/src/core_cm3.h ****    \li Required Rule 8.5, object/function definition in header file.<br>
  53:/home/bekeband/workspace/OLIMEX_Start/src/core_cm3.h ****      Function definitions in header files are used to allow 'inlining'.
  54:/home/bekeband/workspace/OLIMEX_Start/src/core_cm3.h **** 
  55:/home/bekeband/workspace/OLIMEX_Start/src/core_cm3.h ****    \li Required Rule 18.4, declaration of union type or object of union type: '{...}'.<br>
  56:/home/bekeband/workspace/OLIMEX_Start/src/core_cm3.h ****      Unions are used for effective representation of core registers.
  57:/home/bekeband/workspace/OLIMEX_Start/src/core_cm3.h **** 
  58:/home/bekeband/workspace/OLIMEX_Start/src/core_cm3.h ****    \li Advisory Rule 19.7, Function-like macro defined.<br>
  59:/home/bekeband/workspace/OLIMEX_Start/src/core_cm3.h ****      Function-like macros are used to allow more efficient code.
  60:/home/bekeband/workspace/OLIMEX_Start/src/core_cm3.h ****  */
  61:/home/bekeband/workspace/OLIMEX_Start/src/core_cm3.h **** 
  62:/home/bekeband/workspace/OLIMEX_Start/src/core_cm3.h **** 
  63:/home/bekeband/workspace/OLIMEX_Start/src/core_cm3.h **** /*******************************************************************************
  64:/home/bekeband/workspace/OLIMEX_Start/src/core_cm3.h ****  *                 CMSIS definitions
  65:/home/bekeband/workspace/OLIMEX_Start/src/core_cm3.h ****  ******************************************************************************/
  66:/home/bekeband/workspace/OLIMEX_Start/src/core_cm3.h **** /** \ingroup Cortex_M3
  67:/home/bekeband/workspace/OLIMEX_Start/src/core_cm3.h ****   @{
  68:/home/bekeband/workspace/OLIMEX_Start/src/core_cm3.h ****  */
  69:/home/bekeband/workspace/OLIMEX_Start/src/core_cm3.h **** 
  70:/home/bekeband/workspace/OLIMEX_Start/src/core_cm3.h **** /*  CMSIS CM3 definitions */
  71:/home/bekeband/workspace/OLIMEX_Start/src/core_cm3.h **** #define __CM3_CMSIS_VERSION_MAIN  (0x04)                                   /*!< [31:16] CMSIS HAL m
  72:/home/bekeband/workspace/OLIMEX_Start/src/core_cm3.h **** #define __CM3_CMSIS_VERSION_SUB   (0x00)                                   /*!< [15:0]  CMSIS HAL s
  73:/home/bekeband/workspace/OLIMEX_Start/src/core_cm3.h **** #define __CM3_CMSIS_VERSION       ((__CM3_CMSIS_VERSION_MAIN << 16) | \
  74:/home/bekeband/workspace/OLIMEX_Start/src/core_cm3.h ****                                     __CM3_CMSIS_VERSION_SUB          )     /*!< CMSIS HAL version n
  75:/home/bekeband/workspace/OLIMEX_Start/src/core_cm3.h **** 
  76:/home/bekeband/workspace/OLIMEX_Start/src/core_cm3.h **** #define __CORTEX_M                (0x03)                                   /*!< Cortex-M Core      
  77:/home/bekeband/workspace/OLIMEX_Start/src/core_cm3.h **** 
  78:/home/bekeband/workspace/OLIMEX_Start/src/core_cm3.h **** 
  79:/home/bekeband/workspace/OLIMEX_Start/src/core_cm3.h **** #if   defined ( __CC_ARM )
  80:/home/bekeband/workspace/OLIMEX_Start/src/core_cm3.h ****   #define __ASM            __asm                                      /*!< asm keyword for ARM Comp
  81:/home/bekeband/workspace/OLIMEX_Start/src/core_cm3.h ****   #define __INLINE         __inline                                   /*!< inline keyword for ARM C
  82:/home/bekeband/workspace/OLIMEX_Start/src/core_cm3.h ****   #define __STATIC_INLINE  static __inline
  83:/home/bekeband/workspace/OLIMEX_Start/src/core_cm3.h **** 
  84:/home/bekeband/workspace/OLIMEX_Start/src/core_cm3.h **** #elif defined ( __GNUC__ )
  85:/home/bekeband/workspace/OLIMEX_Start/src/core_cm3.h ****   #define __ASM            __asm                                      /*!< asm keyword for GNU Comp
  86:/home/bekeband/workspace/OLIMEX_Start/src/core_cm3.h ****   #define __INLINE         inline                                     /*!< inline keyword for GNU C
  87:/home/bekeband/workspace/OLIMEX_Start/src/core_cm3.h ****   #define __STATIC_INLINE  static inline
  88:/home/bekeband/workspace/OLIMEX_Start/src/core_cm3.h **** 
  89:/home/bekeband/workspace/OLIMEX_Start/src/core_cm3.h **** #elif defined ( __ICCARM__ )
  90:/home/bekeband/workspace/OLIMEX_Start/src/core_cm3.h ****   #define __ASM            __asm                                      /*!< asm keyword for IAR Comp
  91:/home/bekeband/workspace/OLIMEX_Start/src/core_cm3.h ****   #define __INLINE         inline                                     /*!< inline keyword for IAR C
  92:/home/bekeband/workspace/OLIMEX_Start/src/core_cm3.h ****   #define __STATIC_INLINE  static inline
  93:/home/bekeband/workspace/OLIMEX_Start/src/core_cm3.h **** 
  94:/home/bekeband/workspace/OLIMEX_Start/src/core_cm3.h **** #elif defined ( __TMS470__ )
  95:/home/bekeband/workspace/OLIMEX_Start/src/core_cm3.h ****   #define __ASM            __asm                                      /*!< asm keyword for TI CCS C
  96:/home/bekeband/workspace/OLIMEX_Start/src/core_cm3.h ****   #define __STATIC_INLINE  static inline
  97:/home/bekeband/workspace/OLIMEX_Start/src/core_cm3.h **** 
  98:/home/bekeband/workspace/OLIMEX_Start/src/core_cm3.h **** #elif defined ( __TASKING__ )
  99:/home/bekeband/workspace/OLIMEX_Start/src/core_cm3.h ****   #define __ASM            __asm                                      /*!< asm keyword for TASKING 
 100:/home/bekeband/workspace/OLIMEX_Start/src/core_cm3.h ****   #define __INLINE         inline                                     /*!< inline keyword for TASKI
 101:/home/bekeband/workspace/OLIMEX_Start/src/core_cm3.h ****   #define __STATIC_INLINE  static inline
 102:/home/bekeband/workspace/OLIMEX_Start/src/core_cm3.h **** 
 103:/home/bekeband/workspace/OLIMEX_Start/src/core_cm3.h **** #elif defined ( __CSMC__ )
 104:/home/bekeband/workspace/OLIMEX_Start/src/core_cm3.h ****   #define __packed
 105:/home/bekeband/workspace/OLIMEX_Start/src/core_cm3.h ****   #define __ASM            _asm                                      /*!< asm keyword for COSMIC Co
 106:/home/bekeband/workspace/OLIMEX_Start/src/core_cm3.h ****   #define __INLINE         inline                                    /*use -pc99 on compile line !<
 107:/home/bekeband/workspace/OLIMEX_Start/src/core_cm3.h ****   #define __STATIC_INLINE  static inline
 108:/home/bekeband/workspace/OLIMEX_Start/src/core_cm3.h **** 
 109:/home/bekeband/workspace/OLIMEX_Start/src/core_cm3.h **** #endif
 110:/home/bekeband/workspace/OLIMEX_Start/src/core_cm3.h **** 
 111:/home/bekeband/workspace/OLIMEX_Start/src/core_cm3.h **** /** __FPU_USED indicates whether an FPU is used or not.
 112:/home/bekeband/workspace/OLIMEX_Start/src/core_cm3.h ****     This core does not support an FPU at all
 113:/home/bekeband/workspace/OLIMEX_Start/src/core_cm3.h **** */
 114:/home/bekeband/workspace/OLIMEX_Start/src/core_cm3.h **** #define __FPU_USED       0
 115:/home/bekeband/workspace/OLIMEX_Start/src/core_cm3.h **** 
 116:/home/bekeband/workspace/OLIMEX_Start/src/core_cm3.h **** #if defined ( __CC_ARM )
 117:/home/bekeband/workspace/OLIMEX_Start/src/core_cm3.h ****   #if defined __TARGET_FPU_VFP
 118:/home/bekeband/workspace/OLIMEX_Start/src/core_cm3.h ****     #warning "Compiler generates FPU instructions for a device without an FPU (check __FPU_PRESENT)
 119:/home/bekeband/workspace/OLIMEX_Start/src/core_cm3.h ****   #endif
 120:/home/bekeband/workspace/OLIMEX_Start/src/core_cm3.h **** 
 121:/home/bekeband/workspace/OLIMEX_Start/src/core_cm3.h **** #elif defined ( __GNUC__ )
 122:/home/bekeband/workspace/OLIMEX_Start/src/core_cm3.h ****   #if defined (__VFP_FP__) && !defined(__SOFTFP__)
 123:/home/bekeband/workspace/OLIMEX_Start/src/core_cm3.h ****     #warning "Compiler generates FPU instructions for a device without an FPU (check __FPU_PRESENT)
 124:/home/bekeband/workspace/OLIMEX_Start/src/core_cm3.h ****   #endif
 125:/home/bekeband/workspace/OLIMEX_Start/src/core_cm3.h **** 
 126:/home/bekeband/workspace/OLIMEX_Start/src/core_cm3.h **** #elif defined ( __ICCARM__ )
 127:/home/bekeband/workspace/OLIMEX_Start/src/core_cm3.h ****   #if defined __ARMVFP__
 128:/home/bekeband/workspace/OLIMEX_Start/src/core_cm3.h ****     #warning "Compiler generates FPU instructions for a device without an FPU (check __FPU_PRESENT)
 129:/home/bekeband/workspace/OLIMEX_Start/src/core_cm3.h ****   #endif
 130:/home/bekeband/workspace/OLIMEX_Start/src/core_cm3.h **** 
 131:/home/bekeband/workspace/OLIMEX_Start/src/core_cm3.h **** #elif defined ( __TMS470__ )
 132:/home/bekeband/workspace/OLIMEX_Start/src/core_cm3.h ****   #if defined __TI__VFP_SUPPORT____
 133:/home/bekeband/workspace/OLIMEX_Start/src/core_cm3.h ****     #warning "Compiler generates FPU instructions for a device without an FPU (check __FPU_PRESENT)
 134:/home/bekeband/workspace/OLIMEX_Start/src/core_cm3.h ****   #endif
 135:/home/bekeband/workspace/OLIMEX_Start/src/core_cm3.h **** 
 136:/home/bekeband/workspace/OLIMEX_Start/src/core_cm3.h **** #elif defined ( __TASKING__ )
 137:/home/bekeband/workspace/OLIMEX_Start/src/core_cm3.h ****   #if defined __FPU_VFP__
 138:/home/bekeband/workspace/OLIMEX_Start/src/core_cm3.h ****     #error "Compiler generates FPU instructions for a device without an FPU (check __FPU_PRESENT)"
 139:/home/bekeband/workspace/OLIMEX_Start/src/core_cm3.h ****   #endif
 140:/home/bekeband/workspace/OLIMEX_Start/src/core_cm3.h **** 
 141:/home/bekeband/workspace/OLIMEX_Start/src/core_cm3.h **** #elif defined ( __CSMC__ )		/* Cosmic */
 142:/home/bekeband/workspace/OLIMEX_Start/src/core_cm3.h ****   #if ( __CSMC__ & 0x400)		// FPU present for parser
 143:/home/bekeband/workspace/OLIMEX_Start/src/core_cm3.h ****     #error "Compiler generates FPU instructions for a device without an FPU (check __FPU_PRESENT)"
 144:/home/bekeband/workspace/OLIMEX_Start/src/core_cm3.h ****   #endif
 145:/home/bekeband/workspace/OLIMEX_Start/src/core_cm3.h **** #endif
 146:/home/bekeband/workspace/OLIMEX_Start/src/core_cm3.h **** 
 147:/home/bekeband/workspace/OLIMEX_Start/src/core_cm3.h **** #include <stdint.h>                      /* standard types definitions                      */
 148:/home/bekeband/workspace/OLIMEX_Start/src/core_cm3.h **** #include <core_cmInstr.h>                /* Core Instruction Access                         */
 149:/home/bekeband/workspace/OLIMEX_Start/src/core_cm3.h **** #include <core_cmFunc.h>                 /* Core Function Access                            */
 150:/home/bekeband/workspace/OLIMEX_Start/src/core_cm3.h **** 
 151:/home/bekeband/workspace/OLIMEX_Start/src/core_cm3.h **** #ifdef __cplusplus
 152:/home/bekeband/workspace/OLIMEX_Start/src/core_cm3.h **** }
 153:/home/bekeband/workspace/OLIMEX_Start/src/core_cm3.h **** #endif
 154:/home/bekeband/workspace/OLIMEX_Start/src/core_cm3.h **** 
 155:/home/bekeband/workspace/OLIMEX_Start/src/core_cm3.h **** #endif /* __CORE_CM3_H_GENERIC */
 156:/home/bekeband/workspace/OLIMEX_Start/src/core_cm3.h **** 
 157:/home/bekeband/workspace/OLIMEX_Start/src/core_cm3.h **** #ifndef __CMSIS_GENERIC
 158:/home/bekeband/workspace/OLIMEX_Start/src/core_cm3.h **** 
 159:/home/bekeband/workspace/OLIMEX_Start/src/core_cm3.h **** #ifndef __CORE_CM3_H_DEPENDANT
 160:/home/bekeband/workspace/OLIMEX_Start/src/core_cm3.h **** #define __CORE_CM3_H_DEPENDANT
 161:/home/bekeband/workspace/OLIMEX_Start/src/core_cm3.h **** 
 162:/home/bekeband/workspace/OLIMEX_Start/src/core_cm3.h **** #ifdef __cplusplus
 163:/home/bekeband/workspace/OLIMEX_Start/src/core_cm3.h ****  extern "C" {
 164:/home/bekeband/workspace/OLIMEX_Start/src/core_cm3.h **** #endif
 165:/home/bekeband/workspace/OLIMEX_Start/src/core_cm3.h **** 
 166:/home/bekeband/workspace/OLIMEX_Start/src/core_cm3.h **** /* check device defines and use defaults */
 167:/home/bekeband/workspace/OLIMEX_Start/src/core_cm3.h **** #if defined __CHECK_DEVICE_DEFINES
 168:/home/bekeband/workspace/OLIMEX_Start/src/core_cm3.h ****   #ifndef __CM3_REV
 169:/home/bekeband/workspace/OLIMEX_Start/src/core_cm3.h ****     #define __CM3_REV               0x0200
 170:/home/bekeband/workspace/OLIMEX_Start/src/core_cm3.h ****     #warning "__CM3_REV not defined in device header file; using default!"
 171:/home/bekeband/workspace/OLIMEX_Start/src/core_cm3.h ****   #endif
 172:/home/bekeband/workspace/OLIMEX_Start/src/core_cm3.h **** 
 173:/home/bekeband/workspace/OLIMEX_Start/src/core_cm3.h ****   #ifndef __MPU_PRESENT
 174:/home/bekeband/workspace/OLIMEX_Start/src/core_cm3.h ****     #define __MPU_PRESENT             0
 175:/home/bekeband/workspace/OLIMEX_Start/src/core_cm3.h ****     #warning "__MPU_PRESENT not defined in device header file; using default!"
 176:/home/bekeband/workspace/OLIMEX_Start/src/core_cm3.h ****   #endif
 177:/home/bekeband/workspace/OLIMEX_Start/src/core_cm3.h **** 
 178:/home/bekeband/workspace/OLIMEX_Start/src/core_cm3.h ****   #ifndef __NVIC_PRIO_BITS
 179:/home/bekeband/workspace/OLIMEX_Start/src/core_cm3.h ****     #define __NVIC_PRIO_BITS          4
 180:/home/bekeband/workspace/OLIMEX_Start/src/core_cm3.h ****     #warning "__NVIC_PRIO_BITS not defined in device header file; using default!"
 181:/home/bekeband/workspace/OLIMEX_Start/src/core_cm3.h ****   #endif
 182:/home/bekeband/workspace/OLIMEX_Start/src/core_cm3.h **** 
 183:/home/bekeband/workspace/OLIMEX_Start/src/core_cm3.h ****   #ifndef __Vendor_SysTickConfig
 184:/home/bekeband/workspace/OLIMEX_Start/src/core_cm3.h ****     #define __Vendor_SysTickConfig    0
 185:/home/bekeband/workspace/OLIMEX_Start/src/core_cm3.h ****     #warning "__Vendor_SysTickConfig not defined in device header file; using default!"
 186:/home/bekeband/workspace/OLIMEX_Start/src/core_cm3.h ****   #endif
 187:/home/bekeband/workspace/OLIMEX_Start/src/core_cm3.h **** #endif
 188:/home/bekeband/workspace/OLIMEX_Start/src/core_cm3.h **** 
 189:/home/bekeband/workspace/OLIMEX_Start/src/core_cm3.h **** /* IO definitions (access restrictions to peripheral registers) */
 190:/home/bekeband/workspace/OLIMEX_Start/src/core_cm3.h **** /**
 191:/home/bekeband/workspace/OLIMEX_Start/src/core_cm3.h ****     \defgroup CMSIS_glob_defs CMSIS Global Defines
 192:/home/bekeband/workspace/OLIMEX_Start/src/core_cm3.h **** 
 193:/home/bekeband/workspace/OLIMEX_Start/src/core_cm3.h ****     <strong>IO Type Qualifiers</strong> are used
 194:/home/bekeband/workspace/OLIMEX_Start/src/core_cm3.h ****     \li to specify the access to peripheral variables.
 195:/home/bekeband/workspace/OLIMEX_Start/src/core_cm3.h ****     \li for automatic generation of peripheral register debug information.
 196:/home/bekeband/workspace/OLIMEX_Start/src/core_cm3.h **** */
 197:/home/bekeband/workspace/OLIMEX_Start/src/core_cm3.h **** #ifdef __cplusplus
 198:/home/bekeband/workspace/OLIMEX_Start/src/core_cm3.h ****   #define   __I     volatile             /*!< Defines 'read only' permissions                 */
 199:/home/bekeband/workspace/OLIMEX_Start/src/core_cm3.h **** #else
 200:/home/bekeband/workspace/OLIMEX_Start/src/core_cm3.h ****   #define   __I     volatile const       /*!< Defines 'read only' permissions                 */
 201:/home/bekeband/workspace/OLIMEX_Start/src/core_cm3.h **** #endif
 202:/home/bekeband/workspace/OLIMEX_Start/src/core_cm3.h **** #define     __O     volatile             /*!< Defines 'write only' permissions                */
 203:/home/bekeband/workspace/OLIMEX_Start/src/core_cm3.h **** #define     __IO    volatile             /*!< Defines 'read / write' permissions              */
 204:/home/bekeband/workspace/OLIMEX_Start/src/core_cm3.h **** 
 205:/home/bekeband/workspace/OLIMEX_Start/src/core_cm3.h **** /*@} end of group Cortex_M3 */
 206:/home/bekeband/workspace/OLIMEX_Start/src/core_cm3.h **** 
 207:/home/bekeband/workspace/OLIMEX_Start/src/core_cm3.h **** 
 208:/home/bekeband/workspace/OLIMEX_Start/src/core_cm3.h **** 
 209:/home/bekeband/workspace/OLIMEX_Start/src/core_cm3.h **** /*******************************************************************************
 210:/home/bekeband/workspace/OLIMEX_Start/src/core_cm3.h ****  *                 Register Abstraction
 211:/home/bekeband/workspace/OLIMEX_Start/src/core_cm3.h ****   Core Register contain:
 212:/home/bekeband/workspace/OLIMEX_Start/src/core_cm3.h ****   - Core Register
 213:/home/bekeband/workspace/OLIMEX_Start/src/core_cm3.h ****   - Core NVIC Register
 214:/home/bekeband/workspace/OLIMEX_Start/src/core_cm3.h ****   - Core SCB Register
 215:/home/bekeband/workspace/OLIMEX_Start/src/core_cm3.h ****   - Core SysTick Register
 216:/home/bekeband/workspace/OLIMEX_Start/src/core_cm3.h ****   - Core Debug Register
 217:/home/bekeband/workspace/OLIMEX_Start/src/core_cm3.h ****   - Core MPU Register
 218:/home/bekeband/workspace/OLIMEX_Start/src/core_cm3.h ****  ******************************************************************************/
 219:/home/bekeband/workspace/OLIMEX_Start/src/core_cm3.h **** /** \defgroup CMSIS_core_register Defines and Type Definitions
 220:/home/bekeband/workspace/OLIMEX_Start/src/core_cm3.h ****     \brief Type definitions and defines for Cortex-M processor based devices.
 221:/home/bekeband/workspace/OLIMEX_Start/src/core_cm3.h **** */
 222:/home/bekeband/workspace/OLIMEX_Start/src/core_cm3.h **** 
 223:/home/bekeband/workspace/OLIMEX_Start/src/core_cm3.h **** /** \ingroup    CMSIS_core_register
 224:/home/bekeband/workspace/OLIMEX_Start/src/core_cm3.h ****     \defgroup   CMSIS_CORE  Status and Control Registers
 225:/home/bekeband/workspace/OLIMEX_Start/src/core_cm3.h ****     \brief  Core Register type definitions.
 226:/home/bekeband/workspace/OLIMEX_Start/src/core_cm3.h ****   @{
 227:/home/bekeband/workspace/OLIMEX_Start/src/core_cm3.h ****  */
 228:/home/bekeband/workspace/OLIMEX_Start/src/core_cm3.h **** 
 229:/home/bekeband/workspace/OLIMEX_Start/src/core_cm3.h **** /** \brief  Union type to access the Application Program Status Register (APSR).
 230:/home/bekeband/workspace/OLIMEX_Start/src/core_cm3.h ****  */
 231:/home/bekeband/workspace/OLIMEX_Start/src/core_cm3.h **** typedef union
 232:/home/bekeband/workspace/OLIMEX_Start/src/core_cm3.h **** {
 233:/home/bekeband/workspace/OLIMEX_Start/src/core_cm3.h ****   struct
 234:/home/bekeband/workspace/OLIMEX_Start/src/core_cm3.h ****   {
 235:/home/bekeband/workspace/OLIMEX_Start/src/core_cm3.h **** #if (__CORTEX_M != 0x04)
 236:/home/bekeband/workspace/OLIMEX_Start/src/core_cm3.h ****     uint32_t _reserved0:27;              /*!< bit:  0..26  Reserved                           */
 237:/home/bekeband/workspace/OLIMEX_Start/src/core_cm3.h **** #else
 238:/home/bekeband/workspace/OLIMEX_Start/src/core_cm3.h ****     uint32_t _reserved0:16;              /*!< bit:  0..15  Reserved                           */
 239:/home/bekeband/workspace/OLIMEX_Start/src/core_cm3.h ****     uint32_t GE:4;                       /*!< bit: 16..19  Greater than or Equal flags        */
 240:/home/bekeband/workspace/OLIMEX_Start/src/core_cm3.h ****     uint32_t _reserved1:7;               /*!< bit: 20..26  Reserved                           */
 241:/home/bekeband/workspace/OLIMEX_Start/src/core_cm3.h **** #endif
 242:/home/bekeband/workspace/OLIMEX_Start/src/core_cm3.h ****     uint32_t Q:1;                        /*!< bit:     27  Saturation condition flag          */
 243:/home/bekeband/workspace/OLIMEX_Start/src/core_cm3.h ****     uint32_t V:1;                        /*!< bit:     28  Overflow condition code flag       */
 244:/home/bekeband/workspace/OLIMEX_Start/src/core_cm3.h ****     uint32_t C:1;                        /*!< bit:     29  Carry condition code flag          */
 245:/home/bekeband/workspace/OLIMEX_Start/src/core_cm3.h ****     uint32_t Z:1;                        /*!< bit:     30  Zero condition code flag           */
 246:/home/bekeband/workspace/OLIMEX_Start/src/core_cm3.h ****     uint32_t N:1;                        /*!< bit:     31  Negative condition code flag       */
 247:/home/bekeband/workspace/OLIMEX_Start/src/core_cm3.h ****   } b;                                   /*!< Structure used for bit  access                  */
 248:/home/bekeband/workspace/OLIMEX_Start/src/core_cm3.h ****   uint32_t w;                            /*!< Type      used for word access                  */
 249:/home/bekeband/workspace/OLIMEX_Start/src/core_cm3.h **** } APSR_Type;
 250:/home/bekeband/workspace/OLIMEX_Start/src/core_cm3.h **** 
 251:/home/bekeband/workspace/OLIMEX_Start/src/core_cm3.h **** 
 252:/home/bekeband/workspace/OLIMEX_Start/src/core_cm3.h **** /** \brief  Union type to access the Interrupt Program Status Register (IPSR).
 253:/home/bekeband/workspace/OLIMEX_Start/src/core_cm3.h ****  */
 254:/home/bekeband/workspace/OLIMEX_Start/src/core_cm3.h **** typedef union
 255:/home/bekeband/workspace/OLIMEX_Start/src/core_cm3.h **** {
 256:/home/bekeband/workspace/OLIMEX_Start/src/core_cm3.h ****   struct
 257:/home/bekeband/workspace/OLIMEX_Start/src/core_cm3.h ****   {
 258:/home/bekeband/workspace/OLIMEX_Start/src/core_cm3.h ****     uint32_t ISR:9;                      /*!< bit:  0.. 8  Exception number                   */
 259:/home/bekeband/workspace/OLIMEX_Start/src/core_cm3.h ****     uint32_t _reserved0:23;              /*!< bit:  9..31  Reserved                           */
 260:/home/bekeband/workspace/OLIMEX_Start/src/core_cm3.h ****   } b;                                   /*!< Structure used for bit  access                  */
 261:/home/bekeband/workspace/OLIMEX_Start/src/core_cm3.h ****   uint32_t w;                            /*!< Type      used for word access                  */
 262:/home/bekeband/workspace/OLIMEX_Start/src/core_cm3.h **** } IPSR_Type;
 263:/home/bekeband/workspace/OLIMEX_Start/src/core_cm3.h **** 
 264:/home/bekeband/workspace/OLIMEX_Start/src/core_cm3.h **** 
 265:/home/bekeband/workspace/OLIMEX_Start/src/core_cm3.h **** /** \brief  Union type to access the Special-Purpose Program Status Registers (xPSR).
 266:/home/bekeband/workspace/OLIMEX_Start/src/core_cm3.h ****  */
 267:/home/bekeband/workspace/OLIMEX_Start/src/core_cm3.h **** typedef union
 268:/home/bekeband/workspace/OLIMEX_Start/src/core_cm3.h **** {
 269:/home/bekeband/workspace/OLIMEX_Start/src/core_cm3.h ****   struct
 270:/home/bekeband/workspace/OLIMEX_Start/src/core_cm3.h ****   {
 271:/home/bekeband/workspace/OLIMEX_Start/src/core_cm3.h ****     uint32_t ISR:9;                      /*!< bit:  0.. 8  Exception number                   */
 272:/home/bekeband/workspace/OLIMEX_Start/src/core_cm3.h **** #if (__CORTEX_M != 0x04)
 273:/home/bekeband/workspace/OLIMEX_Start/src/core_cm3.h ****     uint32_t _reserved0:15;              /*!< bit:  9..23  Reserved                           */
 274:/home/bekeband/workspace/OLIMEX_Start/src/core_cm3.h **** #else
 275:/home/bekeband/workspace/OLIMEX_Start/src/core_cm3.h ****     uint32_t _reserved0:7;               /*!< bit:  9..15  Reserved                           */
 276:/home/bekeband/workspace/OLIMEX_Start/src/core_cm3.h ****     uint32_t GE:4;                       /*!< bit: 16..19  Greater than or Equal flags        */
 277:/home/bekeband/workspace/OLIMEX_Start/src/core_cm3.h ****     uint32_t _reserved1:4;               /*!< bit: 20..23  Reserved                           */
 278:/home/bekeband/workspace/OLIMEX_Start/src/core_cm3.h **** #endif
 279:/home/bekeband/workspace/OLIMEX_Start/src/core_cm3.h ****     uint32_t T:1;                        /*!< bit:     24  Thumb bit        (read 0)          */
 280:/home/bekeband/workspace/OLIMEX_Start/src/core_cm3.h ****     uint32_t IT:2;                       /*!< bit: 25..26  saved IT state   (read 0)          */
 281:/home/bekeband/workspace/OLIMEX_Start/src/core_cm3.h ****     uint32_t Q:1;                        /*!< bit:     27  Saturation condition flag          */
 282:/home/bekeband/workspace/OLIMEX_Start/src/core_cm3.h ****     uint32_t V:1;                        /*!< bit:     28  Overflow condition code flag       */
 283:/home/bekeband/workspace/OLIMEX_Start/src/core_cm3.h ****     uint32_t C:1;                        /*!< bit:     29  Carry condition code flag          */
 284:/home/bekeband/workspace/OLIMEX_Start/src/core_cm3.h ****     uint32_t Z:1;                        /*!< bit:     30  Zero condition code flag           */
 285:/home/bekeband/workspace/OLIMEX_Start/src/core_cm3.h ****     uint32_t N:1;                        /*!< bit:     31  Negative condition code flag       */
 286:/home/bekeband/workspace/OLIMEX_Start/src/core_cm3.h ****   } b;                                   /*!< Structure used for bit  access                  */
 287:/home/bekeband/workspace/OLIMEX_Start/src/core_cm3.h ****   uint32_t w;                            /*!< Type      used for word access                  */
 288:/home/bekeband/workspace/OLIMEX_Start/src/core_cm3.h **** } xPSR_Type;
 289:/home/bekeband/workspace/OLIMEX_Start/src/core_cm3.h **** 
 290:/home/bekeband/workspace/OLIMEX_Start/src/core_cm3.h **** 
 291:/home/bekeband/workspace/OLIMEX_Start/src/core_cm3.h **** /** \brief  Union type to access the Control Registers (CONTROL).
 292:/home/bekeband/workspace/OLIMEX_Start/src/core_cm3.h ****  */
 293:/home/bekeband/workspace/OLIMEX_Start/src/core_cm3.h **** typedef union
 294:/home/bekeband/workspace/OLIMEX_Start/src/core_cm3.h **** {
 295:/home/bekeband/workspace/OLIMEX_Start/src/core_cm3.h ****   struct
 296:/home/bekeband/workspace/OLIMEX_Start/src/core_cm3.h ****   {
 297:/home/bekeband/workspace/OLIMEX_Start/src/core_cm3.h ****     uint32_t nPRIV:1;                    /*!< bit:      0  Execution privilege in Thread mode */
 298:/home/bekeband/workspace/OLIMEX_Start/src/core_cm3.h ****     uint32_t SPSEL:1;                    /*!< bit:      1  Stack to be used                   */
 299:/home/bekeband/workspace/OLIMEX_Start/src/core_cm3.h ****     uint32_t FPCA:1;                     /*!< bit:      2  FP extension active flag           */
 300:/home/bekeband/workspace/OLIMEX_Start/src/core_cm3.h ****     uint32_t _reserved0:29;              /*!< bit:  3..31  Reserved                           */
 301:/home/bekeband/workspace/OLIMEX_Start/src/core_cm3.h ****   } b;                                   /*!< Structure used for bit  access                  */
 302:/home/bekeband/workspace/OLIMEX_Start/src/core_cm3.h ****   uint32_t w;                            /*!< Type      used for word access                  */
 303:/home/bekeband/workspace/OLIMEX_Start/src/core_cm3.h **** } CONTROL_Type;
 304:/home/bekeband/workspace/OLIMEX_Start/src/core_cm3.h **** 
 305:/home/bekeband/workspace/OLIMEX_Start/src/core_cm3.h **** /*@} end of group CMSIS_CORE */
 306:/home/bekeband/workspace/OLIMEX_Start/src/core_cm3.h **** 
 307:/home/bekeband/workspace/OLIMEX_Start/src/core_cm3.h **** 
 308:/home/bekeband/workspace/OLIMEX_Start/src/core_cm3.h **** /** \ingroup    CMSIS_core_register
 309:/home/bekeband/workspace/OLIMEX_Start/src/core_cm3.h ****     \defgroup   CMSIS_NVIC  Nested Vectored Interrupt Controller (NVIC)
 310:/home/bekeband/workspace/OLIMEX_Start/src/core_cm3.h ****     \brief      Type definitions for the NVIC Registers
 311:/home/bekeband/workspace/OLIMEX_Start/src/core_cm3.h ****   @{
 312:/home/bekeband/workspace/OLIMEX_Start/src/core_cm3.h ****  */
 313:/home/bekeband/workspace/OLIMEX_Start/src/core_cm3.h **** 
 314:/home/bekeband/workspace/OLIMEX_Start/src/core_cm3.h **** /** \brief  Structure type to access the Nested Vectored Interrupt Controller (NVIC).
 315:/home/bekeband/workspace/OLIMEX_Start/src/core_cm3.h ****  */
 316:/home/bekeband/workspace/OLIMEX_Start/src/core_cm3.h **** typedef struct
 317:/home/bekeband/workspace/OLIMEX_Start/src/core_cm3.h **** {
 318:/home/bekeband/workspace/OLIMEX_Start/src/core_cm3.h ****   __IO uint32_t ISER[8];                 /*!< Offset: 0x000 (R/W)  Interrupt Set Enable Register   
 319:/home/bekeband/workspace/OLIMEX_Start/src/core_cm3.h ****        uint32_t RESERVED0[24];
 320:/home/bekeband/workspace/OLIMEX_Start/src/core_cm3.h ****   __IO uint32_t ICER[8];                 /*!< Offset: 0x080 (R/W)  Interrupt Clear Enable Register 
 321:/home/bekeband/workspace/OLIMEX_Start/src/core_cm3.h ****        uint32_t RSERVED1[24];
 322:/home/bekeband/workspace/OLIMEX_Start/src/core_cm3.h ****   __IO uint32_t ISPR[8];                 /*!< Offset: 0x100 (R/W)  Interrupt Set Pending Register  
 323:/home/bekeband/workspace/OLIMEX_Start/src/core_cm3.h ****        uint32_t RESERVED2[24];
 324:/home/bekeband/workspace/OLIMEX_Start/src/core_cm3.h ****   __IO uint32_t ICPR[8];                 /*!< Offset: 0x180 (R/W)  Interrupt Clear Pending Register
 325:/home/bekeband/workspace/OLIMEX_Start/src/core_cm3.h ****        uint32_t RESERVED3[24];
 326:/home/bekeband/workspace/OLIMEX_Start/src/core_cm3.h ****   __IO uint32_t IABR[8];                 /*!< Offset: 0x200 (R/W)  Interrupt Active bit Register   
 327:/home/bekeband/workspace/OLIMEX_Start/src/core_cm3.h ****        uint32_t RESERVED4[56];
 328:/home/bekeband/workspace/OLIMEX_Start/src/core_cm3.h ****   __IO uint8_t  IP[240];                 /*!< Offset: 0x300 (R/W)  Interrupt Priority Register (8Bi
 329:/home/bekeband/workspace/OLIMEX_Start/src/core_cm3.h ****        uint32_t RESERVED5[644];
 330:/home/bekeband/workspace/OLIMEX_Start/src/core_cm3.h ****   __O  uint32_t STIR;                    /*!< Offset: 0xE00 ( /W)  Software Trigger Interrupt Regis
 331:/home/bekeband/workspace/OLIMEX_Start/src/core_cm3.h **** }  NVIC_Type;
 332:/home/bekeband/workspace/OLIMEX_Start/src/core_cm3.h **** 
 333:/home/bekeband/workspace/OLIMEX_Start/src/core_cm3.h **** /* Software Triggered Interrupt Register Definitions */
 334:/home/bekeband/workspace/OLIMEX_Start/src/core_cm3.h **** #define NVIC_STIR_INTID_Pos                 0                                          /*!< STIR: I
 335:/home/bekeband/workspace/OLIMEX_Start/src/core_cm3.h **** #define NVIC_STIR_INTID_Msk                (0x1FFUL << NVIC_STIR_INTID_Pos)            /*!< STIR: I
 336:/home/bekeband/workspace/OLIMEX_Start/src/core_cm3.h **** 
 337:/home/bekeband/workspace/OLIMEX_Start/src/core_cm3.h **** /*@} end of group CMSIS_NVIC */
 338:/home/bekeband/workspace/OLIMEX_Start/src/core_cm3.h **** 
 339:/home/bekeband/workspace/OLIMEX_Start/src/core_cm3.h **** 
 340:/home/bekeband/workspace/OLIMEX_Start/src/core_cm3.h **** /** \ingroup  CMSIS_core_register
 341:/home/bekeband/workspace/OLIMEX_Start/src/core_cm3.h ****     \defgroup CMSIS_SCB     System Control Block (SCB)
 342:/home/bekeband/workspace/OLIMEX_Start/src/core_cm3.h ****     \brief      Type definitions for the System Control Block Registers
 343:/home/bekeband/workspace/OLIMEX_Start/src/core_cm3.h ****   @{
 344:/home/bekeband/workspace/OLIMEX_Start/src/core_cm3.h ****  */
 345:/home/bekeband/workspace/OLIMEX_Start/src/core_cm3.h **** 
 346:/home/bekeband/workspace/OLIMEX_Start/src/core_cm3.h **** /** \brief  Structure type to access the System Control Block (SCB).
 347:/home/bekeband/workspace/OLIMEX_Start/src/core_cm3.h ****  */
 348:/home/bekeband/workspace/OLIMEX_Start/src/core_cm3.h **** typedef struct
 349:/home/bekeband/workspace/OLIMEX_Start/src/core_cm3.h **** {
 350:/home/bekeband/workspace/OLIMEX_Start/src/core_cm3.h ****   __I  uint32_t CPUID;                   /*!< Offset: 0x000 (R/ )  CPUID Base Register             
 351:/home/bekeband/workspace/OLIMEX_Start/src/core_cm3.h ****   __IO uint32_t ICSR;                    /*!< Offset: 0x004 (R/W)  Interrupt Control and State Regi
 352:/home/bekeband/workspace/OLIMEX_Start/src/core_cm3.h ****   __IO uint32_t VTOR;                    /*!< Offset: 0x008 (R/W)  Vector Table Offset Register    
 353:/home/bekeband/workspace/OLIMEX_Start/src/core_cm3.h ****   __IO uint32_t AIRCR;                   /*!< Offset: 0x00C (R/W)  Application Interrupt and Reset 
 354:/home/bekeband/workspace/OLIMEX_Start/src/core_cm3.h ****   __IO uint32_t SCR;                     /*!< Offset: 0x010 (R/W)  System Control Register         
 355:/home/bekeband/workspace/OLIMEX_Start/src/core_cm3.h ****   __IO uint32_t CCR;                     /*!< Offset: 0x014 (R/W)  Configuration Control Register  
 356:/home/bekeband/workspace/OLIMEX_Start/src/core_cm3.h ****   __IO uint8_t  SHP[12];                 /*!< Offset: 0x018 (R/W)  System Handlers Priority Registe
 357:/home/bekeband/workspace/OLIMEX_Start/src/core_cm3.h ****   __IO uint32_t SHCSR;                   /*!< Offset: 0x024 (R/W)  System Handler Control and State
 358:/home/bekeband/workspace/OLIMEX_Start/src/core_cm3.h ****   __IO uint32_t CFSR;                    /*!< Offset: 0x028 (R/W)  Configurable Fault Status Regist
 359:/home/bekeband/workspace/OLIMEX_Start/src/core_cm3.h ****   __IO uint32_t HFSR;                    /*!< Offset: 0x02C (R/W)  HardFault Status Register       
 360:/home/bekeband/workspace/OLIMEX_Start/src/core_cm3.h ****   __IO uint32_t DFSR;                    /*!< Offset: 0x030 (R/W)  Debug Fault Status Register     
 361:/home/bekeband/workspace/OLIMEX_Start/src/core_cm3.h ****   __IO uint32_t MMFAR;                   /*!< Offset: 0x034 (R/W)  MemManage Fault Address Register
 362:/home/bekeband/workspace/OLIMEX_Start/src/core_cm3.h ****   __IO uint32_t BFAR;                    /*!< Offset: 0x038 (R/W)  BusFault Address Register       
 363:/home/bekeband/workspace/OLIMEX_Start/src/core_cm3.h ****   __IO uint32_t AFSR;                    /*!< Offset: 0x03C (R/W)  Auxiliary Fault Status Register 
 364:/home/bekeband/workspace/OLIMEX_Start/src/core_cm3.h ****   __I  uint32_t PFR[2];                  /*!< Offset: 0x040 (R/ )  Processor Feature Register      
 365:/home/bekeband/workspace/OLIMEX_Start/src/core_cm3.h ****   __I  uint32_t DFR;                     /*!< Offset: 0x048 (R/ )  Debug Feature Register          
 366:/home/bekeband/workspace/OLIMEX_Start/src/core_cm3.h ****   __I  uint32_t ADR;                     /*!< Offset: 0x04C (R/ )  Auxiliary Feature Register      
 367:/home/bekeband/workspace/OLIMEX_Start/src/core_cm3.h ****   __I  uint32_t MMFR[4];                 /*!< Offset: 0x050 (R/ )  Memory Model Feature Register   
 368:/home/bekeband/workspace/OLIMEX_Start/src/core_cm3.h ****   __I  uint32_t ISAR[5];                 /*!< Offset: 0x060 (R/ )  Instruction Set Attributes Regis
 369:/home/bekeband/workspace/OLIMEX_Start/src/core_cm3.h ****        uint32_t RESERVED0[5];
 370:/home/bekeband/workspace/OLIMEX_Start/src/core_cm3.h ****   __IO uint32_t CPACR;                   /*!< Offset: 0x088 (R/W)  Coprocessor Access Control Regis
 371:/home/bekeband/workspace/OLIMEX_Start/src/core_cm3.h **** } SCB_Type;
 372:/home/bekeband/workspace/OLIMEX_Start/src/core_cm3.h **** 
 373:/home/bekeband/workspace/OLIMEX_Start/src/core_cm3.h **** /* SCB CPUID Register Definitions */
 374:/home/bekeband/workspace/OLIMEX_Start/src/core_cm3.h **** #define SCB_CPUID_IMPLEMENTER_Pos          24                                             /*!< SCB 
 375:/home/bekeband/workspace/OLIMEX_Start/src/core_cm3.h **** #define SCB_CPUID_IMPLEMENTER_Msk          (0xFFUL << SCB_CPUID_IMPLEMENTER_Pos)          /*!< SCB 
 376:/home/bekeband/workspace/OLIMEX_Start/src/core_cm3.h **** 
 377:/home/bekeband/workspace/OLIMEX_Start/src/core_cm3.h **** #define SCB_CPUID_VARIANT_Pos              20                                             /*!< SCB 
 378:/home/bekeband/workspace/OLIMEX_Start/src/core_cm3.h **** #define SCB_CPUID_VARIANT_Msk              (0xFUL << SCB_CPUID_VARIANT_Pos)               /*!< SCB 
 379:/home/bekeband/workspace/OLIMEX_Start/src/core_cm3.h **** 
 380:/home/bekeband/workspace/OLIMEX_Start/src/core_cm3.h **** #define SCB_CPUID_ARCHITECTURE_Pos         16                                             /*!< SCB 
 381:/home/bekeband/workspace/OLIMEX_Start/src/core_cm3.h **** #define SCB_CPUID_ARCHITECTURE_Msk         (0xFUL << SCB_CPUID_ARCHITECTURE_Pos)          /*!< SCB 
 382:/home/bekeband/workspace/OLIMEX_Start/src/core_cm3.h **** 
 383:/home/bekeband/workspace/OLIMEX_Start/src/core_cm3.h **** #define SCB_CPUID_PARTNO_Pos                4                                             /*!< SCB 
 384:/home/bekeband/workspace/OLIMEX_Start/src/core_cm3.h **** #define SCB_CPUID_PARTNO_Msk               (0xFFFUL << SCB_CPUID_PARTNO_Pos)              /*!< SCB 
 385:/home/bekeband/workspace/OLIMEX_Start/src/core_cm3.h **** 
 386:/home/bekeband/workspace/OLIMEX_Start/src/core_cm3.h **** #define SCB_CPUID_REVISION_Pos              0                                             /*!< SCB 
 387:/home/bekeband/workspace/OLIMEX_Start/src/core_cm3.h **** #define SCB_CPUID_REVISION_Msk             (0xFUL << SCB_CPUID_REVISION_Pos)              /*!< SCB 
 388:/home/bekeband/workspace/OLIMEX_Start/src/core_cm3.h **** 
 389:/home/bekeband/workspace/OLIMEX_Start/src/core_cm3.h **** /* SCB Interrupt Control State Register Definitions */
 390:/home/bekeband/workspace/OLIMEX_Start/src/core_cm3.h **** #define SCB_ICSR_NMIPENDSET_Pos            31                                             /*!< SCB 
 391:/home/bekeband/workspace/OLIMEX_Start/src/core_cm3.h **** #define SCB_ICSR_NMIPENDSET_Msk            (1UL << SCB_ICSR_NMIPENDSET_Pos)               /*!< SCB 
 392:/home/bekeband/workspace/OLIMEX_Start/src/core_cm3.h **** 
 393:/home/bekeband/workspace/OLIMEX_Start/src/core_cm3.h **** #define SCB_ICSR_PENDSVSET_Pos             28                                             /*!< SCB 
 394:/home/bekeband/workspace/OLIMEX_Start/src/core_cm3.h **** #define SCB_ICSR_PENDSVSET_Msk             (1UL << SCB_ICSR_PENDSVSET_Pos)                /*!< SCB 
 395:/home/bekeband/workspace/OLIMEX_Start/src/core_cm3.h **** 
 396:/home/bekeband/workspace/OLIMEX_Start/src/core_cm3.h **** #define SCB_ICSR_PENDSVCLR_Pos             27                                             /*!< SCB 
 397:/home/bekeband/workspace/OLIMEX_Start/src/core_cm3.h **** #define SCB_ICSR_PENDSVCLR_Msk             (1UL << SCB_ICSR_PENDSVCLR_Pos)                /*!< SCB 
 398:/home/bekeband/workspace/OLIMEX_Start/src/core_cm3.h **** 
 399:/home/bekeband/workspace/OLIMEX_Start/src/core_cm3.h **** #define SCB_ICSR_PENDSTSET_Pos             26                                             /*!< SCB 
 400:/home/bekeband/workspace/OLIMEX_Start/src/core_cm3.h **** #define SCB_ICSR_PENDSTSET_Msk             (1UL << SCB_ICSR_PENDSTSET_Pos)                /*!< SCB 
 401:/home/bekeband/workspace/OLIMEX_Start/src/core_cm3.h **** 
 402:/home/bekeband/workspace/OLIMEX_Start/src/core_cm3.h **** #define SCB_ICSR_PENDSTCLR_Pos             25                                             /*!< SCB 
 403:/home/bekeband/workspace/OLIMEX_Start/src/core_cm3.h **** #define SCB_ICSR_PENDSTCLR_Msk             (1UL << SCB_ICSR_PENDSTCLR_Pos)                /*!< SCB 
 404:/home/bekeband/workspace/OLIMEX_Start/src/core_cm3.h **** 
 405:/home/bekeband/workspace/OLIMEX_Start/src/core_cm3.h **** #define SCB_ICSR_ISRPREEMPT_Pos            23                                             /*!< SCB 
 406:/home/bekeband/workspace/OLIMEX_Start/src/core_cm3.h **** #define SCB_ICSR_ISRPREEMPT_Msk            (1UL << SCB_ICSR_ISRPREEMPT_Pos)               /*!< SCB 
 407:/home/bekeband/workspace/OLIMEX_Start/src/core_cm3.h **** 
 408:/home/bekeband/workspace/OLIMEX_Start/src/core_cm3.h **** #define SCB_ICSR_ISRPENDING_Pos            22                                             /*!< SCB 
 409:/home/bekeband/workspace/OLIMEX_Start/src/core_cm3.h **** #define SCB_ICSR_ISRPENDING_Msk            (1UL << SCB_ICSR_ISRPENDING_Pos)               /*!< SCB 
 410:/home/bekeband/workspace/OLIMEX_Start/src/core_cm3.h **** 
 411:/home/bekeband/workspace/OLIMEX_Start/src/core_cm3.h **** #define SCB_ICSR_VECTPENDING_Pos           12                                             /*!< SCB 
 412:/home/bekeband/workspace/OLIMEX_Start/src/core_cm3.h **** #define SCB_ICSR_VECTPENDING_Msk           (0x1FFUL << SCB_ICSR_VECTPENDING_Pos)          /*!< SCB 
 413:/home/bekeband/workspace/OLIMEX_Start/src/core_cm3.h **** 
 414:/home/bekeband/workspace/OLIMEX_Start/src/core_cm3.h **** #define SCB_ICSR_RETTOBASE_Pos             11                                             /*!< SCB 
 415:/home/bekeband/workspace/OLIMEX_Start/src/core_cm3.h **** #define SCB_ICSR_RETTOBASE_Msk             (1UL << SCB_ICSR_RETTOBASE_Pos)                /*!< SCB 
 416:/home/bekeband/workspace/OLIMEX_Start/src/core_cm3.h **** 
 417:/home/bekeband/workspace/OLIMEX_Start/src/core_cm3.h **** #define SCB_ICSR_VECTACTIVE_Pos             0                                             /*!< SCB 
 418:/home/bekeband/workspace/OLIMEX_Start/src/core_cm3.h **** #define SCB_ICSR_VECTACTIVE_Msk            (0x1FFUL << SCB_ICSR_VECTACTIVE_Pos)           /*!< SCB 
 419:/home/bekeband/workspace/OLIMEX_Start/src/core_cm3.h **** 
 420:/home/bekeband/workspace/OLIMEX_Start/src/core_cm3.h **** /* SCB Vector Table Offset Register Definitions */
 421:/home/bekeband/workspace/OLIMEX_Start/src/core_cm3.h **** #if (__CM3_REV < 0x0201)                   /* core r2p1 */
 422:/home/bekeband/workspace/OLIMEX_Start/src/core_cm3.h **** #define SCB_VTOR_TBLBASE_Pos               29                                             /*!< SCB 
 423:/home/bekeband/workspace/OLIMEX_Start/src/core_cm3.h **** #define SCB_VTOR_TBLBASE_Msk               (1UL << SCB_VTOR_TBLBASE_Pos)                  /*!< SCB 
 424:/home/bekeband/workspace/OLIMEX_Start/src/core_cm3.h **** 
 425:/home/bekeband/workspace/OLIMEX_Start/src/core_cm3.h **** #define SCB_VTOR_TBLOFF_Pos                 7                                             /*!< SCB 
 426:/home/bekeband/workspace/OLIMEX_Start/src/core_cm3.h **** #define SCB_VTOR_TBLOFF_Msk                (0x3FFFFFUL << SCB_VTOR_TBLOFF_Pos)            /*!< SCB 
 427:/home/bekeband/workspace/OLIMEX_Start/src/core_cm3.h **** #else
 428:/home/bekeband/workspace/OLIMEX_Start/src/core_cm3.h **** #define SCB_VTOR_TBLOFF_Pos                 7                                             /*!< SCB 
 429:/home/bekeband/workspace/OLIMEX_Start/src/core_cm3.h **** #define SCB_VTOR_TBLOFF_Msk                (0x1FFFFFFUL << SCB_VTOR_TBLOFF_Pos)           /*!< SCB 
 430:/home/bekeband/workspace/OLIMEX_Start/src/core_cm3.h **** #endif
 431:/home/bekeband/workspace/OLIMEX_Start/src/core_cm3.h **** 
 432:/home/bekeband/workspace/OLIMEX_Start/src/core_cm3.h **** /* SCB Application Interrupt and Reset Control Register Definitions */
 433:/home/bekeband/workspace/OLIMEX_Start/src/core_cm3.h **** #define SCB_AIRCR_VECTKEY_Pos              16                                             /*!< SCB 
 434:/home/bekeband/workspace/OLIMEX_Start/src/core_cm3.h **** #define SCB_AIRCR_VECTKEY_Msk              (0xFFFFUL << SCB_AIRCR_VECTKEY_Pos)            /*!< SCB 
 435:/home/bekeband/workspace/OLIMEX_Start/src/core_cm3.h **** 
 436:/home/bekeband/workspace/OLIMEX_Start/src/core_cm3.h **** #define SCB_AIRCR_VECTKEYSTAT_Pos          16                                             /*!< SCB 
 437:/home/bekeband/workspace/OLIMEX_Start/src/core_cm3.h **** #define SCB_AIRCR_VECTKEYSTAT_Msk          (0xFFFFUL << SCB_AIRCR_VECTKEYSTAT_Pos)        /*!< SCB 
 438:/home/bekeband/workspace/OLIMEX_Start/src/core_cm3.h **** 
 439:/home/bekeband/workspace/OLIMEX_Start/src/core_cm3.h **** #define SCB_AIRCR_ENDIANESS_Pos            15                                             /*!< SCB 
 440:/home/bekeband/workspace/OLIMEX_Start/src/core_cm3.h **** #define SCB_AIRCR_ENDIANESS_Msk            (1UL << SCB_AIRCR_ENDIANESS_Pos)               /*!< SCB 
 441:/home/bekeband/workspace/OLIMEX_Start/src/core_cm3.h **** 
 442:/home/bekeband/workspace/OLIMEX_Start/src/core_cm3.h **** #define SCB_AIRCR_PRIGROUP_Pos              8                                             /*!< SCB 
 443:/home/bekeband/workspace/OLIMEX_Start/src/core_cm3.h **** #define SCB_AIRCR_PRIGROUP_Msk             (7UL << SCB_AIRCR_PRIGROUP_Pos)                /*!< SCB 
 444:/home/bekeband/workspace/OLIMEX_Start/src/core_cm3.h **** 
 445:/home/bekeband/workspace/OLIMEX_Start/src/core_cm3.h **** #define SCB_AIRCR_SYSRESETREQ_Pos           2                                             /*!< SCB 
 446:/home/bekeband/workspace/OLIMEX_Start/src/core_cm3.h **** #define SCB_AIRCR_SYSRESETREQ_Msk          (1UL << SCB_AIRCR_SYSRESETREQ_Pos)             /*!< SCB 
 447:/home/bekeband/workspace/OLIMEX_Start/src/core_cm3.h **** 
 448:/home/bekeband/workspace/OLIMEX_Start/src/core_cm3.h **** #define SCB_AIRCR_VECTCLRACTIVE_Pos         1                                             /*!< SCB 
 449:/home/bekeband/workspace/OLIMEX_Start/src/core_cm3.h **** #define SCB_AIRCR_VECTCLRACTIVE_Msk        (1UL << SCB_AIRCR_VECTCLRACTIVE_Pos)           /*!< SCB 
 450:/home/bekeband/workspace/OLIMEX_Start/src/core_cm3.h **** 
 451:/home/bekeband/workspace/OLIMEX_Start/src/core_cm3.h **** #define SCB_AIRCR_VECTRESET_Pos             0                                             /*!< SCB 
 452:/home/bekeband/workspace/OLIMEX_Start/src/core_cm3.h **** #define SCB_AIRCR_VECTRESET_Msk            (1UL << SCB_AIRCR_VECTRESET_Pos)               /*!< SCB 
 453:/home/bekeband/workspace/OLIMEX_Start/src/core_cm3.h **** 
 454:/home/bekeband/workspace/OLIMEX_Start/src/core_cm3.h **** /* SCB System Control Register Definitions */
 455:/home/bekeband/workspace/OLIMEX_Start/src/core_cm3.h **** #define SCB_SCR_SEVONPEND_Pos               4                                             /*!< SCB 
 456:/home/bekeband/workspace/OLIMEX_Start/src/core_cm3.h **** #define SCB_SCR_SEVONPEND_Msk              (1UL << SCB_SCR_SEVONPEND_Pos)                 /*!< SCB 
 457:/home/bekeband/workspace/OLIMEX_Start/src/core_cm3.h **** 
 458:/home/bekeband/workspace/OLIMEX_Start/src/core_cm3.h **** #define SCB_SCR_SLEEPDEEP_Pos               2                                             /*!< SCB 
 459:/home/bekeband/workspace/OLIMEX_Start/src/core_cm3.h **** #define SCB_SCR_SLEEPDEEP_Msk              (1UL << SCB_SCR_SLEEPDEEP_Pos)                 /*!< SCB 
 460:/home/bekeband/workspace/OLIMEX_Start/src/core_cm3.h **** 
 461:/home/bekeband/workspace/OLIMEX_Start/src/core_cm3.h **** #define SCB_SCR_SLEEPONEXIT_Pos             1                                             /*!< SCB 
 462:/home/bekeband/workspace/OLIMEX_Start/src/core_cm3.h **** #define SCB_SCR_SLEEPONEXIT_Msk            (1UL << SCB_SCR_SLEEPONEXIT_Pos)               /*!< SCB 
 463:/home/bekeband/workspace/OLIMEX_Start/src/core_cm3.h **** 
 464:/home/bekeband/workspace/OLIMEX_Start/src/core_cm3.h **** /* SCB Configuration Control Register Definitions */
 465:/home/bekeband/workspace/OLIMEX_Start/src/core_cm3.h **** #define SCB_CCR_STKALIGN_Pos                9                                             /*!< SCB 
 466:/home/bekeband/workspace/OLIMEX_Start/src/core_cm3.h **** #define SCB_CCR_STKALIGN_Msk               (1UL << SCB_CCR_STKALIGN_Pos)                  /*!< SCB 
 467:/home/bekeband/workspace/OLIMEX_Start/src/core_cm3.h **** 
 468:/home/bekeband/workspace/OLIMEX_Start/src/core_cm3.h **** #define SCB_CCR_BFHFNMIGN_Pos               8                                             /*!< SCB 
 469:/home/bekeband/workspace/OLIMEX_Start/src/core_cm3.h **** #define SCB_CCR_BFHFNMIGN_Msk              (1UL << SCB_CCR_BFHFNMIGN_Pos)                 /*!< SCB 
 470:/home/bekeband/workspace/OLIMEX_Start/src/core_cm3.h **** 
 471:/home/bekeband/workspace/OLIMEX_Start/src/core_cm3.h **** #define SCB_CCR_DIV_0_TRP_Pos               4                                             /*!< SCB 
 472:/home/bekeband/workspace/OLIMEX_Start/src/core_cm3.h **** #define SCB_CCR_DIV_0_TRP_Msk              (1UL << SCB_CCR_DIV_0_TRP_Pos)                 /*!< SCB 
 473:/home/bekeband/workspace/OLIMEX_Start/src/core_cm3.h **** 
 474:/home/bekeband/workspace/OLIMEX_Start/src/core_cm3.h **** #define SCB_CCR_UNALIGN_TRP_Pos             3                                             /*!< SCB 
 475:/home/bekeband/workspace/OLIMEX_Start/src/core_cm3.h **** #define SCB_CCR_UNALIGN_TRP_Msk            (1UL << SCB_CCR_UNALIGN_TRP_Pos)               /*!< SCB 
 476:/home/bekeband/workspace/OLIMEX_Start/src/core_cm3.h **** 
 477:/home/bekeband/workspace/OLIMEX_Start/src/core_cm3.h **** #define SCB_CCR_USERSETMPEND_Pos            1                                             /*!< SCB 
 478:/home/bekeband/workspace/OLIMEX_Start/src/core_cm3.h **** #define SCB_CCR_USERSETMPEND_Msk           (1UL << SCB_CCR_USERSETMPEND_Pos)              /*!< SCB 
 479:/home/bekeband/workspace/OLIMEX_Start/src/core_cm3.h **** 
 480:/home/bekeband/workspace/OLIMEX_Start/src/core_cm3.h **** #define SCB_CCR_NONBASETHRDENA_Pos          0                                             /*!< SCB 
 481:/home/bekeband/workspace/OLIMEX_Start/src/core_cm3.h **** #define SCB_CCR_NONBASETHRDENA_Msk         (1UL << SCB_CCR_NONBASETHRDENA_Pos)            /*!< SCB 
 482:/home/bekeband/workspace/OLIMEX_Start/src/core_cm3.h **** 
 483:/home/bekeband/workspace/OLIMEX_Start/src/core_cm3.h **** /* SCB System Handler Control and State Register Definitions */
 484:/home/bekeband/workspace/OLIMEX_Start/src/core_cm3.h **** #define SCB_SHCSR_USGFAULTENA_Pos          18                                             /*!< SCB 
 485:/home/bekeband/workspace/OLIMEX_Start/src/core_cm3.h **** #define SCB_SHCSR_USGFAULTENA_Msk          (1UL << SCB_SHCSR_USGFAULTENA_Pos)             /*!< SCB 
 486:/home/bekeband/workspace/OLIMEX_Start/src/core_cm3.h **** 
 487:/home/bekeband/workspace/OLIMEX_Start/src/core_cm3.h **** #define SCB_SHCSR_BUSFAULTENA_Pos          17                                             /*!< SCB 
 488:/home/bekeband/workspace/OLIMEX_Start/src/core_cm3.h **** #define SCB_SHCSR_BUSFAULTENA_Msk          (1UL << SCB_SHCSR_BUSFAULTENA_Pos)             /*!< SCB 
 489:/home/bekeband/workspace/OLIMEX_Start/src/core_cm3.h **** 
 490:/home/bekeband/workspace/OLIMEX_Start/src/core_cm3.h **** #define SCB_SHCSR_MEMFAULTENA_Pos          16                                             /*!< SCB 
 491:/home/bekeband/workspace/OLIMEX_Start/src/core_cm3.h **** #define SCB_SHCSR_MEMFAULTENA_Msk          (1UL << SCB_SHCSR_MEMFAULTENA_Pos)             /*!< SCB 
 492:/home/bekeband/workspace/OLIMEX_Start/src/core_cm3.h **** 
 493:/home/bekeband/workspace/OLIMEX_Start/src/core_cm3.h **** #define SCB_SHCSR_SVCALLPENDED_Pos         15                                             /*!< SCB 
 494:/home/bekeband/workspace/OLIMEX_Start/src/core_cm3.h **** #define SCB_SHCSR_SVCALLPENDED_Msk         (1UL << SCB_SHCSR_SVCALLPENDED_Pos)            /*!< SCB 
 495:/home/bekeband/workspace/OLIMEX_Start/src/core_cm3.h **** 
 496:/home/bekeband/workspace/OLIMEX_Start/src/core_cm3.h **** #define SCB_SHCSR_BUSFAULTPENDED_Pos       14                                             /*!< SCB 
 497:/home/bekeband/workspace/OLIMEX_Start/src/core_cm3.h **** #define SCB_SHCSR_BUSFAULTPENDED_Msk       (1UL << SCB_SHCSR_BUSFAULTPENDED_Pos)          /*!< SCB 
 498:/home/bekeband/workspace/OLIMEX_Start/src/core_cm3.h **** 
 499:/home/bekeband/workspace/OLIMEX_Start/src/core_cm3.h **** #define SCB_SHCSR_MEMFAULTPENDED_Pos       13                                             /*!< SCB 
 500:/home/bekeband/workspace/OLIMEX_Start/src/core_cm3.h **** #define SCB_SHCSR_MEMFAULTPENDED_Msk       (1UL << SCB_SHCSR_MEMFAULTPENDED_Pos)          /*!< SCB 
 501:/home/bekeband/workspace/OLIMEX_Start/src/core_cm3.h **** 
 502:/home/bekeband/workspace/OLIMEX_Start/src/core_cm3.h **** #define SCB_SHCSR_USGFAULTPENDED_Pos       12                                             /*!< SCB 
 503:/home/bekeband/workspace/OLIMEX_Start/src/core_cm3.h **** #define SCB_SHCSR_USGFAULTPENDED_Msk       (1UL << SCB_SHCSR_USGFAULTPENDED_Pos)          /*!< SCB 
 504:/home/bekeband/workspace/OLIMEX_Start/src/core_cm3.h **** 
 505:/home/bekeband/workspace/OLIMEX_Start/src/core_cm3.h **** #define SCB_SHCSR_SYSTICKACT_Pos           11                                             /*!< SCB 
 506:/home/bekeband/workspace/OLIMEX_Start/src/core_cm3.h **** #define SCB_SHCSR_SYSTICKACT_Msk           (1UL << SCB_SHCSR_SYSTICKACT_Pos)              /*!< SCB 
 507:/home/bekeband/workspace/OLIMEX_Start/src/core_cm3.h **** 
 508:/home/bekeband/workspace/OLIMEX_Start/src/core_cm3.h **** #define SCB_SHCSR_PENDSVACT_Pos            10                                             /*!< SCB 
 509:/home/bekeband/workspace/OLIMEX_Start/src/core_cm3.h **** #define SCB_SHCSR_PENDSVACT_Msk            (1UL << SCB_SHCSR_PENDSVACT_Pos)               /*!< SCB 
 510:/home/bekeband/workspace/OLIMEX_Start/src/core_cm3.h **** 
 511:/home/bekeband/workspace/OLIMEX_Start/src/core_cm3.h **** #define SCB_SHCSR_MONITORACT_Pos            8                                             /*!< SCB 
 512:/home/bekeband/workspace/OLIMEX_Start/src/core_cm3.h **** #define SCB_SHCSR_MONITORACT_Msk           (1UL << SCB_SHCSR_MONITORACT_Pos)              /*!< SCB 
 513:/home/bekeband/workspace/OLIMEX_Start/src/core_cm3.h **** 
 514:/home/bekeband/workspace/OLIMEX_Start/src/core_cm3.h **** #define SCB_SHCSR_SVCALLACT_Pos             7                                             /*!< SCB 
 515:/home/bekeband/workspace/OLIMEX_Start/src/core_cm3.h **** #define SCB_SHCSR_SVCALLACT_Msk            (1UL << SCB_SHCSR_SVCALLACT_Pos)               /*!< SCB 
 516:/home/bekeband/workspace/OLIMEX_Start/src/core_cm3.h **** 
 517:/home/bekeband/workspace/OLIMEX_Start/src/core_cm3.h **** #define SCB_SHCSR_USGFAULTACT_Pos           3                                             /*!< SCB 
 518:/home/bekeband/workspace/OLIMEX_Start/src/core_cm3.h **** #define SCB_SHCSR_USGFAULTACT_Msk          (1UL << SCB_SHCSR_USGFAULTACT_Pos)             /*!< SCB 
 519:/home/bekeband/workspace/OLIMEX_Start/src/core_cm3.h **** 
 520:/home/bekeband/workspace/OLIMEX_Start/src/core_cm3.h **** #define SCB_SHCSR_BUSFAULTACT_Pos           1                                             /*!< SCB 
 521:/home/bekeband/workspace/OLIMEX_Start/src/core_cm3.h **** #define SCB_SHCSR_BUSFAULTACT_Msk          (1UL << SCB_SHCSR_BUSFAULTACT_Pos)             /*!< SCB 
 522:/home/bekeband/workspace/OLIMEX_Start/src/core_cm3.h **** 
 523:/home/bekeband/workspace/OLIMEX_Start/src/core_cm3.h **** #define SCB_SHCSR_MEMFAULTACT_Pos           0                                             /*!< SCB 
 524:/home/bekeband/workspace/OLIMEX_Start/src/core_cm3.h **** #define SCB_SHCSR_MEMFAULTACT_Msk          (1UL << SCB_SHCSR_MEMFAULTACT_Pos)             /*!< SCB 
 525:/home/bekeband/workspace/OLIMEX_Start/src/core_cm3.h **** 
 526:/home/bekeband/workspace/OLIMEX_Start/src/core_cm3.h **** /* SCB Configurable Fault Status Registers Definitions */
 527:/home/bekeband/workspace/OLIMEX_Start/src/core_cm3.h **** #define SCB_CFSR_USGFAULTSR_Pos            16                                             /*!< SCB 
 528:/home/bekeband/workspace/OLIMEX_Start/src/core_cm3.h **** #define SCB_CFSR_USGFAULTSR_Msk            (0xFFFFUL << SCB_CFSR_USGFAULTSR_Pos)          /*!< SCB 
 529:/home/bekeband/workspace/OLIMEX_Start/src/core_cm3.h **** 
 530:/home/bekeband/workspace/OLIMEX_Start/src/core_cm3.h **** #define SCB_CFSR_BUSFAULTSR_Pos             8                                             /*!< SCB 
 531:/home/bekeband/workspace/OLIMEX_Start/src/core_cm3.h **** #define SCB_CFSR_BUSFAULTSR_Msk            (0xFFUL << SCB_CFSR_BUSFAULTSR_Pos)            /*!< SCB 
 532:/home/bekeband/workspace/OLIMEX_Start/src/core_cm3.h **** 
 533:/home/bekeband/workspace/OLIMEX_Start/src/core_cm3.h **** #define SCB_CFSR_MEMFAULTSR_Pos             0                                             /*!< SCB 
 534:/home/bekeband/workspace/OLIMEX_Start/src/core_cm3.h **** #define SCB_CFSR_MEMFAULTSR_Msk            (0xFFUL << SCB_CFSR_MEMFAULTSR_Pos)            /*!< SCB 
 535:/home/bekeband/workspace/OLIMEX_Start/src/core_cm3.h **** 
 536:/home/bekeband/workspace/OLIMEX_Start/src/core_cm3.h **** /* SCB Hard Fault Status Registers Definitions */
 537:/home/bekeband/workspace/OLIMEX_Start/src/core_cm3.h **** #define SCB_HFSR_DEBUGEVT_Pos              31                                             /*!< SCB 
 538:/home/bekeband/workspace/OLIMEX_Start/src/core_cm3.h **** #define SCB_HFSR_DEBUGEVT_Msk              (1UL << SCB_HFSR_DEBUGEVT_Pos)                 /*!< SCB 
 539:/home/bekeband/workspace/OLIMEX_Start/src/core_cm3.h **** 
 540:/home/bekeband/workspace/OLIMEX_Start/src/core_cm3.h **** #define SCB_HFSR_FORCED_Pos                30                                             /*!< SCB 
 541:/home/bekeband/workspace/OLIMEX_Start/src/core_cm3.h **** #define SCB_HFSR_FORCED_Msk                (1UL << SCB_HFSR_FORCED_Pos)                   /*!< SCB 
 542:/home/bekeband/workspace/OLIMEX_Start/src/core_cm3.h **** 
 543:/home/bekeband/workspace/OLIMEX_Start/src/core_cm3.h **** #define SCB_HFSR_VECTTBL_Pos                1                                             /*!< SCB 
 544:/home/bekeband/workspace/OLIMEX_Start/src/core_cm3.h **** #define SCB_HFSR_VECTTBL_Msk               (1UL << SCB_HFSR_VECTTBL_Pos)                  /*!< SCB 
 545:/home/bekeband/workspace/OLIMEX_Start/src/core_cm3.h **** 
 546:/home/bekeband/workspace/OLIMEX_Start/src/core_cm3.h **** /* SCB Debug Fault Status Register Definitions */
 547:/home/bekeband/workspace/OLIMEX_Start/src/core_cm3.h **** #define SCB_DFSR_EXTERNAL_Pos               4                                             /*!< SCB 
 548:/home/bekeband/workspace/OLIMEX_Start/src/core_cm3.h **** #define SCB_DFSR_EXTERNAL_Msk              (1UL << SCB_DFSR_EXTERNAL_Pos)                 /*!< SCB 
 549:/home/bekeband/workspace/OLIMEX_Start/src/core_cm3.h **** 
 550:/home/bekeband/workspace/OLIMEX_Start/src/core_cm3.h **** #define SCB_DFSR_VCATCH_Pos                 3                                             /*!< SCB 
 551:/home/bekeband/workspace/OLIMEX_Start/src/core_cm3.h **** #define SCB_DFSR_VCATCH_Msk                (1UL << SCB_DFSR_VCATCH_Pos)                   /*!< SCB 
 552:/home/bekeband/workspace/OLIMEX_Start/src/core_cm3.h **** 
 553:/home/bekeband/workspace/OLIMEX_Start/src/core_cm3.h **** #define SCB_DFSR_DWTTRAP_Pos                2                                             /*!< SCB 
 554:/home/bekeband/workspace/OLIMEX_Start/src/core_cm3.h **** #define SCB_DFSR_DWTTRAP_Msk               (1UL << SCB_DFSR_DWTTRAP_Pos)                  /*!< SCB 
 555:/home/bekeband/workspace/OLIMEX_Start/src/core_cm3.h **** 
 556:/home/bekeband/workspace/OLIMEX_Start/src/core_cm3.h **** #define SCB_DFSR_BKPT_Pos                   1                                             /*!< SCB 
 557:/home/bekeband/workspace/OLIMEX_Start/src/core_cm3.h **** #define SCB_DFSR_BKPT_Msk                  (1UL << SCB_DFSR_BKPT_Pos)                     /*!< SCB 
 558:/home/bekeband/workspace/OLIMEX_Start/src/core_cm3.h **** 
 559:/home/bekeband/workspace/OLIMEX_Start/src/core_cm3.h **** #define SCB_DFSR_HALTED_Pos                 0                                             /*!< SCB 
 560:/home/bekeband/workspace/OLIMEX_Start/src/core_cm3.h **** #define SCB_DFSR_HALTED_Msk                (1UL << SCB_DFSR_HALTED_Pos)                   /*!< SCB 
 561:/home/bekeband/workspace/OLIMEX_Start/src/core_cm3.h **** 
 562:/home/bekeband/workspace/OLIMEX_Start/src/core_cm3.h **** /*@} end of group CMSIS_SCB */
 563:/home/bekeband/workspace/OLIMEX_Start/src/core_cm3.h **** 
 564:/home/bekeband/workspace/OLIMEX_Start/src/core_cm3.h **** 
 565:/home/bekeband/workspace/OLIMEX_Start/src/core_cm3.h **** /** \ingroup  CMSIS_core_register
 566:/home/bekeband/workspace/OLIMEX_Start/src/core_cm3.h ****     \defgroup CMSIS_SCnSCB System Controls not in SCB (SCnSCB)
 567:/home/bekeband/workspace/OLIMEX_Start/src/core_cm3.h ****     \brief      Type definitions for the System Control and ID Register not in the SCB
 568:/home/bekeband/workspace/OLIMEX_Start/src/core_cm3.h ****   @{
 569:/home/bekeband/workspace/OLIMEX_Start/src/core_cm3.h ****  */
 570:/home/bekeband/workspace/OLIMEX_Start/src/core_cm3.h **** 
 571:/home/bekeband/workspace/OLIMEX_Start/src/core_cm3.h **** /** \brief  Structure type to access the System Control and ID Register not in the SCB.
 572:/home/bekeband/workspace/OLIMEX_Start/src/core_cm3.h ****  */
 573:/home/bekeband/workspace/OLIMEX_Start/src/core_cm3.h **** typedef struct
 574:/home/bekeband/workspace/OLIMEX_Start/src/core_cm3.h **** {
 575:/home/bekeband/workspace/OLIMEX_Start/src/core_cm3.h ****        uint32_t RESERVED0[1];
 576:/home/bekeband/workspace/OLIMEX_Start/src/core_cm3.h ****   __I  uint32_t ICTR;                    /*!< Offset: 0x004 (R/ )  Interrupt Controller Type Regist
 577:/home/bekeband/workspace/OLIMEX_Start/src/core_cm3.h **** #if ((defined __CM3_REV) && (__CM3_REV >= 0x200))
 578:/home/bekeband/workspace/OLIMEX_Start/src/core_cm3.h ****   __IO uint32_t ACTLR;                   /*!< Offset: 0x008 (R/W)  Auxiliary Control Register      
 579:/home/bekeband/workspace/OLIMEX_Start/src/core_cm3.h **** #else
 580:/home/bekeband/workspace/OLIMEX_Start/src/core_cm3.h ****        uint32_t RESERVED1[1];
 581:/home/bekeband/workspace/OLIMEX_Start/src/core_cm3.h **** #endif
 582:/home/bekeband/workspace/OLIMEX_Start/src/core_cm3.h **** } SCnSCB_Type;
 583:/home/bekeband/workspace/OLIMEX_Start/src/core_cm3.h **** 
 584:/home/bekeband/workspace/OLIMEX_Start/src/core_cm3.h **** /* Interrupt Controller Type Register Definitions */
 585:/home/bekeband/workspace/OLIMEX_Start/src/core_cm3.h **** #define SCnSCB_ICTR_INTLINESNUM_Pos         0                                          /*!< ICTR: I
 586:/home/bekeband/workspace/OLIMEX_Start/src/core_cm3.h **** #define SCnSCB_ICTR_INTLINESNUM_Msk        (0xFUL << SCnSCB_ICTR_INTLINESNUM_Pos)      /*!< ICTR: I
 587:/home/bekeband/workspace/OLIMEX_Start/src/core_cm3.h **** 
 588:/home/bekeband/workspace/OLIMEX_Start/src/core_cm3.h **** /* Auxiliary Control Register Definitions */
 589:/home/bekeband/workspace/OLIMEX_Start/src/core_cm3.h **** 
 590:/home/bekeband/workspace/OLIMEX_Start/src/core_cm3.h **** #define SCnSCB_ACTLR_DISFOLD_Pos            2                                          /*!< ACTLR: 
 591:/home/bekeband/workspace/OLIMEX_Start/src/core_cm3.h **** #define SCnSCB_ACTLR_DISFOLD_Msk           (1UL << SCnSCB_ACTLR_DISFOLD_Pos)           /*!< ACTLR: 
 592:/home/bekeband/workspace/OLIMEX_Start/src/core_cm3.h **** 
 593:/home/bekeband/workspace/OLIMEX_Start/src/core_cm3.h **** #define SCnSCB_ACTLR_DISDEFWBUF_Pos         1                                          /*!< ACTLR: 
 594:/home/bekeband/workspace/OLIMEX_Start/src/core_cm3.h **** #define SCnSCB_ACTLR_DISDEFWBUF_Msk        (1UL << SCnSCB_ACTLR_DISDEFWBUF_Pos)        /*!< ACTLR: 
 595:/home/bekeband/workspace/OLIMEX_Start/src/core_cm3.h **** 
 596:/home/bekeband/workspace/OLIMEX_Start/src/core_cm3.h **** #define SCnSCB_ACTLR_DISMCYCINT_Pos         0                                          /*!< ACTLR: 
 597:/home/bekeband/workspace/OLIMEX_Start/src/core_cm3.h **** #define SCnSCB_ACTLR_DISMCYCINT_Msk        (1UL << SCnSCB_ACTLR_DISMCYCINT_Pos)        /*!< ACTLR: 
 598:/home/bekeband/workspace/OLIMEX_Start/src/core_cm3.h **** 
 599:/home/bekeband/workspace/OLIMEX_Start/src/core_cm3.h **** /*@} end of group CMSIS_SCnotSCB */
 600:/home/bekeband/workspace/OLIMEX_Start/src/core_cm3.h **** 
 601:/home/bekeband/workspace/OLIMEX_Start/src/core_cm3.h **** 
 602:/home/bekeband/workspace/OLIMEX_Start/src/core_cm3.h **** /** \ingroup  CMSIS_core_register
 603:/home/bekeband/workspace/OLIMEX_Start/src/core_cm3.h ****     \defgroup CMSIS_SysTick     System Tick Timer (SysTick)
 604:/home/bekeband/workspace/OLIMEX_Start/src/core_cm3.h ****     \brief      Type definitions for the System Timer Registers.
 605:/home/bekeband/workspace/OLIMEX_Start/src/core_cm3.h ****   @{
 606:/home/bekeband/workspace/OLIMEX_Start/src/core_cm3.h ****  */
 607:/home/bekeband/workspace/OLIMEX_Start/src/core_cm3.h **** 
 608:/home/bekeband/workspace/OLIMEX_Start/src/core_cm3.h **** /** \brief  Structure type to access the System Timer (SysTick).
 609:/home/bekeband/workspace/OLIMEX_Start/src/core_cm3.h ****  */
 610:/home/bekeband/workspace/OLIMEX_Start/src/core_cm3.h **** typedef struct
 611:/home/bekeband/workspace/OLIMEX_Start/src/core_cm3.h **** {
 612:/home/bekeband/workspace/OLIMEX_Start/src/core_cm3.h ****   __IO uint32_t CTRL;                    /*!< Offset: 0x000 (R/W)  SysTick Control and Status Regis
 613:/home/bekeband/workspace/OLIMEX_Start/src/core_cm3.h ****   __IO uint32_t LOAD;                    /*!< Offset: 0x004 (R/W)  SysTick Reload Value Register   
 614:/home/bekeband/workspace/OLIMEX_Start/src/core_cm3.h ****   __IO uint32_t VAL;                     /*!< Offset: 0x008 (R/W)  SysTick Current Value Register  
 615:/home/bekeband/workspace/OLIMEX_Start/src/core_cm3.h ****   __I  uint32_t CALIB;                   /*!< Offset: 0x00C (R/ )  SysTick Calibration Register    
 616:/home/bekeband/workspace/OLIMEX_Start/src/core_cm3.h **** } SysTick_Type;
 617:/home/bekeband/workspace/OLIMEX_Start/src/core_cm3.h **** 
 618:/home/bekeband/workspace/OLIMEX_Start/src/core_cm3.h **** /* SysTick Control / Status Register Definitions */
 619:/home/bekeband/workspace/OLIMEX_Start/src/core_cm3.h **** #define SysTick_CTRL_COUNTFLAG_Pos         16                                             /*!< SysT
 620:/home/bekeband/workspace/OLIMEX_Start/src/core_cm3.h **** #define SysTick_CTRL_COUNTFLAG_Msk         (1UL << SysTick_CTRL_COUNTFLAG_Pos)            /*!< SysT
 621:/home/bekeband/workspace/OLIMEX_Start/src/core_cm3.h **** 
 622:/home/bekeband/workspace/OLIMEX_Start/src/core_cm3.h **** #define SysTick_CTRL_CLKSOURCE_Pos          2                                             /*!< SysT
 623:/home/bekeband/workspace/OLIMEX_Start/src/core_cm3.h **** #define SysTick_CTRL_CLKSOURCE_Msk         (1UL << SysTick_CTRL_CLKSOURCE_Pos)            /*!< SysT
 624:/home/bekeband/workspace/OLIMEX_Start/src/core_cm3.h **** 
 625:/home/bekeband/workspace/OLIMEX_Start/src/core_cm3.h **** #define SysTick_CTRL_TICKINT_Pos            1                                             /*!< SysT
 626:/home/bekeband/workspace/OLIMEX_Start/src/core_cm3.h **** #define SysTick_CTRL_TICKINT_Msk           (1UL << SysTick_CTRL_TICKINT_Pos)              /*!< SysT
 627:/home/bekeband/workspace/OLIMEX_Start/src/core_cm3.h **** 
 628:/home/bekeband/workspace/OLIMEX_Start/src/core_cm3.h **** #define SysTick_CTRL_ENABLE_Pos             0                                             /*!< SysT
 629:/home/bekeband/workspace/OLIMEX_Start/src/core_cm3.h **** #define SysTick_CTRL_ENABLE_Msk            (1UL << SysTick_CTRL_ENABLE_Pos)               /*!< SysT
 630:/home/bekeband/workspace/OLIMEX_Start/src/core_cm3.h **** 
 631:/home/bekeband/workspace/OLIMEX_Start/src/core_cm3.h **** /* SysTick Reload Register Definitions */
 632:/home/bekeband/workspace/OLIMEX_Start/src/core_cm3.h **** #define SysTick_LOAD_RELOAD_Pos             0                                             /*!< SysT
 633:/home/bekeband/workspace/OLIMEX_Start/src/core_cm3.h **** #define SysTick_LOAD_RELOAD_Msk            (0xFFFFFFUL << SysTick_LOAD_RELOAD_Pos)        /*!< SysT
 634:/home/bekeband/workspace/OLIMEX_Start/src/core_cm3.h **** 
 635:/home/bekeband/workspace/OLIMEX_Start/src/core_cm3.h **** /* SysTick Current Register Definitions */
 636:/home/bekeband/workspace/OLIMEX_Start/src/core_cm3.h **** #define SysTick_VAL_CURRENT_Pos             0                                             /*!< SysT
 637:/home/bekeband/workspace/OLIMEX_Start/src/core_cm3.h **** #define SysTick_VAL_CURRENT_Msk            (0xFFFFFFUL << SysTick_VAL_CURRENT_Pos)        /*!< SysT
 638:/home/bekeband/workspace/OLIMEX_Start/src/core_cm3.h **** 
 639:/home/bekeband/workspace/OLIMEX_Start/src/core_cm3.h **** /* SysTick Calibration Register Definitions */
 640:/home/bekeband/workspace/OLIMEX_Start/src/core_cm3.h **** #define SysTick_CALIB_NOREF_Pos            31                                             /*!< SysT
 641:/home/bekeband/workspace/OLIMEX_Start/src/core_cm3.h **** #define SysTick_CALIB_NOREF_Msk            (1UL << SysTick_CALIB_NOREF_Pos)               /*!< SysT
 642:/home/bekeband/workspace/OLIMEX_Start/src/core_cm3.h **** 
 643:/home/bekeband/workspace/OLIMEX_Start/src/core_cm3.h **** #define SysTick_CALIB_SKEW_Pos             30                                             /*!< SysT
 644:/home/bekeband/workspace/OLIMEX_Start/src/core_cm3.h **** #define SysTick_CALIB_SKEW_Msk             (1UL << SysTick_CALIB_SKEW_Pos)                /*!< SysT
 645:/home/bekeband/workspace/OLIMEX_Start/src/core_cm3.h **** 
 646:/home/bekeband/workspace/OLIMEX_Start/src/core_cm3.h **** #define SysTick_CALIB_TENMS_Pos             0                                             /*!< SysT
 647:/home/bekeband/workspace/OLIMEX_Start/src/core_cm3.h **** #define SysTick_CALIB_TENMS_Msk            (0xFFFFFFUL << SysTick_CALIB_TENMS_Pos)        /*!< SysT
 648:/home/bekeband/workspace/OLIMEX_Start/src/core_cm3.h **** 
 649:/home/bekeband/workspace/OLIMEX_Start/src/core_cm3.h **** /*@} end of group CMSIS_SysTick */
 650:/home/bekeband/workspace/OLIMEX_Start/src/core_cm3.h **** 
 651:/home/bekeband/workspace/OLIMEX_Start/src/core_cm3.h **** 
 652:/home/bekeband/workspace/OLIMEX_Start/src/core_cm3.h **** /** \ingroup  CMSIS_core_register
 653:/home/bekeband/workspace/OLIMEX_Start/src/core_cm3.h ****     \defgroup CMSIS_ITM     Instrumentation Trace Macrocell (ITM)
 654:/home/bekeband/workspace/OLIMEX_Start/src/core_cm3.h ****     \brief      Type definitions for the Instrumentation Trace Macrocell (ITM)
 655:/home/bekeband/workspace/OLIMEX_Start/src/core_cm3.h ****   @{
 656:/home/bekeband/workspace/OLIMEX_Start/src/core_cm3.h ****  */
 657:/home/bekeband/workspace/OLIMEX_Start/src/core_cm3.h **** 
 658:/home/bekeband/workspace/OLIMEX_Start/src/core_cm3.h **** /** \brief  Structure type to access the Instrumentation Trace Macrocell Register (ITM).
 659:/home/bekeband/workspace/OLIMEX_Start/src/core_cm3.h ****  */
 660:/home/bekeband/workspace/OLIMEX_Start/src/core_cm3.h **** typedef struct
 661:/home/bekeband/workspace/OLIMEX_Start/src/core_cm3.h **** {
 662:/home/bekeband/workspace/OLIMEX_Start/src/core_cm3.h ****   __O  union
 663:/home/bekeband/workspace/OLIMEX_Start/src/core_cm3.h ****   {
 664:/home/bekeband/workspace/OLIMEX_Start/src/core_cm3.h ****     __O  uint8_t    u8;                  /*!< Offset: 0x000 ( /W)  ITM Stimulus Port 8-bit         
 665:/home/bekeband/workspace/OLIMEX_Start/src/core_cm3.h ****     __O  uint16_t   u16;                 /*!< Offset: 0x000 ( /W)  ITM Stimulus Port 16-bit        
 666:/home/bekeband/workspace/OLIMEX_Start/src/core_cm3.h ****     __O  uint32_t   u32;                 /*!< Offset: 0x000 ( /W)  ITM Stimulus Port 32-bit        
 667:/home/bekeband/workspace/OLIMEX_Start/src/core_cm3.h ****   }  PORT [32];                          /*!< Offset: 0x000 ( /W)  ITM Stimulus Port Registers     
 668:/home/bekeband/workspace/OLIMEX_Start/src/core_cm3.h ****        uint32_t RESERVED0[864];
 669:/home/bekeband/workspace/OLIMEX_Start/src/core_cm3.h ****   __IO uint32_t TER;                     /*!< Offset: 0xE00 (R/W)  ITM Trace Enable Register       
 670:/home/bekeband/workspace/OLIMEX_Start/src/core_cm3.h ****        uint32_t RESERVED1[15];
 671:/home/bekeband/workspace/OLIMEX_Start/src/core_cm3.h ****   __IO uint32_t TPR;                     /*!< Offset: 0xE40 (R/W)  ITM Trace Privilege Register    
 672:/home/bekeband/workspace/OLIMEX_Start/src/core_cm3.h ****        uint32_t RESERVED2[15];
 673:/home/bekeband/workspace/OLIMEX_Start/src/core_cm3.h ****   __IO uint32_t TCR;                     /*!< Offset: 0xE80 (R/W)  ITM Trace Control Register      
 674:/home/bekeband/workspace/OLIMEX_Start/src/core_cm3.h ****        uint32_t RESERVED3[29];
 675:/home/bekeband/workspace/OLIMEX_Start/src/core_cm3.h ****   __O  uint32_t IWR;                     /*!< Offset: 0xEF8 ( /W)  ITM Integration Write Register  
 676:/home/bekeband/workspace/OLIMEX_Start/src/core_cm3.h ****   __I  uint32_t IRR;                     /*!< Offset: 0xEFC (R/ )  ITM Integration Read Register   
 677:/home/bekeband/workspace/OLIMEX_Start/src/core_cm3.h ****   __IO uint32_t IMCR;                    /*!< Offset: 0xF00 (R/W)  ITM Integration Mode Control Reg
 678:/home/bekeband/workspace/OLIMEX_Start/src/core_cm3.h ****        uint32_t RESERVED4[43];
 679:/home/bekeband/workspace/OLIMEX_Start/src/core_cm3.h ****   __O  uint32_t LAR;                     /*!< Offset: 0xFB0 ( /W)  ITM Lock Access Register        
 680:/home/bekeband/workspace/OLIMEX_Start/src/core_cm3.h ****   __I  uint32_t LSR;                     /*!< Offset: 0xFB4 (R/ )  ITM Lock Status Register        
 681:/home/bekeband/workspace/OLIMEX_Start/src/core_cm3.h ****        uint32_t RESERVED5[6];
 682:/home/bekeband/workspace/OLIMEX_Start/src/core_cm3.h ****   __I  uint32_t PID4;                    /*!< Offset: 0xFD0 (R/ )  ITM Peripheral Identification Re
 683:/home/bekeband/workspace/OLIMEX_Start/src/core_cm3.h ****   __I  uint32_t PID5;                    /*!< Offset: 0xFD4 (R/ )  ITM Peripheral Identification Re
 684:/home/bekeband/workspace/OLIMEX_Start/src/core_cm3.h ****   __I  uint32_t PID6;                    /*!< Offset: 0xFD8 (R/ )  ITM Peripheral Identification Re
 685:/home/bekeband/workspace/OLIMEX_Start/src/core_cm3.h ****   __I  uint32_t PID7;                    /*!< Offset: 0xFDC (R/ )  ITM Peripheral Identification Re
 686:/home/bekeband/workspace/OLIMEX_Start/src/core_cm3.h ****   __I  uint32_t PID0;                    /*!< Offset: 0xFE0 (R/ )  ITM Peripheral Identification Re
 687:/home/bekeband/workspace/OLIMEX_Start/src/core_cm3.h ****   __I  uint32_t PID1;                    /*!< Offset: 0xFE4 (R/ )  ITM Peripheral Identification Re
 688:/home/bekeband/workspace/OLIMEX_Start/src/core_cm3.h ****   __I  uint32_t PID2;                    /*!< Offset: 0xFE8 (R/ )  ITM Peripheral Identification Re
 689:/home/bekeband/workspace/OLIMEX_Start/src/core_cm3.h ****   __I  uint32_t PID3;                    /*!< Offset: 0xFEC (R/ )  ITM Peripheral Identification Re
 690:/home/bekeband/workspace/OLIMEX_Start/src/core_cm3.h ****   __I  uint32_t CID0;                    /*!< Offset: 0xFF0 (R/ )  ITM Component  Identification Re
 691:/home/bekeband/workspace/OLIMEX_Start/src/core_cm3.h ****   __I  uint32_t CID1;                    /*!< Offset: 0xFF4 (R/ )  ITM Component  Identification Re
 692:/home/bekeband/workspace/OLIMEX_Start/src/core_cm3.h ****   __I  uint32_t CID2;                    /*!< Offset: 0xFF8 (R/ )  ITM Component  Identification Re
 693:/home/bekeband/workspace/OLIMEX_Start/src/core_cm3.h ****   __I  uint32_t CID3;                    /*!< Offset: 0xFFC (R/ )  ITM Component  Identification Re
 694:/home/bekeband/workspace/OLIMEX_Start/src/core_cm3.h **** } ITM_Type;
 695:/home/bekeband/workspace/OLIMEX_Start/src/core_cm3.h **** 
 696:/home/bekeband/workspace/OLIMEX_Start/src/core_cm3.h **** /* ITM Trace Privilege Register Definitions */
 697:/home/bekeband/workspace/OLIMEX_Start/src/core_cm3.h **** #define ITM_TPR_PRIVMASK_Pos                0                                             /*!< ITM 
 698:/home/bekeband/workspace/OLIMEX_Start/src/core_cm3.h **** #define ITM_TPR_PRIVMASK_Msk               (0xFUL << ITM_TPR_PRIVMASK_Pos)                /*!< ITM 
 699:/home/bekeband/workspace/OLIMEX_Start/src/core_cm3.h **** 
 700:/home/bekeband/workspace/OLIMEX_Start/src/core_cm3.h **** /* ITM Trace Control Register Definitions */
 701:/home/bekeband/workspace/OLIMEX_Start/src/core_cm3.h **** #define ITM_TCR_BUSY_Pos                   23                                             /*!< ITM 
 702:/home/bekeband/workspace/OLIMEX_Start/src/core_cm3.h **** #define ITM_TCR_BUSY_Msk                   (1UL << ITM_TCR_BUSY_Pos)                      /*!< ITM 
 703:/home/bekeband/workspace/OLIMEX_Start/src/core_cm3.h **** 
 704:/home/bekeband/workspace/OLIMEX_Start/src/core_cm3.h **** #define ITM_TCR_TraceBusID_Pos             16                                             /*!< ITM 
 705:/home/bekeband/workspace/OLIMEX_Start/src/core_cm3.h **** #define ITM_TCR_TraceBusID_Msk             (0x7FUL << ITM_TCR_TraceBusID_Pos)             /*!< ITM 
 706:/home/bekeband/workspace/OLIMEX_Start/src/core_cm3.h **** 
 707:/home/bekeband/workspace/OLIMEX_Start/src/core_cm3.h **** #define ITM_TCR_GTSFREQ_Pos                10                                             /*!< ITM 
 708:/home/bekeband/workspace/OLIMEX_Start/src/core_cm3.h **** #define ITM_TCR_GTSFREQ_Msk                (3UL << ITM_TCR_GTSFREQ_Pos)                   /*!< ITM 
 709:/home/bekeband/workspace/OLIMEX_Start/src/core_cm3.h **** 
 710:/home/bekeband/workspace/OLIMEX_Start/src/core_cm3.h **** #define ITM_TCR_TSPrescale_Pos              8                                             /*!< ITM 
 711:/home/bekeband/workspace/OLIMEX_Start/src/core_cm3.h **** #define ITM_TCR_TSPrescale_Msk             (3UL << ITM_TCR_TSPrescale_Pos)                /*!< ITM 
 712:/home/bekeband/workspace/OLIMEX_Start/src/core_cm3.h **** 
 713:/home/bekeband/workspace/OLIMEX_Start/src/core_cm3.h **** #define ITM_TCR_SWOENA_Pos                  4                                             /*!< ITM 
 714:/home/bekeband/workspace/OLIMEX_Start/src/core_cm3.h **** #define ITM_TCR_SWOENA_Msk                 (1UL << ITM_TCR_SWOENA_Pos)                    /*!< ITM 
 715:/home/bekeband/workspace/OLIMEX_Start/src/core_cm3.h **** 
 716:/home/bekeband/workspace/OLIMEX_Start/src/core_cm3.h **** #define ITM_TCR_DWTENA_Pos                  3                                             /*!< ITM 
 717:/home/bekeband/workspace/OLIMEX_Start/src/core_cm3.h **** #define ITM_TCR_DWTENA_Msk                 (1UL << ITM_TCR_DWTENA_Pos)                    /*!< ITM 
 718:/home/bekeband/workspace/OLIMEX_Start/src/core_cm3.h **** 
 719:/home/bekeband/workspace/OLIMEX_Start/src/core_cm3.h **** #define ITM_TCR_SYNCENA_Pos                 2                                             /*!< ITM 
 720:/home/bekeband/workspace/OLIMEX_Start/src/core_cm3.h **** #define ITM_TCR_SYNCENA_Msk                (1UL << ITM_TCR_SYNCENA_Pos)                   /*!< ITM 
 721:/home/bekeband/workspace/OLIMEX_Start/src/core_cm3.h **** 
 722:/home/bekeband/workspace/OLIMEX_Start/src/core_cm3.h **** #define ITM_TCR_TSENA_Pos                   1                                             /*!< ITM 
 723:/home/bekeband/workspace/OLIMEX_Start/src/core_cm3.h **** #define ITM_TCR_TSENA_Msk                  (1UL << ITM_TCR_TSENA_Pos)                     /*!< ITM 
 724:/home/bekeband/workspace/OLIMEX_Start/src/core_cm3.h **** 
 725:/home/bekeband/workspace/OLIMEX_Start/src/core_cm3.h **** #define ITM_TCR_ITMENA_Pos                  0                                             /*!< ITM 
 726:/home/bekeband/workspace/OLIMEX_Start/src/core_cm3.h **** #define ITM_TCR_ITMENA_Msk                 (1UL << ITM_TCR_ITMENA_Pos)                    /*!< ITM 
 727:/home/bekeband/workspace/OLIMEX_Start/src/core_cm3.h **** 
 728:/home/bekeband/workspace/OLIMEX_Start/src/core_cm3.h **** /* ITM Integration Write Register Definitions */
 729:/home/bekeband/workspace/OLIMEX_Start/src/core_cm3.h **** #define ITM_IWR_ATVALIDM_Pos                0                                             /*!< ITM 
 730:/home/bekeband/workspace/OLIMEX_Start/src/core_cm3.h **** #define ITM_IWR_ATVALIDM_Msk               (1UL << ITM_IWR_ATVALIDM_Pos)                  /*!< ITM 
 731:/home/bekeband/workspace/OLIMEX_Start/src/core_cm3.h **** 
 732:/home/bekeband/workspace/OLIMEX_Start/src/core_cm3.h **** /* ITM Integration Read Register Definitions */
 733:/home/bekeband/workspace/OLIMEX_Start/src/core_cm3.h **** #define ITM_IRR_ATREADYM_Pos                0                                             /*!< ITM 
 734:/home/bekeband/workspace/OLIMEX_Start/src/core_cm3.h **** #define ITM_IRR_ATREADYM_Msk               (1UL << ITM_IRR_ATREADYM_Pos)                  /*!< ITM 
 735:/home/bekeband/workspace/OLIMEX_Start/src/core_cm3.h **** 
 736:/home/bekeband/workspace/OLIMEX_Start/src/core_cm3.h **** /* ITM Integration Mode Control Register Definitions */
 737:/home/bekeband/workspace/OLIMEX_Start/src/core_cm3.h **** #define ITM_IMCR_INTEGRATION_Pos            0                                             /*!< ITM 
 738:/home/bekeband/workspace/OLIMEX_Start/src/core_cm3.h **** #define ITM_IMCR_INTEGRATION_Msk           (1UL << ITM_IMCR_INTEGRATION_Pos)              /*!< ITM 
 739:/home/bekeband/workspace/OLIMEX_Start/src/core_cm3.h **** 
 740:/home/bekeband/workspace/OLIMEX_Start/src/core_cm3.h **** /* ITM Lock Status Register Definitions */
 741:/home/bekeband/workspace/OLIMEX_Start/src/core_cm3.h **** #define ITM_LSR_ByteAcc_Pos                 2                                             /*!< ITM 
 742:/home/bekeband/workspace/OLIMEX_Start/src/core_cm3.h **** #define ITM_LSR_ByteAcc_Msk                (1UL << ITM_LSR_ByteAcc_Pos)                   /*!< ITM 
 743:/home/bekeband/workspace/OLIMEX_Start/src/core_cm3.h **** 
 744:/home/bekeband/workspace/OLIMEX_Start/src/core_cm3.h **** #define ITM_LSR_Access_Pos                  1                                             /*!< ITM 
 745:/home/bekeband/workspace/OLIMEX_Start/src/core_cm3.h **** #define ITM_LSR_Access_Msk                 (1UL << ITM_LSR_Access_Pos)                    /*!< ITM 
 746:/home/bekeband/workspace/OLIMEX_Start/src/core_cm3.h **** 
 747:/home/bekeband/workspace/OLIMEX_Start/src/core_cm3.h **** #define ITM_LSR_Present_Pos                 0                                             /*!< ITM 
 748:/home/bekeband/workspace/OLIMEX_Start/src/core_cm3.h **** #define ITM_LSR_Present_Msk                (1UL << ITM_LSR_Present_Pos)                   /*!< ITM 
 749:/home/bekeband/workspace/OLIMEX_Start/src/core_cm3.h **** 
 750:/home/bekeband/workspace/OLIMEX_Start/src/core_cm3.h **** /*@}*/ /* end of group CMSIS_ITM */
 751:/home/bekeband/workspace/OLIMEX_Start/src/core_cm3.h **** 
 752:/home/bekeband/workspace/OLIMEX_Start/src/core_cm3.h **** 
 753:/home/bekeband/workspace/OLIMEX_Start/src/core_cm3.h **** /** \ingroup  CMSIS_core_register
 754:/home/bekeband/workspace/OLIMEX_Start/src/core_cm3.h ****     \defgroup CMSIS_DWT     Data Watchpoint and Trace (DWT)
 755:/home/bekeband/workspace/OLIMEX_Start/src/core_cm3.h ****     \brief      Type definitions for the Data Watchpoint and Trace (DWT)
 756:/home/bekeband/workspace/OLIMEX_Start/src/core_cm3.h ****   @{
 757:/home/bekeband/workspace/OLIMEX_Start/src/core_cm3.h ****  */
 758:/home/bekeband/workspace/OLIMEX_Start/src/core_cm3.h **** 
 759:/home/bekeband/workspace/OLIMEX_Start/src/core_cm3.h **** /** \brief  Structure type to access the Data Watchpoint and Trace Register (DWT).
 760:/home/bekeband/workspace/OLIMEX_Start/src/core_cm3.h ****  */
 761:/home/bekeband/workspace/OLIMEX_Start/src/core_cm3.h **** typedef struct
 762:/home/bekeband/workspace/OLIMEX_Start/src/core_cm3.h **** {
 763:/home/bekeband/workspace/OLIMEX_Start/src/core_cm3.h ****   __IO uint32_t CTRL;                    /*!< Offset: 0x000 (R/W)  Control Register                
 764:/home/bekeband/workspace/OLIMEX_Start/src/core_cm3.h ****   __IO uint32_t CYCCNT;                  /*!< Offset: 0x004 (R/W)  Cycle Count Register            
 765:/home/bekeband/workspace/OLIMEX_Start/src/core_cm3.h ****   __IO uint32_t CPICNT;                  /*!< Offset: 0x008 (R/W)  CPI Count Register              
 766:/home/bekeband/workspace/OLIMEX_Start/src/core_cm3.h ****   __IO uint32_t EXCCNT;                  /*!< Offset: 0x00C (R/W)  Exception Overhead Count Registe
 767:/home/bekeband/workspace/OLIMEX_Start/src/core_cm3.h ****   __IO uint32_t SLEEPCNT;                /*!< Offset: 0x010 (R/W)  Sleep Count Register            
 768:/home/bekeband/workspace/OLIMEX_Start/src/core_cm3.h ****   __IO uint32_t LSUCNT;                  /*!< Offset: 0x014 (R/W)  LSU Count Register              
 769:/home/bekeband/workspace/OLIMEX_Start/src/core_cm3.h ****   __IO uint32_t FOLDCNT;                 /*!< Offset: 0x018 (R/W)  Folded-instruction Count Registe
 770:/home/bekeband/workspace/OLIMEX_Start/src/core_cm3.h ****   __I  uint32_t PCSR;                    /*!< Offset: 0x01C (R/ )  Program Counter Sample Register 
 771:/home/bekeband/workspace/OLIMEX_Start/src/core_cm3.h ****   __IO uint32_t COMP0;                   /*!< Offset: 0x020 (R/W)  Comparator Register 0           
 772:/home/bekeband/workspace/OLIMEX_Start/src/core_cm3.h ****   __IO uint32_t MASK0;                   /*!< Offset: 0x024 (R/W)  Mask Register 0                 
 773:/home/bekeband/workspace/OLIMEX_Start/src/core_cm3.h ****   __IO uint32_t FUNCTION0;               /*!< Offset: 0x028 (R/W)  Function Register 0             
 774:/home/bekeband/workspace/OLIMEX_Start/src/core_cm3.h ****        uint32_t RESERVED0[1];
 775:/home/bekeband/workspace/OLIMEX_Start/src/core_cm3.h ****   __IO uint32_t COMP1;                   /*!< Offset: 0x030 (R/W)  Comparator Register 1           
 776:/home/bekeband/workspace/OLIMEX_Start/src/core_cm3.h ****   __IO uint32_t MASK1;                   /*!< Offset: 0x034 (R/W)  Mask Register 1                 
 777:/home/bekeband/workspace/OLIMEX_Start/src/core_cm3.h ****   __IO uint32_t FUNCTION1;               /*!< Offset: 0x038 (R/W)  Function Register 1             
 778:/home/bekeband/workspace/OLIMEX_Start/src/core_cm3.h ****        uint32_t RESERVED1[1];
 779:/home/bekeband/workspace/OLIMEX_Start/src/core_cm3.h ****   __IO uint32_t COMP2;                   /*!< Offset: 0x040 (R/W)  Comparator Register 2           
 780:/home/bekeband/workspace/OLIMEX_Start/src/core_cm3.h ****   __IO uint32_t MASK2;                   /*!< Offset: 0x044 (R/W)  Mask Register 2                 
 781:/home/bekeband/workspace/OLIMEX_Start/src/core_cm3.h ****   __IO uint32_t FUNCTION2;               /*!< Offset: 0x048 (R/W)  Function Register 2             
 782:/home/bekeband/workspace/OLIMEX_Start/src/core_cm3.h ****        uint32_t RESERVED2[1];
 783:/home/bekeband/workspace/OLIMEX_Start/src/core_cm3.h ****   __IO uint32_t COMP3;                   /*!< Offset: 0x050 (R/W)  Comparator Register 3           
 784:/home/bekeband/workspace/OLIMEX_Start/src/core_cm3.h ****   __IO uint32_t MASK3;                   /*!< Offset: 0x054 (R/W)  Mask Register 3                 
 785:/home/bekeband/workspace/OLIMEX_Start/src/core_cm3.h ****   __IO uint32_t FUNCTION3;               /*!< Offset: 0x058 (R/W)  Function Register 3             
 786:/home/bekeband/workspace/OLIMEX_Start/src/core_cm3.h **** } DWT_Type;
 787:/home/bekeband/workspace/OLIMEX_Start/src/core_cm3.h **** 
 788:/home/bekeband/workspace/OLIMEX_Start/src/core_cm3.h **** /* DWT Control Register Definitions */
 789:/home/bekeband/workspace/OLIMEX_Start/src/core_cm3.h **** #define DWT_CTRL_NUMCOMP_Pos               28                                          /*!< DWT CTR
 790:/home/bekeband/workspace/OLIMEX_Start/src/core_cm3.h **** #define DWT_CTRL_NUMCOMP_Msk               (0xFUL << DWT_CTRL_NUMCOMP_Pos)             /*!< DWT CTR
 791:/home/bekeband/workspace/OLIMEX_Start/src/core_cm3.h **** 
 792:/home/bekeband/workspace/OLIMEX_Start/src/core_cm3.h **** #define DWT_CTRL_NOTRCPKT_Pos              27                                          /*!< DWT CTR
 793:/home/bekeband/workspace/OLIMEX_Start/src/core_cm3.h **** #define DWT_CTRL_NOTRCPKT_Msk              (0x1UL << DWT_CTRL_NOTRCPKT_Pos)            /*!< DWT CTR
 794:/home/bekeband/workspace/OLIMEX_Start/src/core_cm3.h **** 
 795:/home/bekeband/workspace/OLIMEX_Start/src/core_cm3.h **** #define DWT_CTRL_NOEXTTRIG_Pos             26                                          /*!< DWT CTR
 796:/home/bekeband/workspace/OLIMEX_Start/src/core_cm3.h **** #define DWT_CTRL_NOEXTTRIG_Msk             (0x1UL << DWT_CTRL_NOEXTTRIG_Pos)           /*!< DWT CTR
 797:/home/bekeband/workspace/OLIMEX_Start/src/core_cm3.h **** 
 798:/home/bekeband/workspace/OLIMEX_Start/src/core_cm3.h **** #define DWT_CTRL_NOCYCCNT_Pos              25                                          /*!< DWT CTR
 799:/home/bekeband/workspace/OLIMEX_Start/src/core_cm3.h **** #define DWT_CTRL_NOCYCCNT_Msk              (0x1UL << DWT_CTRL_NOCYCCNT_Pos)            /*!< DWT CTR
 800:/home/bekeband/workspace/OLIMEX_Start/src/core_cm3.h **** 
 801:/home/bekeband/workspace/OLIMEX_Start/src/core_cm3.h **** #define DWT_CTRL_NOPRFCNT_Pos              24                                          /*!< DWT CTR
 802:/home/bekeband/workspace/OLIMEX_Start/src/core_cm3.h **** #define DWT_CTRL_NOPRFCNT_Msk              (0x1UL << DWT_CTRL_NOPRFCNT_Pos)            /*!< DWT CTR
 803:/home/bekeband/workspace/OLIMEX_Start/src/core_cm3.h **** 
 804:/home/bekeband/workspace/OLIMEX_Start/src/core_cm3.h **** #define DWT_CTRL_CYCEVTENA_Pos             22                                          /*!< DWT CTR
 805:/home/bekeband/workspace/OLIMEX_Start/src/core_cm3.h **** #define DWT_CTRL_CYCEVTENA_Msk             (0x1UL << DWT_CTRL_CYCEVTENA_Pos)           /*!< DWT CTR
 806:/home/bekeband/workspace/OLIMEX_Start/src/core_cm3.h **** 
 807:/home/bekeband/workspace/OLIMEX_Start/src/core_cm3.h **** #define DWT_CTRL_FOLDEVTENA_Pos            21                                          /*!< DWT CTR
 808:/home/bekeband/workspace/OLIMEX_Start/src/core_cm3.h **** #define DWT_CTRL_FOLDEVTENA_Msk            (0x1UL << DWT_CTRL_FOLDEVTENA_Pos)          /*!< DWT CTR
 809:/home/bekeband/workspace/OLIMEX_Start/src/core_cm3.h **** 
 810:/home/bekeband/workspace/OLIMEX_Start/src/core_cm3.h **** #define DWT_CTRL_LSUEVTENA_Pos             20                                          /*!< DWT CTR
 811:/home/bekeband/workspace/OLIMEX_Start/src/core_cm3.h **** #define DWT_CTRL_LSUEVTENA_Msk             (0x1UL << DWT_CTRL_LSUEVTENA_Pos)           /*!< DWT CTR
 812:/home/bekeband/workspace/OLIMEX_Start/src/core_cm3.h **** 
 813:/home/bekeband/workspace/OLIMEX_Start/src/core_cm3.h **** #define DWT_CTRL_SLEEPEVTENA_Pos           19                                          /*!< DWT CTR
 814:/home/bekeband/workspace/OLIMEX_Start/src/core_cm3.h **** #define DWT_CTRL_SLEEPEVTENA_Msk           (0x1UL << DWT_CTRL_SLEEPEVTENA_Pos)         /*!< DWT CTR
 815:/home/bekeband/workspace/OLIMEX_Start/src/core_cm3.h **** 
 816:/home/bekeband/workspace/OLIMEX_Start/src/core_cm3.h **** #define DWT_CTRL_EXCEVTENA_Pos             18                                          /*!< DWT CTR
 817:/home/bekeband/workspace/OLIMEX_Start/src/core_cm3.h **** #define DWT_CTRL_EXCEVTENA_Msk             (0x1UL << DWT_CTRL_EXCEVTENA_Pos)           /*!< DWT CTR
 818:/home/bekeband/workspace/OLIMEX_Start/src/core_cm3.h **** 
 819:/home/bekeband/workspace/OLIMEX_Start/src/core_cm3.h **** #define DWT_CTRL_CPIEVTENA_Pos             17                                          /*!< DWT CTR
 820:/home/bekeband/workspace/OLIMEX_Start/src/core_cm3.h **** #define DWT_CTRL_CPIEVTENA_Msk             (0x1UL << DWT_CTRL_CPIEVTENA_Pos)           /*!< DWT CTR
 821:/home/bekeband/workspace/OLIMEX_Start/src/core_cm3.h **** 
 822:/home/bekeband/workspace/OLIMEX_Start/src/core_cm3.h **** #define DWT_CTRL_EXCTRCENA_Pos             16                                          /*!< DWT CTR
 823:/home/bekeband/workspace/OLIMEX_Start/src/core_cm3.h **** #define DWT_CTRL_EXCTRCENA_Msk             (0x1UL << DWT_CTRL_EXCTRCENA_Pos)           /*!< DWT CTR
 824:/home/bekeband/workspace/OLIMEX_Start/src/core_cm3.h **** 
 825:/home/bekeband/workspace/OLIMEX_Start/src/core_cm3.h **** #define DWT_CTRL_PCSAMPLENA_Pos            12                                          /*!< DWT CTR
 826:/home/bekeband/workspace/OLIMEX_Start/src/core_cm3.h **** #define DWT_CTRL_PCSAMPLENA_Msk            (0x1UL << DWT_CTRL_PCSAMPLENA_Pos)          /*!< DWT CTR
 827:/home/bekeband/workspace/OLIMEX_Start/src/core_cm3.h **** 
 828:/home/bekeband/workspace/OLIMEX_Start/src/core_cm3.h **** #define DWT_CTRL_SYNCTAP_Pos               10                                          /*!< DWT CTR
 829:/home/bekeband/workspace/OLIMEX_Start/src/core_cm3.h **** #define DWT_CTRL_SYNCTAP_Msk               (0x3UL << DWT_CTRL_SYNCTAP_Pos)             /*!< DWT CTR
 830:/home/bekeband/workspace/OLIMEX_Start/src/core_cm3.h **** 
 831:/home/bekeband/workspace/OLIMEX_Start/src/core_cm3.h **** #define DWT_CTRL_CYCTAP_Pos                 9                                          /*!< DWT CTR
 832:/home/bekeband/workspace/OLIMEX_Start/src/core_cm3.h **** #define DWT_CTRL_CYCTAP_Msk                (0x1UL << DWT_CTRL_CYCTAP_Pos)              /*!< DWT CTR
 833:/home/bekeband/workspace/OLIMEX_Start/src/core_cm3.h **** 
 834:/home/bekeband/workspace/OLIMEX_Start/src/core_cm3.h **** #define DWT_CTRL_POSTINIT_Pos               5                                          /*!< DWT CTR
 835:/home/bekeband/workspace/OLIMEX_Start/src/core_cm3.h **** #define DWT_CTRL_POSTINIT_Msk              (0xFUL << DWT_CTRL_POSTINIT_Pos)            /*!< DWT CTR
 836:/home/bekeband/workspace/OLIMEX_Start/src/core_cm3.h **** 
 837:/home/bekeband/workspace/OLIMEX_Start/src/core_cm3.h **** #define DWT_CTRL_POSTPRESET_Pos             1                                          /*!< DWT CTR
 838:/home/bekeband/workspace/OLIMEX_Start/src/core_cm3.h **** #define DWT_CTRL_POSTPRESET_Msk            (0xFUL << DWT_CTRL_POSTPRESET_Pos)          /*!< DWT CTR
 839:/home/bekeband/workspace/OLIMEX_Start/src/core_cm3.h **** 
 840:/home/bekeband/workspace/OLIMEX_Start/src/core_cm3.h **** #define DWT_CTRL_CYCCNTENA_Pos              0                                          /*!< DWT CTR
 841:/home/bekeband/workspace/OLIMEX_Start/src/core_cm3.h **** #define DWT_CTRL_CYCCNTENA_Msk             (0x1UL << DWT_CTRL_CYCCNTENA_Pos)           /*!< DWT CTR
 842:/home/bekeband/workspace/OLIMEX_Start/src/core_cm3.h **** 
 843:/home/bekeband/workspace/OLIMEX_Start/src/core_cm3.h **** /* DWT CPI Count Register Definitions */
 844:/home/bekeband/workspace/OLIMEX_Start/src/core_cm3.h **** #define DWT_CPICNT_CPICNT_Pos               0                                          /*!< DWT CPI
 845:/home/bekeband/workspace/OLIMEX_Start/src/core_cm3.h **** #define DWT_CPICNT_CPICNT_Msk              (0xFFUL << DWT_CPICNT_CPICNT_Pos)           /*!< DWT CPI
 846:/home/bekeband/workspace/OLIMEX_Start/src/core_cm3.h **** 
 847:/home/bekeband/workspace/OLIMEX_Start/src/core_cm3.h **** /* DWT Exception Overhead Count Register Definitions */
 848:/home/bekeband/workspace/OLIMEX_Start/src/core_cm3.h **** #define DWT_EXCCNT_EXCCNT_Pos               0                                          /*!< DWT EXC
 849:/home/bekeband/workspace/OLIMEX_Start/src/core_cm3.h **** #define DWT_EXCCNT_EXCCNT_Msk              (0xFFUL << DWT_EXCCNT_EXCCNT_Pos)           /*!< DWT EXC
 850:/home/bekeband/workspace/OLIMEX_Start/src/core_cm3.h **** 
 851:/home/bekeband/workspace/OLIMEX_Start/src/core_cm3.h **** /* DWT Sleep Count Register Definitions */
 852:/home/bekeband/workspace/OLIMEX_Start/src/core_cm3.h **** #define DWT_SLEEPCNT_SLEEPCNT_Pos           0                                          /*!< DWT SLE
 853:/home/bekeband/workspace/OLIMEX_Start/src/core_cm3.h **** #define DWT_SLEEPCNT_SLEEPCNT_Msk          (0xFFUL << DWT_SLEEPCNT_SLEEPCNT_Pos)       /*!< DWT SLE
 854:/home/bekeband/workspace/OLIMEX_Start/src/core_cm3.h **** 
 855:/home/bekeband/workspace/OLIMEX_Start/src/core_cm3.h **** /* DWT LSU Count Register Definitions */
 856:/home/bekeband/workspace/OLIMEX_Start/src/core_cm3.h **** #define DWT_LSUCNT_LSUCNT_Pos               0                                          /*!< DWT LSU
 857:/home/bekeband/workspace/OLIMEX_Start/src/core_cm3.h **** #define DWT_LSUCNT_LSUCNT_Msk              (0xFFUL << DWT_LSUCNT_LSUCNT_Pos)           /*!< DWT LSU
 858:/home/bekeband/workspace/OLIMEX_Start/src/core_cm3.h **** 
 859:/home/bekeband/workspace/OLIMEX_Start/src/core_cm3.h **** /* DWT Folded-instruction Count Register Definitions */
 860:/home/bekeband/workspace/OLIMEX_Start/src/core_cm3.h **** #define DWT_FOLDCNT_FOLDCNT_Pos             0                                          /*!< DWT FOL
 861:/home/bekeband/workspace/OLIMEX_Start/src/core_cm3.h **** #define DWT_FOLDCNT_FOLDCNT_Msk            (0xFFUL << DWT_FOLDCNT_FOLDCNT_Pos)         /*!< DWT FOL
 862:/home/bekeband/workspace/OLIMEX_Start/src/core_cm3.h **** 
 863:/home/bekeband/workspace/OLIMEX_Start/src/core_cm3.h **** /* DWT Comparator Mask Register Definitions */
 864:/home/bekeband/workspace/OLIMEX_Start/src/core_cm3.h **** #define DWT_MASK_MASK_Pos                   0                                          /*!< DWT MAS
 865:/home/bekeband/workspace/OLIMEX_Start/src/core_cm3.h **** #define DWT_MASK_MASK_Msk                  (0x1FUL << DWT_MASK_MASK_Pos)               /*!< DWT MAS
 866:/home/bekeband/workspace/OLIMEX_Start/src/core_cm3.h **** 
 867:/home/bekeband/workspace/OLIMEX_Start/src/core_cm3.h **** /* DWT Comparator Function Register Definitions */
 868:/home/bekeband/workspace/OLIMEX_Start/src/core_cm3.h **** #define DWT_FUNCTION_MATCHED_Pos           24                                          /*!< DWT FUN
 869:/home/bekeband/workspace/OLIMEX_Start/src/core_cm3.h **** #define DWT_FUNCTION_MATCHED_Msk           (0x1UL << DWT_FUNCTION_MATCHED_Pos)         /*!< DWT FUN
 870:/home/bekeband/workspace/OLIMEX_Start/src/core_cm3.h **** 
 871:/home/bekeband/workspace/OLIMEX_Start/src/core_cm3.h **** #define DWT_FUNCTION_DATAVADDR1_Pos        16                                          /*!< DWT FUN
 872:/home/bekeband/workspace/OLIMEX_Start/src/core_cm3.h **** #define DWT_FUNCTION_DATAVADDR1_Msk        (0xFUL << DWT_FUNCTION_DATAVADDR1_Pos)      /*!< DWT FUN
 873:/home/bekeband/workspace/OLIMEX_Start/src/core_cm3.h **** 
 874:/home/bekeband/workspace/OLIMEX_Start/src/core_cm3.h **** #define DWT_FUNCTION_DATAVADDR0_Pos        12                                          /*!< DWT FUN
 875:/home/bekeband/workspace/OLIMEX_Start/src/core_cm3.h **** #define DWT_FUNCTION_DATAVADDR0_Msk        (0xFUL << DWT_FUNCTION_DATAVADDR0_Pos)      /*!< DWT FUN
 876:/home/bekeband/workspace/OLIMEX_Start/src/core_cm3.h **** 
 877:/home/bekeband/workspace/OLIMEX_Start/src/core_cm3.h **** #define DWT_FUNCTION_DATAVSIZE_Pos         10                                          /*!< DWT FUN
 878:/home/bekeband/workspace/OLIMEX_Start/src/core_cm3.h **** #define DWT_FUNCTION_DATAVSIZE_Msk         (0x3UL << DWT_FUNCTION_DATAVSIZE_Pos)       /*!< DWT FUN
 879:/home/bekeband/workspace/OLIMEX_Start/src/core_cm3.h **** 
 880:/home/bekeband/workspace/OLIMEX_Start/src/core_cm3.h **** #define DWT_FUNCTION_LNK1ENA_Pos            9                                          /*!< DWT FUN
 881:/home/bekeband/workspace/OLIMEX_Start/src/core_cm3.h **** #define DWT_FUNCTION_LNK1ENA_Msk           (0x1UL << DWT_FUNCTION_LNK1ENA_Pos)         /*!< DWT FUN
 882:/home/bekeband/workspace/OLIMEX_Start/src/core_cm3.h **** 
 883:/home/bekeband/workspace/OLIMEX_Start/src/core_cm3.h **** #define DWT_FUNCTION_DATAVMATCH_Pos         8                                          /*!< DWT FUN
 884:/home/bekeband/workspace/OLIMEX_Start/src/core_cm3.h **** #define DWT_FUNCTION_DATAVMATCH_Msk        (0x1UL << DWT_FUNCTION_DATAVMATCH_Pos)      /*!< DWT FUN
 885:/home/bekeband/workspace/OLIMEX_Start/src/core_cm3.h **** 
 886:/home/bekeband/workspace/OLIMEX_Start/src/core_cm3.h **** #define DWT_FUNCTION_CYCMATCH_Pos           7                                          /*!< DWT FUN
 887:/home/bekeband/workspace/OLIMEX_Start/src/core_cm3.h **** #define DWT_FUNCTION_CYCMATCH_Msk          (0x1UL << DWT_FUNCTION_CYCMATCH_Pos)        /*!< DWT FUN
 888:/home/bekeband/workspace/OLIMEX_Start/src/core_cm3.h **** 
 889:/home/bekeband/workspace/OLIMEX_Start/src/core_cm3.h **** #define DWT_FUNCTION_EMITRANGE_Pos          5                                          /*!< DWT FUN
 890:/home/bekeband/workspace/OLIMEX_Start/src/core_cm3.h **** #define DWT_FUNCTION_EMITRANGE_Msk         (0x1UL << DWT_FUNCTION_EMITRANGE_Pos)       /*!< DWT FUN
 891:/home/bekeband/workspace/OLIMEX_Start/src/core_cm3.h **** 
 892:/home/bekeband/workspace/OLIMEX_Start/src/core_cm3.h **** #define DWT_FUNCTION_FUNCTION_Pos           0                                          /*!< DWT FUN
 893:/home/bekeband/workspace/OLIMEX_Start/src/core_cm3.h **** #define DWT_FUNCTION_FUNCTION_Msk          (0xFUL << DWT_FUNCTION_FUNCTION_Pos)        /*!< DWT FUN
 894:/home/bekeband/workspace/OLIMEX_Start/src/core_cm3.h **** 
 895:/home/bekeband/workspace/OLIMEX_Start/src/core_cm3.h **** /*@}*/ /* end of group CMSIS_DWT */
 896:/home/bekeband/workspace/OLIMEX_Start/src/core_cm3.h **** 
 897:/home/bekeband/workspace/OLIMEX_Start/src/core_cm3.h **** 
 898:/home/bekeband/workspace/OLIMEX_Start/src/core_cm3.h **** /** \ingroup  CMSIS_core_register
 899:/home/bekeband/workspace/OLIMEX_Start/src/core_cm3.h ****     \defgroup CMSIS_TPI     Trace Port Interface (TPI)
 900:/home/bekeband/workspace/OLIMEX_Start/src/core_cm3.h ****     \brief      Type definitions for the Trace Port Interface (TPI)
 901:/home/bekeband/workspace/OLIMEX_Start/src/core_cm3.h ****   @{
 902:/home/bekeband/workspace/OLIMEX_Start/src/core_cm3.h ****  */
 903:/home/bekeband/workspace/OLIMEX_Start/src/core_cm3.h **** 
 904:/home/bekeband/workspace/OLIMEX_Start/src/core_cm3.h **** /** \brief  Structure type to access the Trace Port Interface Register (TPI).
 905:/home/bekeband/workspace/OLIMEX_Start/src/core_cm3.h ****  */
 906:/home/bekeband/workspace/OLIMEX_Start/src/core_cm3.h **** typedef struct
 907:/home/bekeband/workspace/OLIMEX_Start/src/core_cm3.h **** {
 908:/home/bekeband/workspace/OLIMEX_Start/src/core_cm3.h ****   __IO uint32_t SSPSR;                   /*!< Offset: 0x000 (R/ )  Supported Parallel Port Size Reg
 909:/home/bekeband/workspace/OLIMEX_Start/src/core_cm3.h ****   __IO uint32_t CSPSR;                   /*!< Offset: 0x004 (R/W)  Current Parallel Port Size Regis
 910:/home/bekeband/workspace/OLIMEX_Start/src/core_cm3.h ****        uint32_t RESERVED0[2];
 911:/home/bekeband/workspace/OLIMEX_Start/src/core_cm3.h ****   __IO uint32_t ACPR;                    /*!< Offset: 0x010 (R/W)  Asynchronous Clock Prescaler Reg
 912:/home/bekeband/workspace/OLIMEX_Start/src/core_cm3.h ****        uint32_t RESERVED1[55];
 913:/home/bekeband/workspace/OLIMEX_Start/src/core_cm3.h ****   __IO uint32_t SPPR;                    /*!< Offset: 0x0F0 (R/W)  Selected Pin Protocol Register *
 914:/home/bekeband/workspace/OLIMEX_Start/src/core_cm3.h ****        uint32_t RESERVED2[131];
 915:/home/bekeband/workspace/OLIMEX_Start/src/core_cm3.h ****   __I  uint32_t FFSR;                    /*!< Offset: 0x300 (R/ )  Formatter and Flush Status Regis
 916:/home/bekeband/workspace/OLIMEX_Start/src/core_cm3.h ****   __IO uint32_t FFCR;                    /*!< Offset: 0x304 (R/W)  Formatter and Flush Control Regi
 917:/home/bekeband/workspace/OLIMEX_Start/src/core_cm3.h ****   __I  uint32_t FSCR;                    /*!< Offset: 0x308 (R/ )  Formatter Synchronization Counte
 918:/home/bekeband/workspace/OLIMEX_Start/src/core_cm3.h ****        uint32_t RESERVED3[759];
 919:/home/bekeband/workspace/OLIMEX_Start/src/core_cm3.h ****   __I  uint32_t TRIGGER;                 /*!< Offset: 0xEE8 (R/ )  TRIGGER */
 920:/home/bekeband/workspace/OLIMEX_Start/src/core_cm3.h ****   __I  uint32_t FIFO0;                   /*!< Offset: 0xEEC (R/ )  Integration ETM Data */
 921:/home/bekeband/workspace/OLIMEX_Start/src/core_cm3.h ****   __I  uint32_t ITATBCTR2;               /*!< Offset: 0xEF0 (R/ )  ITATBCTR2 */
 922:/home/bekeband/workspace/OLIMEX_Start/src/core_cm3.h ****        uint32_t RESERVED4[1];
 923:/home/bekeband/workspace/OLIMEX_Start/src/core_cm3.h ****   __I  uint32_t ITATBCTR0;               /*!< Offset: 0xEF8 (R/ )  ITATBCTR0 */
 924:/home/bekeband/workspace/OLIMEX_Start/src/core_cm3.h ****   __I  uint32_t FIFO1;                   /*!< Offset: 0xEFC (R/ )  Integration ITM Data */
 925:/home/bekeband/workspace/OLIMEX_Start/src/core_cm3.h ****   __IO uint32_t ITCTRL;                  /*!< Offset: 0xF00 (R/W)  Integration Mode Control */
 926:/home/bekeband/workspace/OLIMEX_Start/src/core_cm3.h ****        uint32_t RESERVED5[39];
 927:/home/bekeband/workspace/OLIMEX_Start/src/core_cm3.h ****   __IO uint32_t CLAIMSET;                /*!< Offset: 0xFA0 (R/W)  Claim tag set */
 928:/home/bekeband/workspace/OLIMEX_Start/src/core_cm3.h ****   __IO uint32_t CLAIMCLR;                /*!< Offset: 0xFA4 (R/W)  Claim tag clear */
 929:/home/bekeband/workspace/OLIMEX_Start/src/core_cm3.h ****        uint32_t RESERVED7[8];
 930:/home/bekeband/workspace/OLIMEX_Start/src/core_cm3.h ****   __I  uint32_t DEVID;                   /*!< Offset: 0xFC8 (R/ )  TPIU_DEVID */
 931:/home/bekeband/workspace/OLIMEX_Start/src/core_cm3.h ****   __I  uint32_t DEVTYPE;                 /*!< Offset: 0xFCC (R/ )  TPIU_DEVTYPE */
 932:/home/bekeband/workspace/OLIMEX_Start/src/core_cm3.h **** } TPI_Type;
 933:/home/bekeband/workspace/OLIMEX_Start/src/core_cm3.h **** 
 934:/home/bekeband/workspace/OLIMEX_Start/src/core_cm3.h **** /* TPI Asynchronous Clock Prescaler Register Definitions */
 935:/home/bekeband/workspace/OLIMEX_Start/src/core_cm3.h **** #define TPI_ACPR_PRESCALER_Pos              0                                          /*!< TPI ACP
 936:/home/bekeband/workspace/OLIMEX_Start/src/core_cm3.h **** #define TPI_ACPR_PRESCALER_Msk             (0x1FFFUL << TPI_ACPR_PRESCALER_Pos)        /*!< TPI ACP
 937:/home/bekeband/workspace/OLIMEX_Start/src/core_cm3.h **** 
 938:/home/bekeband/workspace/OLIMEX_Start/src/core_cm3.h **** /* TPI Selected Pin Protocol Register Definitions */
 939:/home/bekeband/workspace/OLIMEX_Start/src/core_cm3.h **** #define TPI_SPPR_TXMODE_Pos                 0                                          /*!< TPI SPP
 940:/home/bekeband/workspace/OLIMEX_Start/src/core_cm3.h **** #define TPI_SPPR_TXMODE_Msk                (0x3UL << TPI_SPPR_TXMODE_Pos)              /*!< TPI SPP
 941:/home/bekeband/workspace/OLIMEX_Start/src/core_cm3.h **** 
 942:/home/bekeband/workspace/OLIMEX_Start/src/core_cm3.h **** /* TPI Formatter and Flush Status Register Definitions */
 943:/home/bekeband/workspace/OLIMEX_Start/src/core_cm3.h **** #define TPI_FFSR_FtNonStop_Pos              3                                          /*!< TPI FFS
 944:/home/bekeband/workspace/OLIMEX_Start/src/core_cm3.h **** #define TPI_FFSR_FtNonStop_Msk             (0x1UL << TPI_FFSR_FtNonStop_Pos)           /*!< TPI FFS
 945:/home/bekeband/workspace/OLIMEX_Start/src/core_cm3.h **** 
 946:/home/bekeband/workspace/OLIMEX_Start/src/core_cm3.h **** #define TPI_FFSR_TCPresent_Pos              2                                          /*!< TPI FFS
 947:/home/bekeband/workspace/OLIMEX_Start/src/core_cm3.h **** #define TPI_FFSR_TCPresent_Msk             (0x1UL << TPI_FFSR_TCPresent_Pos)           /*!< TPI FFS
 948:/home/bekeband/workspace/OLIMEX_Start/src/core_cm3.h **** 
 949:/home/bekeband/workspace/OLIMEX_Start/src/core_cm3.h **** #define TPI_FFSR_FtStopped_Pos              1                                          /*!< TPI FFS
 950:/home/bekeband/workspace/OLIMEX_Start/src/core_cm3.h **** #define TPI_FFSR_FtStopped_Msk             (0x1UL << TPI_FFSR_FtStopped_Pos)           /*!< TPI FFS
 951:/home/bekeband/workspace/OLIMEX_Start/src/core_cm3.h **** 
 952:/home/bekeband/workspace/OLIMEX_Start/src/core_cm3.h **** #define TPI_FFSR_FlInProg_Pos               0                                          /*!< TPI FFS
 953:/home/bekeband/workspace/OLIMEX_Start/src/core_cm3.h **** #define TPI_FFSR_FlInProg_Msk              (0x1UL << TPI_FFSR_FlInProg_Pos)            /*!< TPI FFS
 954:/home/bekeband/workspace/OLIMEX_Start/src/core_cm3.h **** 
 955:/home/bekeband/workspace/OLIMEX_Start/src/core_cm3.h **** /* TPI Formatter and Flush Control Register Definitions */
 956:/home/bekeband/workspace/OLIMEX_Start/src/core_cm3.h **** #define TPI_FFCR_TrigIn_Pos                 8                                          /*!< TPI FFC
 957:/home/bekeband/workspace/OLIMEX_Start/src/core_cm3.h **** #define TPI_FFCR_TrigIn_Msk                (0x1UL << TPI_FFCR_TrigIn_Pos)              /*!< TPI FFC
 958:/home/bekeband/workspace/OLIMEX_Start/src/core_cm3.h **** 
 959:/home/bekeband/workspace/OLIMEX_Start/src/core_cm3.h **** #define TPI_FFCR_EnFCont_Pos                1                                          /*!< TPI FFC
 960:/home/bekeband/workspace/OLIMEX_Start/src/core_cm3.h **** #define TPI_FFCR_EnFCont_Msk               (0x1UL << TPI_FFCR_EnFCont_Pos)             /*!< TPI FFC
 961:/home/bekeband/workspace/OLIMEX_Start/src/core_cm3.h **** 
 962:/home/bekeband/workspace/OLIMEX_Start/src/core_cm3.h **** /* TPI TRIGGER Register Definitions */
 963:/home/bekeband/workspace/OLIMEX_Start/src/core_cm3.h **** #define TPI_TRIGGER_TRIGGER_Pos             0                                          /*!< TPI TRI
 964:/home/bekeband/workspace/OLIMEX_Start/src/core_cm3.h **** #define TPI_TRIGGER_TRIGGER_Msk            (0x1UL << TPI_TRIGGER_TRIGGER_Pos)          /*!< TPI TRI
 965:/home/bekeband/workspace/OLIMEX_Start/src/core_cm3.h **** 
 966:/home/bekeband/workspace/OLIMEX_Start/src/core_cm3.h **** /* TPI Integration ETM Data Register Definitions (FIFO0) */
 967:/home/bekeband/workspace/OLIMEX_Start/src/core_cm3.h **** #define TPI_FIFO0_ITM_ATVALID_Pos          29                                          /*!< TPI FIF
 968:/home/bekeband/workspace/OLIMEX_Start/src/core_cm3.h **** #define TPI_FIFO0_ITM_ATVALID_Msk          (0x3UL << TPI_FIFO0_ITM_ATVALID_Pos)        /*!< TPI FIF
 969:/home/bekeband/workspace/OLIMEX_Start/src/core_cm3.h **** 
 970:/home/bekeband/workspace/OLIMEX_Start/src/core_cm3.h **** #define TPI_FIFO0_ITM_bytecount_Pos        27                                          /*!< TPI FIF
 971:/home/bekeband/workspace/OLIMEX_Start/src/core_cm3.h **** #define TPI_FIFO0_ITM_bytecount_Msk        (0x3UL << TPI_FIFO0_ITM_bytecount_Pos)      /*!< TPI FIF
 972:/home/bekeband/workspace/OLIMEX_Start/src/core_cm3.h **** 
 973:/home/bekeband/workspace/OLIMEX_Start/src/core_cm3.h **** #define TPI_FIFO0_ETM_ATVALID_Pos          26                                          /*!< TPI FIF
 974:/home/bekeband/workspace/OLIMEX_Start/src/core_cm3.h **** #define TPI_FIFO0_ETM_ATVALID_Msk          (0x3UL << TPI_FIFO0_ETM_ATVALID_Pos)        /*!< TPI FIF
 975:/home/bekeband/workspace/OLIMEX_Start/src/core_cm3.h **** 
 976:/home/bekeband/workspace/OLIMEX_Start/src/core_cm3.h **** #define TPI_FIFO0_ETM_bytecount_Pos        24                                          /*!< TPI FIF
 977:/home/bekeband/workspace/OLIMEX_Start/src/core_cm3.h **** #define TPI_FIFO0_ETM_bytecount_Msk        (0x3UL << TPI_FIFO0_ETM_bytecount_Pos)      /*!< TPI FIF
 978:/home/bekeband/workspace/OLIMEX_Start/src/core_cm3.h **** 
 979:/home/bekeband/workspace/OLIMEX_Start/src/core_cm3.h **** #define TPI_FIFO0_ETM2_Pos                 16                                          /*!< TPI FIF
 980:/home/bekeband/workspace/OLIMEX_Start/src/core_cm3.h **** #define TPI_FIFO0_ETM2_Msk                 (0xFFUL << TPI_FIFO0_ETM2_Pos)              /*!< TPI FIF
 981:/home/bekeband/workspace/OLIMEX_Start/src/core_cm3.h **** 
 982:/home/bekeband/workspace/OLIMEX_Start/src/core_cm3.h **** #define TPI_FIFO0_ETM1_Pos                  8                                          /*!< TPI FIF
 983:/home/bekeband/workspace/OLIMEX_Start/src/core_cm3.h **** #define TPI_FIFO0_ETM1_Msk                 (0xFFUL << TPI_FIFO0_ETM1_Pos)              /*!< TPI FIF
 984:/home/bekeband/workspace/OLIMEX_Start/src/core_cm3.h **** 
 985:/home/bekeband/workspace/OLIMEX_Start/src/core_cm3.h **** #define TPI_FIFO0_ETM0_Pos                  0                                          /*!< TPI FIF
 986:/home/bekeband/workspace/OLIMEX_Start/src/core_cm3.h **** #define TPI_FIFO0_ETM0_Msk                 (0xFFUL << TPI_FIFO0_ETM0_Pos)              /*!< TPI FIF
 987:/home/bekeband/workspace/OLIMEX_Start/src/core_cm3.h **** 
 988:/home/bekeband/workspace/OLIMEX_Start/src/core_cm3.h **** /* TPI ITATBCTR2 Register Definitions */
 989:/home/bekeband/workspace/OLIMEX_Start/src/core_cm3.h **** #define TPI_ITATBCTR2_ATREADY_Pos           0                                          /*!< TPI ITA
 990:/home/bekeband/workspace/OLIMEX_Start/src/core_cm3.h **** #define TPI_ITATBCTR2_ATREADY_Msk          (0x1UL << TPI_ITATBCTR2_ATREADY_Pos)        /*!< TPI ITA
 991:/home/bekeband/workspace/OLIMEX_Start/src/core_cm3.h **** 
 992:/home/bekeband/workspace/OLIMEX_Start/src/core_cm3.h **** /* TPI Integration ITM Data Register Definitions (FIFO1) */
 993:/home/bekeband/workspace/OLIMEX_Start/src/core_cm3.h **** #define TPI_FIFO1_ITM_ATVALID_Pos          29                                          /*!< TPI FIF
 994:/home/bekeband/workspace/OLIMEX_Start/src/core_cm3.h **** #define TPI_FIFO1_ITM_ATVALID_Msk          (0x3UL << TPI_FIFO1_ITM_ATVALID_Pos)        /*!< TPI FIF
 995:/home/bekeband/workspace/OLIMEX_Start/src/core_cm3.h **** 
 996:/home/bekeband/workspace/OLIMEX_Start/src/core_cm3.h **** #define TPI_FIFO1_ITM_bytecount_Pos        27                                          /*!< TPI FIF
 997:/home/bekeband/workspace/OLIMEX_Start/src/core_cm3.h **** #define TPI_FIFO1_ITM_bytecount_Msk        (0x3UL << TPI_FIFO1_ITM_bytecount_Pos)      /*!< TPI FIF
 998:/home/bekeband/workspace/OLIMEX_Start/src/core_cm3.h **** 
 999:/home/bekeband/workspace/OLIMEX_Start/src/core_cm3.h **** #define TPI_FIFO1_ETM_ATVALID_Pos          26                                          /*!< TPI FIF
1000:/home/bekeband/workspace/OLIMEX_Start/src/core_cm3.h **** #define TPI_FIFO1_ETM_ATVALID_Msk          (0x3UL << TPI_FIFO1_ETM_ATVALID_Pos)        /*!< TPI FIF
1001:/home/bekeband/workspace/OLIMEX_Start/src/core_cm3.h **** 
1002:/home/bekeband/workspace/OLIMEX_Start/src/core_cm3.h **** #define TPI_FIFO1_ETM_bytecount_Pos        24                                          /*!< TPI FIF
1003:/home/bekeband/workspace/OLIMEX_Start/src/core_cm3.h **** #define TPI_FIFO1_ETM_bytecount_Msk        (0x3UL << TPI_FIFO1_ETM_bytecount_Pos)      /*!< TPI FIF
1004:/home/bekeband/workspace/OLIMEX_Start/src/core_cm3.h **** 
1005:/home/bekeband/workspace/OLIMEX_Start/src/core_cm3.h **** #define TPI_FIFO1_ITM2_Pos                 16                                          /*!< TPI FIF
1006:/home/bekeband/workspace/OLIMEX_Start/src/core_cm3.h **** #define TPI_FIFO1_ITM2_Msk                 (0xFFUL << TPI_FIFO1_ITM2_Pos)              /*!< TPI FIF
1007:/home/bekeband/workspace/OLIMEX_Start/src/core_cm3.h **** 
1008:/home/bekeband/workspace/OLIMEX_Start/src/core_cm3.h **** #define TPI_FIFO1_ITM1_Pos                  8                                          /*!< TPI FIF
1009:/home/bekeband/workspace/OLIMEX_Start/src/core_cm3.h **** #define TPI_FIFO1_ITM1_Msk                 (0xFFUL << TPI_FIFO1_ITM1_Pos)              /*!< TPI FIF
1010:/home/bekeband/workspace/OLIMEX_Start/src/core_cm3.h **** 
1011:/home/bekeband/workspace/OLIMEX_Start/src/core_cm3.h **** #define TPI_FIFO1_ITM0_Pos                  0                                          /*!< TPI FIF
1012:/home/bekeband/workspace/OLIMEX_Start/src/core_cm3.h **** #define TPI_FIFO1_ITM0_Msk                 (0xFFUL << TPI_FIFO1_ITM0_Pos)              /*!< TPI FIF
1013:/home/bekeband/workspace/OLIMEX_Start/src/core_cm3.h **** 
1014:/home/bekeband/workspace/OLIMEX_Start/src/core_cm3.h **** /* TPI ITATBCTR0 Register Definitions */
1015:/home/bekeband/workspace/OLIMEX_Start/src/core_cm3.h **** #define TPI_ITATBCTR0_ATREADY_Pos           0                                          /*!< TPI ITA
1016:/home/bekeband/workspace/OLIMEX_Start/src/core_cm3.h **** #define TPI_ITATBCTR0_ATREADY_Msk          (0x1UL << TPI_ITATBCTR0_ATREADY_Pos)        /*!< TPI ITA
1017:/home/bekeband/workspace/OLIMEX_Start/src/core_cm3.h **** 
1018:/home/bekeband/workspace/OLIMEX_Start/src/core_cm3.h **** /* TPI Integration Mode Control Register Definitions */
1019:/home/bekeband/workspace/OLIMEX_Start/src/core_cm3.h **** #define TPI_ITCTRL_Mode_Pos                 0                                          /*!< TPI ITC
1020:/home/bekeband/workspace/OLIMEX_Start/src/core_cm3.h **** #define TPI_ITCTRL_Mode_Msk                (0x1UL << TPI_ITCTRL_Mode_Pos)              /*!< TPI ITC
1021:/home/bekeband/workspace/OLIMEX_Start/src/core_cm3.h **** 
1022:/home/bekeband/workspace/OLIMEX_Start/src/core_cm3.h **** /* TPI DEVID Register Definitions */
1023:/home/bekeband/workspace/OLIMEX_Start/src/core_cm3.h **** #define TPI_DEVID_NRZVALID_Pos             11                                          /*!< TPI DEV
1024:/home/bekeband/workspace/OLIMEX_Start/src/core_cm3.h **** #define TPI_DEVID_NRZVALID_Msk             (0x1UL << TPI_DEVID_NRZVALID_Pos)           /*!< TPI DEV
1025:/home/bekeband/workspace/OLIMEX_Start/src/core_cm3.h **** 
1026:/home/bekeband/workspace/OLIMEX_Start/src/core_cm3.h **** #define TPI_DEVID_MANCVALID_Pos            10                                          /*!< TPI DEV
1027:/home/bekeband/workspace/OLIMEX_Start/src/core_cm3.h **** #define TPI_DEVID_MANCVALID_Msk            (0x1UL << TPI_DEVID_MANCVALID_Pos)          /*!< TPI DEV
1028:/home/bekeband/workspace/OLIMEX_Start/src/core_cm3.h **** 
1029:/home/bekeband/workspace/OLIMEX_Start/src/core_cm3.h **** #define TPI_DEVID_PTINVALID_Pos             9                                          /*!< TPI DEV
1030:/home/bekeband/workspace/OLIMEX_Start/src/core_cm3.h **** #define TPI_DEVID_PTINVALID_Msk            (0x1UL << TPI_DEVID_PTINVALID_Pos)          /*!< TPI DEV
1031:/home/bekeband/workspace/OLIMEX_Start/src/core_cm3.h **** 
1032:/home/bekeband/workspace/OLIMEX_Start/src/core_cm3.h **** #define TPI_DEVID_MinBufSz_Pos              6                                          /*!< TPI DEV
1033:/home/bekeband/workspace/OLIMEX_Start/src/core_cm3.h **** #define TPI_DEVID_MinBufSz_Msk             (0x7UL << TPI_DEVID_MinBufSz_Pos)           /*!< TPI DEV
1034:/home/bekeband/workspace/OLIMEX_Start/src/core_cm3.h **** 
1035:/home/bekeband/workspace/OLIMEX_Start/src/core_cm3.h **** #define TPI_DEVID_AsynClkIn_Pos             5                                          /*!< TPI DEV
1036:/home/bekeband/workspace/OLIMEX_Start/src/core_cm3.h **** #define TPI_DEVID_AsynClkIn_Msk            (0x1UL << TPI_DEVID_AsynClkIn_Pos)          /*!< TPI DEV
1037:/home/bekeband/workspace/OLIMEX_Start/src/core_cm3.h **** 
1038:/home/bekeband/workspace/OLIMEX_Start/src/core_cm3.h **** #define TPI_DEVID_NrTraceInput_Pos          0                                          /*!< TPI DEV
1039:/home/bekeband/workspace/OLIMEX_Start/src/core_cm3.h **** #define TPI_DEVID_NrTraceInput_Msk         (0x1FUL << TPI_DEVID_NrTraceInput_Pos)      /*!< TPI DEV
1040:/home/bekeband/workspace/OLIMEX_Start/src/core_cm3.h **** 
1041:/home/bekeband/workspace/OLIMEX_Start/src/core_cm3.h **** /* TPI DEVTYPE Register Definitions */
1042:/home/bekeband/workspace/OLIMEX_Start/src/core_cm3.h **** #define TPI_DEVTYPE_SubType_Pos             0                                          /*!< TPI DEV
1043:/home/bekeband/workspace/OLIMEX_Start/src/core_cm3.h **** #define TPI_DEVTYPE_SubType_Msk            (0xFUL << TPI_DEVTYPE_SubType_Pos)          /*!< TPI DEV
1044:/home/bekeband/workspace/OLIMEX_Start/src/core_cm3.h **** 
1045:/home/bekeband/workspace/OLIMEX_Start/src/core_cm3.h **** #define TPI_DEVTYPE_MajorType_Pos           4                                          /*!< TPI DEV
1046:/home/bekeband/workspace/OLIMEX_Start/src/core_cm3.h **** #define TPI_DEVTYPE_MajorType_Msk          (0xFUL << TPI_DEVTYPE_MajorType_Pos)        /*!< TPI DEV
1047:/home/bekeband/workspace/OLIMEX_Start/src/core_cm3.h **** 
1048:/home/bekeband/workspace/OLIMEX_Start/src/core_cm3.h **** /*@}*/ /* end of group CMSIS_TPI */
1049:/home/bekeband/workspace/OLIMEX_Start/src/core_cm3.h **** 
1050:/home/bekeband/workspace/OLIMEX_Start/src/core_cm3.h **** 
1051:/home/bekeband/workspace/OLIMEX_Start/src/core_cm3.h **** #if (__MPU_PRESENT == 1)
1052:/home/bekeband/workspace/OLIMEX_Start/src/core_cm3.h **** /** \ingroup  CMSIS_core_register
1053:/home/bekeband/workspace/OLIMEX_Start/src/core_cm3.h ****     \defgroup CMSIS_MPU     Memory Protection Unit (MPU)
1054:/home/bekeband/workspace/OLIMEX_Start/src/core_cm3.h ****     \brief      Type definitions for the Memory Protection Unit (MPU)
1055:/home/bekeband/workspace/OLIMEX_Start/src/core_cm3.h ****   @{
1056:/home/bekeband/workspace/OLIMEX_Start/src/core_cm3.h ****  */
1057:/home/bekeband/workspace/OLIMEX_Start/src/core_cm3.h **** 
1058:/home/bekeband/workspace/OLIMEX_Start/src/core_cm3.h **** /** \brief  Structure type to access the Memory Protection Unit (MPU).
1059:/home/bekeband/workspace/OLIMEX_Start/src/core_cm3.h ****  */
1060:/home/bekeband/workspace/OLIMEX_Start/src/core_cm3.h **** typedef struct
1061:/home/bekeband/workspace/OLIMEX_Start/src/core_cm3.h **** {
1062:/home/bekeband/workspace/OLIMEX_Start/src/core_cm3.h ****   __I  uint32_t TYPE;                    /*!< Offset: 0x000 (R/ )  MPU Type Register               
1063:/home/bekeband/workspace/OLIMEX_Start/src/core_cm3.h ****   __IO uint32_t CTRL;                    /*!< Offset: 0x004 (R/W)  MPU Control Register            
1064:/home/bekeband/workspace/OLIMEX_Start/src/core_cm3.h ****   __IO uint32_t RNR;                     /*!< Offset: 0x008 (R/W)  MPU Region RNRber Register      
1065:/home/bekeband/workspace/OLIMEX_Start/src/core_cm3.h ****   __IO uint32_t RBAR;                    /*!< Offset: 0x00C (R/W)  MPU Region Base Address Register
1066:/home/bekeband/workspace/OLIMEX_Start/src/core_cm3.h ****   __IO uint32_t RASR;                    /*!< Offset: 0x010 (R/W)  MPU Region Attribute and Size Re
1067:/home/bekeband/workspace/OLIMEX_Start/src/core_cm3.h ****   __IO uint32_t RBAR_A1;                 /*!< Offset: 0x014 (R/W)  MPU Alias 1 Region Base Address 
1068:/home/bekeband/workspace/OLIMEX_Start/src/core_cm3.h ****   __IO uint32_t RASR_A1;                 /*!< Offset: 0x018 (R/W)  MPU Alias 1 Region Attribute and
1069:/home/bekeband/workspace/OLIMEX_Start/src/core_cm3.h ****   __IO uint32_t RBAR_A2;                 /*!< Offset: 0x01C (R/W)  MPU Alias 2 Region Base Address 
1070:/home/bekeband/workspace/OLIMEX_Start/src/core_cm3.h ****   __IO uint32_t RASR_A2;                 /*!< Offset: 0x020 (R/W)  MPU Alias 2 Region Attribute and
1071:/home/bekeband/workspace/OLIMEX_Start/src/core_cm3.h ****   __IO uint32_t RBAR_A3;                 /*!< Offset: 0x024 (R/W)  MPU Alias 3 Region Base Address 
1072:/home/bekeband/workspace/OLIMEX_Start/src/core_cm3.h ****   __IO uint32_t RASR_A3;                 /*!< Offset: 0x028 (R/W)  MPU Alias 3 Region Attribute and
1073:/home/bekeband/workspace/OLIMEX_Start/src/core_cm3.h **** } MPU_Type;
1074:/home/bekeband/workspace/OLIMEX_Start/src/core_cm3.h **** 
1075:/home/bekeband/workspace/OLIMEX_Start/src/core_cm3.h **** /* MPU Type Register */
1076:/home/bekeband/workspace/OLIMEX_Start/src/core_cm3.h **** #define MPU_TYPE_IREGION_Pos               16                                             /*!< MPU 
1077:/home/bekeband/workspace/OLIMEX_Start/src/core_cm3.h **** #define MPU_TYPE_IREGION_Msk               (0xFFUL << MPU_TYPE_IREGION_Pos)               /*!< MPU 
1078:/home/bekeband/workspace/OLIMEX_Start/src/core_cm3.h **** 
1079:/home/bekeband/workspace/OLIMEX_Start/src/core_cm3.h **** #define MPU_TYPE_DREGION_Pos                8                                             /*!< MPU 
1080:/home/bekeband/workspace/OLIMEX_Start/src/core_cm3.h **** #define MPU_TYPE_DREGION_Msk               (0xFFUL << MPU_TYPE_DREGION_Pos)               /*!< MPU 
1081:/home/bekeband/workspace/OLIMEX_Start/src/core_cm3.h **** 
1082:/home/bekeband/workspace/OLIMEX_Start/src/core_cm3.h **** #define MPU_TYPE_SEPARATE_Pos               0                                             /*!< MPU 
1083:/home/bekeband/workspace/OLIMEX_Start/src/core_cm3.h **** #define MPU_TYPE_SEPARATE_Msk              (1UL << MPU_TYPE_SEPARATE_Pos)                 /*!< MPU 
1084:/home/bekeband/workspace/OLIMEX_Start/src/core_cm3.h **** 
1085:/home/bekeband/workspace/OLIMEX_Start/src/core_cm3.h **** /* MPU Control Register */
1086:/home/bekeband/workspace/OLIMEX_Start/src/core_cm3.h **** #define MPU_CTRL_PRIVDEFENA_Pos             2                                             /*!< MPU 
1087:/home/bekeband/workspace/OLIMEX_Start/src/core_cm3.h **** #define MPU_CTRL_PRIVDEFENA_Msk            (1UL << MPU_CTRL_PRIVDEFENA_Pos)               /*!< MPU 
1088:/home/bekeband/workspace/OLIMEX_Start/src/core_cm3.h **** 
1089:/home/bekeband/workspace/OLIMEX_Start/src/core_cm3.h **** #define MPU_CTRL_HFNMIENA_Pos               1                                             /*!< MPU 
1090:/home/bekeband/workspace/OLIMEX_Start/src/core_cm3.h **** #define MPU_CTRL_HFNMIENA_Msk              (1UL << MPU_CTRL_HFNMIENA_Pos)                 /*!< MPU 
1091:/home/bekeband/workspace/OLIMEX_Start/src/core_cm3.h **** 
1092:/home/bekeband/workspace/OLIMEX_Start/src/core_cm3.h **** #define MPU_CTRL_ENABLE_Pos                 0                                             /*!< MPU 
1093:/home/bekeband/workspace/OLIMEX_Start/src/core_cm3.h **** #define MPU_CTRL_ENABLE_Msk                (1UL << MPU_CTRL_ENABLE_Pos)                   /*!< MPU 
1094:/home/bekeband/workspace/OLIMEX_Start/src/core_cm3.h **** 
1095:/home/bekeband/workspace/OLIMEX_Start/src/core_cm3.h **** /* MPU Region Number Register */
1096:/home/bekeband/workspace/OLIMEX_Start/src/core_cm3.h **** #define MPU_RNR_REGION_Pos                  0                                             /*!< MPU 
1097:/home/bekeband/workspace/OLIMEX_Start/src/core_cm3.h **** #define MPU_RNR_REGION_Msk                 (0xFFUL << MPU_RNR_REGION_Pos)                 /*!< MPU 
1098:/home/bekeband/workspace/OLIMEX_Start/src/core_cm3.h **** 
1099:/home/bekeband/workspace/OLIMEX_Start/src/core_cm3.h **** /* MPU Region Base Address Register */
1100:/home/bekeband/workspace/OLIMEX_Start/src/core_cm3.h **** #define MPU_RBAR_ADDR_Pos                   5                                             /*!< MPU 
1101:/home/bekeband/workspace/OLIMEX_Start/src/core_cm3.h **** #define MPU_RBAR_ADDR_Msk                  (0x7FFFFFFUL << MPU_RBAR_ADDR_Pos)             /*!< MPU 
1102:/home/bekeband/workspace/OLIMEX_Start/src/core_cm3.h **** 
1103:/home/bekeband/workspace/OLIMEX_Start/src/core_cm3.h **** #define MPU_RBAR_VALID_Pos                  4                                             /*!< MPU 
1104:/home/bekeband/workspace/OLIMEX_Start/src/core_cm3.h **** #define MPU_RBAR_VALID_Msk                 (1UL << MPU_RBAR_VALID_Pos)                    /*!< MPU 
1105:/home/bekeband/workspace/OLIMEX_Start/src/core_cm3.h **** 
1106:/home/bekeband/workspace/OLIMEX_Start/src/core_cm3.h **** #define MPU_RBAR_REGION_Pos                 0                                             /*!< MPU 
1107:/home/bekeband/workspace/OLIMEX_Start/src/core_cm3.h **** #define MPU_RBAR_REGION_Msk                (0xFUL << MPU_RBAR_REGION_Pos)                 /*!< MPU 
1108:/home/bekeband/workspace/OLIMEX_Start/src/core_cm3.h **** 
1109:/home/bekeband/workspace/OLIMEX_Start/src/core_cm3.h **** /* MPU Region Attribute and Size Register */
1110:/home/bekeband/workspace/OLIMEX_Start/src/core_cm3.h **** #define MPU_RASR_ATTRS_Pos                 16                                             /*!< MPU 
1111:/home/bekeband/workspace/OLIMEX_Start/src/core_cm3.h **** #define MPU_RASR_ATTRS_Msk                 (0xFFFFUL << MPU_RASR_ATTRS_Pos)               /*!< MPU 
1112:/home/bekeband/workspace/OLIMEX_Start/src/core_cm3.h **** 
1113:/home/bekeband/workspace/OLIMEX_Start/src/core_cm3.h **** #define MPU_RASR_XN_Pos                    28                                             /*!< MPU 
1114:/home/bekeband/workspace/OLIMEX_Start/src/core_cm3.h **** #define MPU_RASR_XN_Msk                    (1UL << MPU_RASR_XN_Pos)                       /*!< MPU 
1115:/home/bekeband/workspace/OLIMEX_Start/src/core_cm3.h **** 
1116:/home/bekeband/workspace/OLIMEX_Start/src/core_cm3.h **** #define MPU_RASR_AP_Pos                    24                                             /*!< MPU 
1117:/home/bekeband/workspace/OLIMEX_Start/src/core_cm3.h **** #define MPU_RASR_AP_Msk                    (0x7UL << MPU_RASR_AP_Pos)                     /*!< MPU 
1118:/home/bekeband/workspace/OLIMEX_Start/src/core_cm3.h **** 
1119:/home/bekeband/workspace/OLIMEX_Start/src/core_cm3.h **** #define MPU_RASR_TEX_Pos                   19                                             /*!< MPU 
1120:/home/bekeband/workspace/OLIMEX_Start/src/core_cm3.h **** #define MPU_RASR_TEX_Msk                   (0x7UL << MPU_RASR_TEX_Pos)                    /*!< MPU 
1121:/home/bekeband/workspace/OLIMEX_Start/src/core_cm3.h **** 
1122:/home/bekeband/workspace/OLIMEX_Start/src/core_cm3.h **** #define MPU_RASR_S_Pos                     18                                             /*!< MPU 
1123:/home/bekeband/workspace/OLIMEX_Start/src/core_cm3.h **** #define MPU_RASR_S_Msk                     (1UL << MPU_RASR_S_Pos)                        /*!< MPU 
1124:/home/bekeband/workspace/OLIMEX_Start/src/core_cm3.h **** 
1125:/home/bekeband/workspace/OLIMEX_Start/src/core_cm3.h **** #define MPU_RASR_C_Pos                     17                                             /*!< MPU 
1126:/home/bekeband/workspace/OLIMEX_Start/src/core_cm3.h **** #define MPU_RASR_C_Msk                     (1UL << MPU_RASR_C_Pos)                        /*!< MPU 
1127:/home/bekeband/workspace/OLIMEX_Start/src/core_cm3.h **** 
1128:/home/bekeband/workspace/OLIMEX_Start/src/core_cm3.h **** #define MPU_RASR_B_Pos                     16                                             /*!< MPU 
1129:/home/bekeband/workspace/OLIMEX_Start/src/core_cm3.h **** #define MPU_RASR_B_Msk                     (1UL << MPU_RASR_B_Pos)                        /*!< MPU 
1130:/home/bekeband/workspace/OLIMEX_Start/src/core_cm3.h **** 
1131:/home/bekeband/workspace/OLIMEX_Start/src/core_cm3.h **** #define MPU_RASR_SRD_Pos                    8                                             /*!< MPU 
1132:/home/bekeband/workspace/OLIMEX_Start/src/core_cm3.h **** #define MPU_RASR_SRD_Msk                   (0xFFUL << MPU_RASR_SRD_Pos)                   /*!< MPU 
1133:/home/bekeband/workspace/OLIMEX_Start/src/core_cm3.h **** 
1134:/home/bekeband/workspace/OLIMEX_Start/src/core_cm3.h **** #define MPU_RASR_SIZE_Pos                   1                                             /*!< MPU 
1135:/home/bekeband/workspace/OLIMEX_Start/src/core_cm3.h **** #define MPU_RASR_SIZE_Msk                  (0x1FUL << MPU_RASR_SIZE_Pos)                  /*!< MPU 
1136:/home/bekeband/workspace/OLIMEX_Start/src/core_cm3.h **** 
1137:/home/bekeband/workspace/OLIMEX_Start/src/core_cm3.h **** #define MPU_RASR_ENABLE_Pos                 0                                             /*!< MPU 
1138:/home/bekeband/workspace/OLIMEX_Start/src/core_cm3.h **** #define MPU_RASR_ENABLE_Msk                (1UL << MPU_RASR_ENABLE_Pos)                   /*!< MPU 
1139:/home/bekeband/workspace/OLIMEX_Start/src/core_cm3.h **** 
1140:/home/bekeband/workspace/OLIMEX_Start/src/core_cm3.h **** /*@} end of group CMSIS_MPU */
1141:/home/bekeband/workspace/OLIMEX_Start/src/core_cm3.h **** #endif
1142:/home/bekeband/workspace/OLIMEX_Start/src/core_cm3.h **** 
1143:/home/bekeband/workspace/OLIMEX_Start/src/core_cm3.h **** 
1144:/home/bekeband/workspace/OLIMEX_Start/src/core_cm3.h **** /** \ingroup  CMSIS_core_register
1145:/home/bekeband/workspace/OLIMEX_Start/src/core_cm3.h ****     \defgroup CMSIS_CoreDebug       Core Debug Registers (CoreDebug)
1146:/home/bekeband/workspace/OLIMEX_Start/src/core_cm3.h ****     \brief      Type definitions for the Core Debug Registers
1147:/home/bekeband/workspace/OLIMEX_Start/src/core_cm3.h ****   @{
1148:/home/bekeband/workspace/OLIMEX_Start/src/core_cm3.h ****  */
1149:/home/bekeband/workspace/OLIMEX_Start/src/core_cm3.h **** 
1150:/home/bekeband/workspace/OLIMEX_Start/src/core_cm3.h **** /** \brief  Structure type to access the Core Debug Register (CoreDebug).
1151:/home/bekeband/workspace/OLIMEX_Start/src/core_cm3.h ****  */
1152:/home/bekeband/workspace/OLIMEX_Start/src/core_cm3.h **** typedef struct
1153:/home/bekeband/workspace/OLIMEX_Start/src/core_cm3.h **** {
1154:/home/bekeband/workspace/OLIMEX_Start/src/core_cm3.h ****   __IO uint32_t DHCSR;                   /*!< Offset: 0x000 (R/W)  Debug Halting Control and Status
1155:/home/bekeband/workspace/OLIMEX_Start/src/core_cm3.h ****   __O  uint32_t DCRSR;                   /*!< Offset: 0x004 ( /W)  Debug Core Register Selector Reg
1156:/home/bekeband/workspace/OLIMEX_Start/src/core_cm3.h ****   __IO uint32_t DCRDR;                   /*!< Offset: 0x008 (R/W)  Debug Core Register Data Registe
1157:/home/bekeband/workspace/OLIMEX_Start/src/core_cm3.h ****   __IO uint32_t DEMCR;                   /*!< Offset: 0x00C (R/W)  Debug Exception and Monitor Cont
1158:/home/bekeband/workspace/OLIMEX_Start/src/core_cm3.h **** } CoreDebug_Type;
1159:/home/bekeband/workspace/OLIMEX_Start/src/core_cm3.h **** 
1160:/home/bekeband/workspace/OLIMEX_Start/src/core_cm3.h **** /* Debug Halting Control and Status Register */
1161:/home/bekeband/workspace/OLIMEX_Start/src/core_cm3.h **** #define CoreDebug_DHCSR_DBGKEY_Pos         16                                             /*!< Core
1162:/home/bekeband/workspace/OLIMEX_Start/src/core_cm3.h **** #define CoreDebug_DHCSR_DBGKEY_Msk         (0xFFFFUL << CoreDebug_DHCSR_DBGKEY_Pos)       /*!< Core
1163:/home/bekeband/workspace/OLIMEX_Start/src/core_cm3.h **** 
1164:/home/bekeband/workspace/OLIMEX_Start/src/core_cm3.h **** #define CoreDebug_DHCSR_S_RESET_ST_Pos     25                                             /*!< Core
1165:/home/bekeband/workspace/OLIMEX_Start/src/core_cm3.h **** #define CoreDebug_DHCSR_S_RESET_ST_Msk     (1UL << CoreDebug_DHCSR_S_RESET_ST_Pos)        /*!< Core
1166:/home/bekeband/workspace/OLIMEX_Start/src/core_cm3.h **** 
1167:/home/bekeband/workspace/OLIMEX_Start/src/core_cm3.h **** #define CoreDebug_DHCSR_S_RETIRE_ST_Pos    24                                             /*!< Core
1168:/home/bekeband/workspace/OLIMEX_Start/src/core_cm3.h **** #define CoreDebug_DHCSR_S_RETIRE_ST_Msk    (1UL << CoreDebug_DHCSR_S_RETIRE_ST_Pos)       /*!< Core
1169:/home/bekeband/workspace/OLIMEX_Start/src/core_cm3.h **** 
1170:/home/bekeband/workspace/OLIMEX_Start/src/core_cm3.h **** #define CoreDebug_DHCSR_S_LOCKUP_Pos       19                                             /*!< Core
1171:/home/bekeband/workspace/OLIMEX_Start/src/core_cm3.h **** #define CoreDebug_DHCSR_S_LOCKUP_Msk       (1UL << CoreDebug_DHCSR_S_LOCKUP_Pos)          /*!< Core
1172:/home/bekeband/workspace/OLIMEX_Start/src/core_cm3.h **** 
1173:/home/bekeband/workspace/OLIMEX_Start/src/core_cm3.h **** #define CoreDebug_DHCSR_S_SLEEP_Pos        18                                             /*!< Core
1174:/home/bekeband/workspace/OLIMEX_Start/src/core_cm3.h **** #define CoreDebug_DHCSR_S_SLEEP_Msk        (1UL << CoreDebug_DHCSR_S_SLEEP_Pos)           /*!< Core
1175:/home/bekeband/workspace/OLIMEX_Start/src/core_cm3.h **** 
1176:/home/bekeband/workspace/OLIMEX_Start/src/core_cm3.h **** #define CoreDebug_DHCSR_S_HALT_Pos         17                                             /*!< Core
1177:/home/bekeband/workspace/OLIMEX_Start/src/core_cm3.h **** #define CoreDebug_DHCSR_S_HALT_Msk         (1UL << CoreDebug_DHCSR_S_HALT_Pos)            /*!< Core
1178:/home/bekeband/workspace/OLIMEX_Start/src/core_cm3.h **** 
1179:/home/bekeband/workspace/OLIMEX_Start/src/core_cm3.h **** #define CoreDebug_DHCSR_S_REGRDY_Pos       16                                             /*!< Core
1180:/home/bekeband/workspace/OLIMEX_Start/src/core_cm3.h **** #define CoreDebug_DHCSR_S_REGRDY_Msk       (1UL << CoreDebug_DHCSR_S_REGRDY_Pos)          /*!< Core
1181:/home/bekeband/workspace/OLIMEX_Start/src/core_cm3.h **** 
1182:/home/bekeband/workspace/OLIMEX_Start/src/core_cm3.h **** #define CoreDebug_DHCSR_C_SNAPSTALL_Pos     5                                             /*!< Core
1183:/home/bekeband/workspace/OLIMEX_Start/src/core_cm3.h **** #define CoreDebug_DHCSR_C_SNAPSTALL_Msk    (1UL << CoreDebug_DHCSR_C_SNAPSTALL_Pos)       /*!< Core
1184:/home/bekeband/workspace/OLIMEX_Start/src/core_cm3.h **** 
1185:/home/bekeband/workspace/OLIMEX_Start/src/core_cm3.h **** #define CoreDebug_DHCSR_C_MASKINTS_Pos      3                                             /*!< Core
1186:/home/bekeband/workspace/OLIMEX_Start/src/core_cm3.h **** #define CoreDebug_DHCSR_C_MASKINTS_Msk     (1UL << CoreDebug_DHCSR_C_MASKINTS_Pos)        /*!< Core
1187:/home/bekeband/workspace/OLIMEX_Start/src/core_cm3.h **** 
1188:/home/bekeband/workspace/OLIMEX_Start/src/core_cm3.h **** #define CoreDebug_DHCSR_C_STEP_Pos          2                                             /*!< Core
1189:/home/bekeband/workspace/OLIMEX_Start/src/core_cm3.h **** #define CoreDebug_DHCSR_C_STEP_Msk         (1UL << CoreDebug_DHCSR_C_STEP_Pos)            /*!< Core
1190:/home/bekeband/workspace/OLIMEX_Start/src/core_cm3.h **** 
1191:/home/bekeband/workspace/OLIMEX_Start/src/core_cm3.h **** #define CoreDebug_DHCSR_C_HALT_Pos          1                                             /*!< Core
1192:/home/bekeband/workspace/OLIMEX_Start/src/core_cm3.h **** #define CoreDebug_DHCSR_C_HALT_Msk         (1UL << CoreDebug_DHCSR_C_HALT_Pos)            /*!< Core
1193:/home/bekeband/workspace/OLIMEX_Start/src/core_cm3.h **** 
1194:/home/bekeband/workspace/OLIMEX_Start/src/core_cm3.h **** #define CoreDebug_DHCSR_C_DEBUGEN_Pos       0                                             /*!< Core
1195:/home/bekeband/workspace/OLIMEX_Start/src/core_cm3.h **** #define CoreDebug_DHCSR_C_DEBUGEN_Msk      (1UL << CoreDebug_DHCSR_C_DEBUGEN_Pos)         /*!< Core
1196:/home/bekeband/workspace/OLIMEX_Start/src/core_cm3.h **** 
1197:/home/bekeband/workspace/OLIMEX_Start/src/core_cm3.h **** /* Debug Core Register Selector Register */
1198:/home/bekeband/workspace/OLIMEX_Start/src/core_cm3.h **** #define CoreDebug_DCRSR_REGWnR_Pos         16                                             /*!< Core
1199:/home/bekeband/workspace/OLIMEX_Start/src/core_cm3.h **** #define CoreDebug_DCRSR_REGWnR_Msk         (1UL << CoreDebug_DCRSR_REGWnR_Pos)            /*!< Core
1200:/home/bekeband/workspace/OLIMEX_Start/src/core_cm3.h **** 
1201:/home/bekeband/workspace/OLIMEX_Start/src/core_cm3.h **** #define CoreDebug_DCRSR_REGSEL_Pos          0                                             /*!< Core
1202:/home/bekeband/workspace/OLIMEX_Start/src/core_cm3.h **** #define CoreDebug_DCRSR_REGSEL_Msk         (0x1FUL << CoreDebug_DCRSR_REGSEL_Pos)         /*!< Core
1203:/home/bekeband/workspace/OLIMEX_Start/src/core_cm3.h **** 
1204:/home/bekeband/workspace/OLIMEX_Start/src/core_cm3.h **** /* Debug Exception and Monitor Control Register */
1205:/home/bekeband/workspace/OLIMEX_Start/src/core_cm3.h **** #define CoreDebug_DEMCR_TRCENA_Pos         24                                             /*!< Core
1206:/home/bekeband/workspace/OLIMEX_Start/src/core_cm3.h **** #define CoreDebug_DEMCR_TRCENA_Msk         (1UL << CoreDebug_DEMCR_TRCENA_Pos)            /*!< Core
1207:/home/bekeband/workspace/OLIMEX_Start/src/core_cm3.h **** 
1208:/home/bekeband/workspace/OLIMEX_Start/src/core_cm3.h **** #define CoreDebug_DEMCR_MON_REQ_Pos        19                                             /*!< Core
1209:/home/bekeband/workspace/OLIMEX_Start/src/core_cm3.h **** #define CoreDebug_DEMCR_MON_REQ_Msk        (1UL << CoreDebug_DEMCR_MON_REQ_Pos)           /*!< Core
1210:/home/bekeband/workspace/OLIMEX_Start/src/core_cm3.h **** 
1211:/home/bekeband/workspace/OLIMEX_Start/src/core_cm3.h **** #define CoreDebug_DEMCR_MON_STEP_Pos       18                                             /*!< Core
1212:/home/bekeband/workspace/OLIMEX_Start/src/core_cm3.h **** #define CoreDebug_DEMCR_MON_STEP_Msk       (1UL << CoreDebug_DEMCR_MON_STEP_Pos)          /*!< Core
1213:/home/bekeband/workspace/OLIMEX_Start/src/core_cm3.h **** 
1214:/home/bekeband/workspace/OLIMEX_Start/src/core_cm3.h **** #define CoreDebug_DEMCR_MON_PEND_Pos       17                                             /*!< Core
1215:/home/bekeband/workspace/OLIMEX_Start/src/core_cm3.h **** #define CoreDebug_DEMCR_MON_PEND_Msk       (1UL << CoreDebug_DEMCR_MON_PEND_Pos)          /*!< Core
1216:/home/bekeband/workspace/OLIMEX_Start/src/core_cm3.h **** 
1217:/home/bekeband/workspace/OLIMEX_Start/src/core_cm3.h **** #define CoreDebug_DEMCR_MON_EN_Pos         16                                             /*!< Core
1218:/home/bekeband/workspace/OLIMEX_Start/src/core_cm3.h **** #define CoreDebug_DEMCR_MON_EN_Msk         (1UL << CoreDebug_DEMCR_MON_EN_Pos)            /*!< Core
1219:/home/bekeband/workspace/OLIMEX_Start/src/core_cm3.h **** 
1220:/home/bekeband/workspace/OLIMEX_Start/src/core_cm3.h **** #define CoreDebug_DEMCR_VC_HARDERR_Pos     10                                             /*!< Core
1221:/home/bekeband/workspace/OLIMEX_Start/src/core_cm3.h **** #define CoreDebug_DEMCR_VC_HARDERR_Msk     (1UL << CoreDebug_DEMCR_VC_HARDERR_Pos)        /*!< Core
1222:/home/bekeband/workspace/OLIMEX_Start/src/core_cm3.h **** 
1223:/home/bekeband/workspace/OLIMEX_Start/src/core_cm3.h **** #define CoreDebug_DEMCR_VC_INTERR_Pos       9                                             /*!< Core
1224:/home/bekeband/workspace/OLIMEX_Start/src/core_cm3.h **** #define CoreDebug_DEMCR_VC_INTERR_Msk      (1UL << CoreDebug_DEMCR_VC_INTERR_Pos)         /*!< Core
1225:/home/bekeband/workspace/OLIMEX_Start/src/core_cm3.h **** 
1226:/home/bekeband/workspace/OLIMEX_Start/src/core_cm3.h **** #define CoreDebug_DEMCR_VC_BUSERR_Pos       8                                             /*!< Core
1227:/home/bekeband/workspace/OLIMEX_Start/src/core_cm3.h **** #define CoreDebug_DEMCR_VC_BUSERR_Msk      (1UL << CoreDebug_DEMCR_VC_BUSERR_Pos)         /*!< Core
1228:/home/bekeband/workspace/OLIMEX_Start/src/core_cm3.h **** 
1229:/home/bekeband/workspace/OLIMEX_Start/src/core_cm3.h **** #define CoreDebug_DEMCR_VC_STATERR_Pos      7                                             /*!< Core
1230:/home/bekeband/workspace/OLIMEX_Start/src/core_cm3.h **** #define CoreDebug_DEMCR_VC_STATERR_Msk     (1UL << CoreDebug_DEMCR_VC_STATERR_Pos)        /*!< Core
1231:/home/bekeband/workspace/OLIMEX_Start/src/core_cm3.h **** 
1232:/home/bekeband/workspace/OLIMEX_Start/src/core_cm3.h **** #define CoreDebug_DEMCR_VC_CHKERR_Pos       6                                             /*!< Core
1233:/home/bekeband/workspace/OLIMEX_Start/src/core_cm3.h **** #define CoreDebug_DEMCR_VC_CHKERR_Msk      (1UL << CoreDebug_DEMCR_VC_CHKERR_Pos)         /*!< Core
1234:/home/bekeband/workspace/OLIMEX_Start/src/core_cm3.h **** 
1235:/home/bekeband/workspace/OLIMEX_Start/src/core_cm3.h **** #define CoreDebug_DEMCR_VC_NOCPERR_Pos      5                                             /*!< Core
1236:/home/bekeband/workspace/OLIMEX_Start/src/core_cm3.h **** #define CoreDebug_DEMCR_VC_NOCPERR_Msk     (1UL << CoreDebug_DEMCR_VC_NOCPERR_Pos)        /*!< Core
1237:/home/bekeband/workspace/OLIMEX_Start/src/core_cm3.h **** 
1238:/home/bekeband/workspace/OLIMEX_Start/src/core_cm3.h **** #define CoreDebug_DEMCR_VC_MMERR_Pos        4                                             /*!< Core
1239:/home/bekeband/workspace/OLIMEX_Start/src/core_cm3.h **** #define CoreDebug_DEMCR_VC_MMERR_Msk       (1UL << CoreDebug_DEMCR_VC_MMERR_Pos)          /*!< Core
1240:/home/bekeband/workspace/OLIMEX_Start/src/core_cm3.h **** 
1241:/home/bekeband/workspace/OLIMEX_Start/src/core_cm3.h **** #define CoreDebug_DEMCR_VC_CORERESET_Pos    0                                             /*!< Core
1242:/home/bekeband/workspace/OLIMEX_Start/src/core_cm3.h **** #define CoreDebug_DEMCR_VC_CORERESET_Msk   (1UL << CoreDebug_DEMCR_VC_CORERESET_Pos)      /*!< Core
1243:/home/bekeband/workspace/OLIMEX_Start/src/core_cm3.h **** 
1244:/home/bekeband/workspace/OLIMEX_Start/src/core_cm3.h **** /*@} end of group CMSIS_CoreDebug */
1245:/home/bekeband/workspace/OLIMEX_Start/src/core_cm3.h **** 
1246:/home/bekeband/workspace/OLIMEX_Start/src/core_cm3.h **** 
1247:/home/bekeband/workspace/OLIMEX_Start/src/core_cm3.h **** /** \ingroup    CMSIS_core_register
1248:/home/bekeband/workspace/OLIMEX_Start/src/core_cm3.h ****     \defgroup   CMSIS_core_base     Core Definitions
1249:/home/bekeband/workspace/OLIMEX_Start/src/core_cm3.h ****     \brief      Definitions for base addresses, unions, and structures.
1250:/home/bekeband/workspace/OLIMEX_Start/src/core_cm3.h ****   @{
1251:/home/bekeband/workspace/OLIMEX_Start/src/core_cm3.h ****  */
1252:/home/bekeband/workspace/OLIMEX_Start/src/core_cm3.h **** 
1253:/home/bekeband/workspace/OLIMEX_Start/src/core_cm3.h **** /* Memory mapping of Cortex-M3 Hardware */
1254:/home/bekeband/workspace/OLIMEX_Start/src/core_cm3.h **** #define SCS_BASE            (0xE000E000UL)                            /*!< System Control Space Bas
1255:/home/bekeband/workspace/OLIMEX_Start/src/core_cm3.h **** #define ITM_BASE            (0xE0000000UL)                            /*!< ITM Base Address        
1256:/home/bekeband/workspace/OLIMEX_Start/src/core_cm3.h **** #define DWT_BASE            (0xE0001000UL)                            /*!< DWT Base Address        
1257:/home/bekeband/workspace/OLIMEX_Start/src/core_cm3.h **** #define TPI_BASE            (0xE0040000UL)                            /*!< TPI Base Address        
1258:/home/bekeband/workspace/OLIMEX_Start/src/core_cm3.h **** #define CoreDebug_BASE      (0xE000EDF0UL)                            /*!< Core Debug Base Address 
1259:/home/bekeband/workspace/OLIMEX_Start/src/core_cm3.h **** #define SysTick_BASE        (SCS_BASE +  0x0010UL)                    /*!< SysTick Base Address    
1260:/home/bekeband/workspace/OLIMEX_Start/src/core_cm3.h **** #define NVIC_BASE           (SCS_BASE +  0x0100UL)                    /*!< NVIC Base Address       
1261:/home/bekeband/workspace/OLIMEX_Start/src/core_cm3.h **** #define SCB_BASE            (SCS_BASE +  0x0D00UL)                    /*!< System Control Block Bas
1262:/home/bekeband/workspace/OLIMEX_Start/src/core_cm3.h **** 
1263:/home/bekeband/workspace/OLIMEX_Start/src/core_cm3.h **** #define SCnSCB              ((SCnSCB_Type    *)     SCS_BASE      )   /*!< System control Register 
1264:/home/bekeband/workspace/OLIMEX_Start/src/core_cm3.h **** #define SCB                 ((SCB_Type       *)     SCB_BASE      )   /*!< SCB configuration struct
1265:/home/bekeband/workspace/OLIMEX_Start/src/core_cm3.h **** #define SysTick             ((SysTick_Type   *)     SysTick_BASE  )   /*!< SysTick configuration st
1266:/home/bekeband/workspace/OLIMEX_Start/src/core_cm3.h **** #define NVIC                ((NVIC_Type      *)     NVIC_BASE     )   /*!< NVIC configuration struc
1267:/home/bekeband/workspace/OLIMEX_Start/src/core_cm3.h **** #define ITM                 ((ITM_Type       *)     ITM_BASE      )   /*!< ITM configuration struct
1268:/home/bekeband/workspace/OLIMEX_Start/src/core_cm3.h **** #define DWT                 ((DWT_Type       *)     DWT_BASE      )   /*!< DWT configuration struct
1269:/home/bekeband/workspace/OLIMEX_Start/src/core_cm3.h **** #define TPI                 ((TPI_Type       *)     TPI_BASE      )   /*!< TPI configuration struct
1270:/home/bekeband/workspace/OLIMEX_Start/src/core_cm3.h **** #define CoreDebug           ((CoreDebug_Type *)     CoreDebug_BASE)   /*!< Core Debug configuration
1271:/home/bekeband/workspace/OLIMEX_Start/src/core_cm3.h **** 
1272:/home/bekeband/workspace/OLIMEX_Start/src/core_cm3.h **** #if (__MPU_PRESENT == 1)
1273:/home/bekeband/workspace/OLIMEX_Start/src/core_cm3.h ****   #define MPU_BASE          (SCS_BASE +  0x0D90UL)                    /*!< Memory Protection Unit  
1274:/home/bekeband/workspace/OLIMEX_Start/src/core_cm3.h ****   #define MPU               ((MPU_Type       *)     MPU_BASE      )   /*!< Memory Protection Unit  
1275:/home/bekeband/workspace/OLIMEX_Start/src/core_cm3.h **** #endif
1276:/home/bekeband/workspace/OLIMEX_Start/src/core_cm3.h **** 
1277:/home/bekeband/workspace/OLIMEX_Start/src/core_cm3.h **** /*@} */
1278:/home/bekeband/workspace/OLIMEX_Start/src/core_cm3.h **** 
1279:/home/bekeband/workspace/OLIMEX_Start/src/core_cm3.h **** 
1280:/home/bekeband/workspace/OLIMEX_Start/src/core_cm3.h **** 
1281:/home/bekeband/workspace/OLIMEX_Start/src/core_cm3.h **** /*******************************************************************************
1282:/home/bekeband/workspace/OLIMEX_Start/src/core_cm3.h ****  *                Hardware Abstraction Layer
1283:/home/bekeband/workspace/OLIMEX_Start/src/core_cm3.h ****   Core Function Interface contains:
1284:/home/bekeband/workspace/OLIMEX_Start/src/core_cm3.h ****   - Core NVIC Functions
1285:/home/bekeband/workspace/OLIMEX_Start/src/core_cm3.h ****   - Core SysTick Functions
1286:/home/bekeband/workspace/OLIMEX_Start/src/core_cm3.h ****   - Core Debug Functions
1287:/home/bekeband/workspace/OLIMEX_Start/src/core_cm3.h ****   - Core Register Access Functions
1288:/home/bekeband/workspace/OLIMEX_Start/src/core_cm3.h ****  ******************************************************************************/
1289:/home/bekeband/workspace/OLIMEX_Start/src/core_cm3.h **** /** \defgroup CMSIS_Core_FunctionInterface Functions and Instructions Reference
1290:/home/bekeband/workspace/OLIMEX_Start/src/core_cm3.h **** */
1291:/home/bekeband/workspace/OLIMEX_Start/src/core_cm3.h **** 
1292:/home/bekeband/workspace/OLIMEX_Start/src/core_cm3.h **** 
1293:/home/bekeband/workspace/OLIMEX_Start/src/core_cm3.h **** 
1294:/home/bekeband/workspace/OLIMEX_Start/src/core_cm3.h **** /* ##########################   NVIC functions  #################################### */
1295:/home/bekeband/workspace/OLIMEX_Start/src/core_cm3.h **** /** \ingroup  CMSIS_Core_FunctionInterface
1296:/home/bekeband/workspace/OLIMEX_Start/src/core_cm3.h ****     \defgroup CMSIS_Core_NVICFunctions NVIC Functions
1297:/home/bekeband/workspace/OLIMEX_Start/src/core_cm3.h ****     \brief      Functions that manage interrupts and exceptions via the NVIC.
1298:/home/bekeband/workspace/OLIMEX_Start/src/core_cm3.h ****     @{
1299:/home/bekeband/workspace/OLIMEX_Start/src/core_cm3.h ****  */
1300:/home/bekeband/workspace/OLIMEX_Start/src/core_cm3.h **** 
1301:/home/bekeband/workspace/OLIMEX_Start/src/core_cm3.h **** /** \brief  Set Priority Grouping
1302:/home/bekeband/workspace/OLIMEX_Start/src/core_cm3.h **** 
1303:/home/bekeband/workspace/OLIMEX_Start/src/core_cm3.h ****   The function sets the priority grouping field using the required unlock sequence.
1304:/home/bekeband/workspace/OLIMEX_Start/src/core_cm3.h ****   The parameter PriorityGroup is assigned to the field SCB->AIRCR [10:8] PRIGROUP field.
1305:/home/bekeband/workspace/OLIMEX_Start/src/core_cm3.h ****   Only values from 0..7 are used.
1306:/home/bekeband/workspace/OLIMEX_Start/src/core_cm3.h ****   In case of a conflict between priority grouping and available
1307:/home/bekeband/workspace/OLIMEX_Start/src/core_cm3.h ****   priority bits (__NVIC_PRIO_BITS), the smallest possible priority group is set.
1308:/home/bekeband/workspace/OLIMEX_Start/src/core_cm3.h **** 
1309:/home/bekeband/workspace/OLIMEX_Start/src/core_cm3.h ****     \param [in]      PriorityGroup  Priority grouping field.
1310:/home/bekeband/workspace/OLIMEX_Start/src/core_cm3.h ****  */
1311:/home/bekeband/workspace/OLIMEX_Start/src/core_cm3.h **** __STATIC_INLINE void NVIC_SetPriorityGrouping(uint32_t PriorityGroup)
1312:/home/bekeband/workspace/OLIMEX_Start/src/core_cm3.h **** {
1313:/home/bekeband/workspace/OLIMEX_Start/src/core_cm3.h ****   uint32_t reg_value;
1314:/home/bekeband/workspace/OLIMEX_Start/src/core_cm3.h ****   uint32_t PriorityGroupTmp = (PriorityGroup & (uint32_t)0x07);               /* only values 0..7 a
1315:/home/bekeband/workspace/OLIMEX_Start/src/core_cm3.h **** 
1316:/home/bekeband/workspace/OLIMEX_Start/src/core_cm3.h ****   reg_value  =  SCB->AIRCR;                                                   /* read old register 
1317:/home/bekeband/workspace/OLIMEX_Start/src/core_cm3.h ****   reg_value &= ~(SCB_AIRCR_VECTKEY_Msk | SCB_AIRCR_PRIGROUP_Msk);             /* clear bits to chan
1318:/home/bekeband/workspace/OLIMEX_Start/src/core_cm3.h ****   reg_value  =  (reg_value                                 |
1319:/home/bekeband/workspace/OLIMEX_Start/src/core_cm3.h ****                 ((uint32_t)0x5FA << SCB_AIRCR_VECTKEY_Pos) |
1320:/home/bekeband/workspace/OLIMEX_Start/src/core_cm3.h ****                 (PriorityGroupTmp << 8));                                     /* Insert write key a
1321:/home/bekeband/workspace/OLIMEX_Start/src/core_cm3.h ****   SCB->AIRCR =  reg_value;
1322:/home/bekeband/workspace/OLIMEX_Start/src/core_cm3.h **** }
1323:/home/bekeband/workspace/OLIMEX_Start/src/core_cm3.h **** 
1324:/home/bekeband/workspace/OLIMEX_Start/src/core_cm3.h **** 
1325:/home/bekeband/workspace/OLIMEX_Start/src/core_cm3.h **** /** \brief  Get Priority Grouping
1326:/home/bekeband/workspace/OLIMEX_Start/src/core_cm3.h **** 
1327:/home/bekeband/workspace/OLIMEX_Start/src/core_cm3.h ****   The function reads the priority grouping field from the NVIC Interrupt Controller.
1328:/home/bekeband/workspace/OLIMEX_Start/src/core_cm3.h **** 
1329:/home/bekeband/workspace/OLIMEX_Start/src/core_cm3.h ****     \return                Priority grouping field (SCB->AIRCR [10:8] PRIGROUP field).
1330:/home/bekeband/workspace/OLIMEX_Start/src/core_cm3.h ****  */
1331:/home/bekeband/workspace/OLIMEX_Start/src/core_cm3.h **** __STATIC_INLINE uint32_t NVIC_GetPriorityGrouping(void)
1332:/home/bekeband/workspace/OLIMEX_Start/src/core_cm3.h **** {
1333:/home/bekeband/workspace/OLIMEX_Start/src/core_cm3.h ****   return ((SCB->AIRCR & SCB_AIRCR_PRIGROUP_Msk) >> SCB_AIRCR_PRIGROUP_Pos);   /* read priority grou
1334:/home/bekeband/workspace/OLIMEX_Start/src/core_cm3.h **** }
1335:/home/bekeband/workspace/OLIMEX_Start/src/core_cm3.h **** 
1336:/home/bekeband/workspace/OLIMEX_Start/src/core_cm3.h **** 
1337:/home/bekeband/workspace/OLIMEX_Start/src/core_cm3.h **** /** \brief  Enable External Interrupt
1338:/home/bekeband/workspace/OLIMEX_Start/src/core_cm3.h **** 
1339:/home/bekeband/workspace/OLIMEX_Start/src/core_cm3.h ****     The function enables a device-specific interrupt in the NVIC interrupt controller.
1340:/home/bekeband/workspace/OLIMEX_Start/src/core_cm3.h **** 
1341:/home/bekeband/workspace/OLIMEX_Start/src/core_cm3.h ****     \param [in]      IRQn  External interrupt number. Value cannot be negative.
1342:/home/bekeband/workspace/OLIMEX_Start/src/core_cm3.h ****  */
1343:/home/bekeband/workspace/OLIMEX_Start/src/core_cm3.h **** __STATIC_INLINE void NVIC_EnableIRQ(IRQn_Type IRQn)
1344:/home/bekeband/workspace/OLIMEX_Start/src/core_cm3.h **** {
1345:/home/bekeband/workspace/OLIMEX_Start/src/core_cm3.h ****   NVIC->ISER[((uint32_t)(IRQn) >> 5)] = (1 << ((uint32_t)(IRQn) & 0x1F)); /* enable interrupt */
 278              		.loc 3 1345 0
 279 003a 4FF40002 		mov	r2, #8388608
 280 003e 0B4B     		ldr	r3, .L29+8
 281 0040 1A60     		str	r2, [r3]
 282              	.LVL26:
 283              	.LBE120:
 284              	.LBE119:
 294:../src/main.c **** 
 295:../src/main.c **** 	/* Configure and enable interrupt on RC compare */
 296:../src/main.c **** 	NVIC_EnableIRQ((IRQn_Type) ID_TC0);
 297:../src/main.c **** 	tc_enable_interrupt(TC0, 0, TC_IER_CPCS);
 285              		.loc 2 297 0
 286 0042 1022     		movs	r2, #16
 287 0044 0021     		movs	r1, #0
 288 0046 2846     		mov	r0, r5
 289 0048 FFF7FEFF 		bl	tc_enable_interrupt
 290              	.LVL27:
 298:../src/main.c **** 
 299:../src/main.c **** #ifdef LED1_GPIO
 300:../src/main.c **** 	/** Start the counter if LED1 is enabled. */
 301:../src/main.c **** 	if (g_b_led1_active) {
 291              		.loc 2 301 0
 292 004c 084B     		ldr	r3, .L29+12
 293 004e 1B78     		ldrb	r3, [r3]	@ zero_extendqisi2
 294 0050 13F0FF0F 		tst	r3, #255
 295 0054 03D0     		beq	.L26
 302:../src/main.c **** 		tc_start(TC0, 0);
 296              		.loc 2 302 0
 297 0056 0021     		movs	r1, #0
 298 0058 2846     		mov	r0, r5
 299 005a FFF7FEFF 		bl	tc_start
 300              	.LVL28:
 301              	.L26:
 303:../src/main.c **** 	}
 304:../src/main.c **** #else
 305:../src/main.c **** 	tc_start(TC0, 0);
 306:../src/main.c **** #endif
 307:../src/main.c **** }
 302              		.loc 2 307 0
 303 005e 05B0     		add	sp, sp, #20
 304              		.cfi_def_cfa_offset 12
 305              		@ sp needed
 306 0060 30BD     		pop	{r4, r5, pc}
 307              	.L30:
 308 0062 00BF     		.align	2
 309              	.L29:
 310 0064 808D5B00 		.word	6000000
 311 0068 00000140 		.word	1073807360
 312 006c 00E100E0 		.word	-536813312
 313 0070 00000000 		.word	.LANCHOR0
 314              		.cfi_endproc
 315              	.LFE178:
 317              		.section	.text.configure_buttons,"ax",%progbits
 318              		.align	2
 319              		.thumb
 320              		.thumb_func
 322              	configure_buttons:
 323              	.LFB176:
 217:../src/main.c **** // [main_button1_configure]
 324              		.loc 2 217 0
 325              		.cfi_startproc
 326              		@ args = 0, pretend = 0, frame = 0
 327              		@ frame_needed = 0, uses_anonymous_args = 0
 328 0000 70B5     		push	{r4, r5, r6, lr}
 329              		.cfi_def_cfa_offset 16
 330              		.cfi_offset 4, -16
 331              		.cfi_offset 5, -12
 332              		.cfi_offset 6, -8
 333              		.cfi_offset 14, -4
 334 0002 82B0     		sub	sp, sp, #8
 335              		.cfi_def_cfa_offset 24
 220:../src/main.c **** 	pio_set_debounce_filter(PIN_PUSHBUTTON_1_PIO, PIN_PUSHBUTTON_1_MASK, 10);
 336              		.loc 2 220 0
 337 0004 0B20     		movs	r0, #11
 338 0006 FFF7FEFF 		bl	pmc_enable_periph_clk
 339              	.LVL29:
 221:../src/main.c **** 	/* Interrupt on rising edge  */
 340              		.loc 2 221 0
 341 000a 1E4C     		ldr	r4, .L33
 342 000c 0A22     		movs	r2, #10
 343 000e 4FF40021 		mov	r1, #524288
 344 0012 2046     		mov	r0, r4
 345 0014 FFF7FEFF 		bl	pio_set_debounce_filter
 346              	.LVL30:
 223:../src/main.c **** 			PIN_PUSHBUTTON_1_MASK, PIN_PUSHBUTTON_1_ATTR, Button1_Handler);
 347              		.loc 2 223 0
 348 0018 1B4B     		ldr	r3, .L33+4
 349 001a 0093     		str	r3, [sp]
 350 001c 7923     		movs	r3, #121
 351 001e 4FF40022 		mov	r2, #524288
 352 0022 0B21     		movs	r1, #11
 353 0024 2046     		mov	r0, r4
 354 0026 FFF7FEFF 		bl	pio_handler_set
 355              	.LVL31:
 356              	.LBB121:
 357              	.LBB122:
 358              		.loc 3 1345 0
 359 002a 184D     		ldr	r5, .L33+8
 360 002c 4FF40066 		mov	r6, #2048
 361 0030 2E60     		str	r6, [r5]
 362              	.LVL32:
 363              	.LBE122:
 364              	.LBE121:
 226:../src/main.c **** 			(IRQn_Type) PIN_PUSHBUTTON_1_ID, IRQ_PRIOR_PIO);
 365              		.loc 2 226 0
 366 0032 0022     		movs	r2, #0
 367 0034 0B21     		movs	r1, #11
 368 0036 2046     		mov	r0, r4
 369 0038 FFF7FEFF 		bl	pio_handler_set_priority
 370              	.LVL33:
 228:../src/main.c **** // [main_button1_configure]
 371              		.loc 2 228 0
 372 003c 4FF40021 		mov	r1, #524288
 373 0040 2046     		mov	r0, r4
 374 0042 FFF7FEFF 		bl	pio_enable_interrupt
 375              	.LVL34:
 233:../src/main.c **** 	pio_set_debounce_filter(PIN_PUSHBUTTON_2_PIO, PIN_PUSHBUTTON_2_MASK, 10);
 376              		.loc 2 233 0
 377 0046 0B20     		movs	r0, #11
 378 0048 FFF7FEFF 		bl	pmc_enable_periph_clk
 379              	.LVL35:
 234:../src/main.c **** 	/* Interrupt on falling edge */
 380              		.loc 2 234 0
 381 004c 0A22     		movs	r2, #10
 382 004e 4FF48011 		mov	r1, #1048576
 383 0052 2046     		mov	r0, r4
 384 0054 FFF7FEFF 		bl	pio_set_debounce_filter
 385              	.LVL36:
 236:../src/main.c **** 			PIN_PUSHBUTTON_2_MASK, PIN_PUSHBUTTON_2_ATTR, Button2_Handler);
 386              		.loc 2 236 0
 387 0058 0D4B     		ldr	r3, .L33+12
 388 005a 0093     		str	r3, [sp]
 389 005c 5923     		movs	r3, #89
 390 005e 4FF48012 		mov	r2, #1048576
 391 0062 0B21     		movs	r1, #11
 392 0064 2046     		mov	r0, r4
 393 0066 FFF7FEFF 		bl	pio_handler_set
 394              	.LVL37:
 395              	.LBB123:
 396              	.LBB124:
 397              		.loc 3 1345 0
 398 006a 2E60     		str	r6, [r5]
 399              	.LVL38:
 400              	.LBE124:
 401              	.LBE123:
 239:../src/main.c **** 			(IRQn_Type) PIN_PUSHBUTTON_2_ID, IRQ_PRIOR_PIO);
 402              		.loc 2 239 0
 403 006c 0022     		movs	r2, #0
 404 006e 0B21     		movs	r1, #11
 405 0070 2046     		mov	r0, r4
 406 0072 FFF7FEFF 		bl	pio_handler_set_priority
 407              	.LVL39:
 241:../src/main.c **** // [main_button2_configure]
 408              		.loc 2 241 0
 409 0076 4FF48011 		mov	r1, #1048576
 410 007a 2046     		mov	r0, r4
 411 007c FFF7FEFF 		bl	pio_enable_interrupt
 412              	.LVL40:
 244:../src/main.c **** 
 413              		.loc 2 244 0
 414 0080 02B0     		add	sp, sp, #8
 415              		.cfi_def_cfa_offset 16
 416              		@ sp needed
 417 0082 70BD     		pop	{r4, r5, r6, pc}
 418              	.L34:
 419              		.align	2
 420              	.L33:
 421 0084 000E0E40 		.word	1074662912
 422 0088 00000000 		.word	Button1_Handler
 423 008c 00E100E0 		.word	-536813312
 424 0090 00000000 		.word	Button2_Handler
 425              		.cfi_endproc
 426              	.LFE176:
 428              		.section	.text.ProcessButtonEvt,"ax",%progbits
 429              		.align	2
 430              		.thumb
 431              		.thumb_func
 433              	ProcessButtonEvt:
 434              	.LFB173:
 148:../src/main.c **** // [main_button1_evnt_process]
 435              		.loc 2 148 0
 436              		.cfi_startproc
 437              		@ args = 0, pretend = 0, frame = 0
 438              		@ frame_needed = 0, uses_anonymous_args = 0
 439              	.LVL41:
 440 0000 08B5     		push	{r3, lr}
 441              		.cfi_def_cfa_offset 8
 442              		.cfi_offset 3, -8
 443              		.cfi_offset 14, -4
 150:../src/main.c **** 		g_b_led0_active = !g_b_led0_active;
 444              		.loc 2 150 0
 445 0002 30B9     		cbnz	r0, .L36
 151:../src/main.c **** 		if (!g_b_led0_active) {
 446              		.loc 2 151 0
