   1              		.syntax unified
   2              		.cpu cortex-m3
   3              		.fpu softvfp
   4              		.eabi_attribute 20, 1
   5              		.eabi_attribute 21, 1
   6              		.eabi_attribute 23, 3
   7              		.eabi_attribute 24, 1
   8              		.eabi_attribute 25, 1
   9              		.eabi_attribute 26, 1
  10              		.eabi_attribute 30, 1
  11              		.eabi_attribute 34, 1
  12              		.eabi_attribute 18, 4
  13              		.thumb
  14              		.syntax unified
  15              		.file	"ili93xx.c"
  16              		.text
  17              	.Ltext0:
  18              		.cfi_sections	.debug_frame
  19              		.section	.text.ili93xx_delay,"ax",%progbits
  20              		.align	2
  21              		.thumb
  22              		.thumb_func
  24              	ili93xx_delay:
  25              	.LFB187:
  26              		.file 1 "../src/sam/components/display/ili93xx/ili93xx.c"
   1:../src/sam/components/display/ili93xx/ili93xx.c **** /**
   2:../src/sam/components/display/ili93xx/ili93xx.c ****  * \file
   3:../src/sam/components/display/ili93xx/ili93xx.c ****  *
   4:../src/sam/components/display/ili93xx/ili93xx.c ****  * \brief API driver for ILI93XX TFT display component.
   5:../src/sam/components/display/ili93xx/ili93xx.c ****  *
   6:../src/sam/components/display/ili93xx/ili93xx.c ****  * Copyright (c) 2013-2015 Atmel Corporation. All rights reserved.
   7:../src/sam/components/display/ili93xx/ili93xx.c ****  *
   8:../src/sam/components/display/ili93xx/ili93xx.c ****  * \asf_license_start
   9:../src/sam/components/display/ili93xx/ili93xx.c ****  *
  10:../src/sam/components/display/ili93xx/ili93xx.c ****  * \page License
  11:../src/sam/components/display/ili93xx/ili93xx.c ****  *
  12:../src/sam/components/display/ili93xx/ili93xx.c ****  * Redistribution and use in source and binary forms, with or without
  13:../src/sam/components/display/ili93xx/ili93xx.c ****  * modification, are permitted provided that the following conditions are met:
  14:../src/sam/components/display/ili93xx/ili93xx.c ****  *
  15:../src/sam/components/display/ili93xx/ili93xx.c ****  * 1. Redistributions of source code must retain the above copyright notice,
  16:../src/sam/components/display/ili93xx/ili93xx.c ****  *    this list of conditions and the following disclaimer.
  17:../src/sam/components/display/ili93xx/ili93xx.c ****  *
  18:../src/sam/components/display/ili93xx/ili93xx.c ****  * 2. Redistributions in binary form must reproduce the above copyright notice,
  19:../src/sam/components/display/ili93xx/ili93xx.c ****  *    this list of conditions and the following disclaimer in the documentation
  20:../src/sam/components/display/ili93xx/ili93xx.c ****  *    and/or other materials provided with the distribution.
  21:../src/sam/components/display/ili93xx/ili93xx.c ****  *
  22:../src/sam/components/display/ili93xx/ili93xx.c ****  * 3. The name of Atmel may not be used to endorse or promote products derived
  23:../src/sam/components/display/ili93xx/ili93xx.c ****  *    from this software without specific prior written permission.
  24:../src/sam/components/display/ili93xx/ili93xx.c ****  *
  25:../src/sam/components/display/ili93xx/ili93xx.c ****  * 4. This software may only be redistributed and used in connection with an
  26:../src/sam/components/display/ili93xx/ili93xx.c ****  *    Atmel microcontroller product.
  27:../src/sam/components/display/ili93xx/ili93xx.c ****  *
  28:../src/sam/components/display/ili93xx/ili93xx.c ****  * THIS SOFTWARE IS PROVIDED BY ATMEL "AS IS" AND ANY EXPRESS OR IMPLIED
  29:../src/sam/components/display/ili93xx/ili93xx.c ****  * WARRANTIES, INCLUDING, BUT NOT LIMITED TO, THE IMPLIED WARRANTIES OF
  30:../src/sam/components/display/ili93xx/ili93xx.c ****  * MERCHANTABILITY, FITNESS FOR A PARTICULAR PURPOSE AND NON-INFRINGEMENT ARE
  31:../src/sam/components/display/ili93xx/ili93xx.c ****  * EXPRESSLY AND SPECIFICALLY DISCLAIMED. IN NO EVENT SHALL ATMEL BE LIABLE FOR
  32:../src/sam/components/display/ili93xx/ili93xx.c ****  * ANY DIRECT, INDIRECT, INCIDENTAL, SPECIAL, EXEMPLARY, OR CONSEQUENTIAL
  33:../src/sam/components/display/ili93xx/ili93xx.c ****  * DAMAGES (INCLUDING, BUT NOT LIMITED TO, PROCUREMENT OF SUBSTITUTE GOODS
  34:../src/sam/components/display/ili93xx/ili93xx.c ****  * OR SERVICES; LOSS OF USE, DATA, OR PROFITS; OR BUSINESS INTERRUPTION)
  35:../src/sam/components/display/ili93xx/ili93xx.c ****  * HOWEVER CAUSED AND ON ANY THEORY OF LIABILITY, WHETHER IN CONTRACT,
  36:../src/sam/components/display/ili93xx/ili93xx.c ****  * STRICT LIABILITY, OR TORT (INCLUDING NEGLIGENCE OR OTHERWISE) ARISING IN
  37:../src/sam/components/display/ili93xx/ili93xx.c ****  * ANY WAY OUT OF THE USE OF THIS SOFTWARE, EVEN IF ADVISED OF THE
  38:../src/sam/components/display/ili93xx/ili93xx.c ****  * POSSIBILITY OF SUCH DAMAGE.
  39:../src/sam/components/display/ili93xx/ili93xx.c ****  *
  40:../src/sam/components/display/ili93xx/ili93xx.c ****  * \asf_license_stop
  41:../src/sam/components/display/ili93xx/ili93xx.c ****  *
  42:../src/sam/components/display/ili93xx/ili93xx.c ****  */
  43:../src/sam/components/display/ili93xx/ili93xx.c **** 
  44:../src/sam/components/display/ili93xx/ili93xx.c **** /**
  45:../src/sam/components/display/ili93xx/ili93xx.c ****  * \defgroup ili93xx_display_group Display - ILI93XX Controller
  46:../src/sam/components/display/ili93xx/ili93xx.c ****  *
  47:../src/sam/components/display/ili93xx/ili93xx.c ****  * Low-level driver for the ILI93XX LCD controller. This driver provides access
  48:../src/sam/components/display/ili93xx/ili93xx.c ****  * to the main features of the ILI93XX controller.
  49:../src/sam/components/display/ili93xx/ili93xx.c ****  * Now ILI9325 and ILI9341 are supported.
  50:../src/sam/components/display/ili93xx/ili93xx.c ****  *
  51:../src/sam/components/display/ili93xx/ili93xx.c ****  * \{
  52:../src/sam/components/display/ili93xx/ili93xx.c ****  */
  53:../src/sam/components/display/ili93xx/ili93xx.c **** /*
  54:../src/sam/components/display/ili93xx/ili93xx.c ****  * Support and FAQ: visit <a href="http://www.atmel.com/design-support/">Atmel Support</a>
  55:../src/sam/components/display/ili93xx/ili93xx.c ****  */
  56:../src/sam/components/display/ili93xx/ili93xx.c **** 
  57:../src/sam/components/display/ili93xx/ili93xx.c **** #include <string.h>
  58:../src/sam/components/display/ili93xx/ili93xx.c **** #include <stdio.h>
  59:../src/sam/components/display/ili93xx/ili93xx.c **** #include <assert.h>
  60:../src/sam/components/display/ili93xx/ili93xx.c **** #include <stdlib.h>
  61:../src/sam/components/display/ili93xx/ili93xx.c **** #include "ili93xx.h"
  62:../src/sam/components/display/ili93xx/ili93xx.c **** #include "ili9341_regs.h"
  63:../src/sam/components/display/ili93xx/ili93xx.c **** #include "ili9325_regs.h"
  64:../src/sam/components/display/ili93xx/ili93xx.c **** #include "spi_master.h"
  65:../src/sam/components/display/ili93xx/ili93xx.c **** #include "sam_gpio/sam_gpio.h"
  66:../src/sam/components/display/ili93xx/ili93xx.c **** #include "asf.h"
  67:../src/sam/components/display/ili93xx/ili93xx.c **** 
  68:../src/sam/components/display/ili93xx/ili93xx.c **** 
  69:../src/sam/components/display/ili93xx/ili93xx.c **** #define ILI9341_SPI_BAUDRATE 15000000u
  70:../src/sam/components/display/ili93xx/ili93xx.c **** 
  71:../src/sam/components/display/ili93xx/ili93xx.c **** /** Device type*/
  72:../src/sam/components/display/ili93xx/ili93xx.c **** static uint8_t g_uc_device_type = 0;
  73:../src/sam/components/display/ili93xx/ili93xx.c **** 
  74:../src/sam/components/display/ili93xx/ili93xx.c **** /** Pixel cache used to speed up communication */
  75:../src/sam/components/display/ili93xx/ili93xx.c **** #define LCD_DATA_CACHE_SIZE ILI93XX_LCD_WIDTH
  76:../src/sam/components/display/ili93xx/ili93xx.c **** 
  77:../src/sam/components/display/ili93xx/ili93xx.c **** /** LCD X-axis and Y-axis length */
  78:../src/sam/components/display/ili93xx/ili93xx.c **** static uint32_t g_ul_lcd_x_length = ILI93XX_LCD_WIDTH;
  79:../src/sam/components/display/ili93xx/ili93xx.c **** static uint32_t g_ul_lcd_y_length = ILI93XX_LCD_HEIGHT;
  80:../src/sam/components/display/ili93xx/ili93xx.c **** 
  81:../src/sam/components/display/ili93xx/ili93xx.c **** static ili93xx_color_t g_ul_pixel_cache[LCD_DATA_CACHE_SIZE];
  82:../src/sam/components/display/ili93xx/ili93xx.c **** 
  83:../src/sam/components/display/ili93xx/ili93xx.c **** static volatile ili93xx_coord_t limit_start_x, limit_start_y;
  84:../src/sam/components/display/ili93xx/ili93xx.c **** static volatile ili93xx_coord_t limit_end_x, limit_end_y;
  85:../src/sam/components/display/ili93xx/ili93xx.c **** 
  86:../src/sam/components/display/ili93xx/ili93xx.c **** /** End transfer flag */
  87:../src/sam/components/display/ili93xx/ili93xx.c **** static volatile uint8_t g_by_transfend_flag = 0;
  88:../src/sam/components/display/ili93xx/ili93xx.c **** 
  89:../src/sam/components/display/ili93xx/ili93xx.c **** /** Global variable describing the font size used by the driver */
  90:../src/sam/components/display/ili93xx/ili93xx.c **** const struct ili93xx_font gfont = {10, 14};
  91:../src/sam/components/display/ili93xx/ili93xx.c **** 
  92:../src/sam/components/display/ili93xx/ili93xx.c **** /**
  93:../src/sam/components/display/ili93xx/ili93xx.c ****  * Character set table for font 10x14
  94:../src/sam/components/display/ili93xx/ili93xx.c ****  * Coding format:
  95:../src/sam/components/display/ili93xx/ili93xx.c ****  * Char height is 14 bits, which is coded using 2 bytes per column
  96:../src/sam/components/display/ili93xx/ili93xx.c ****  * (2 unused bits).
  97:../src/sam/components/display/ili93xx/ili93xx.c ****  * Char width is 10 bits.
  98:../src/sam/components/display/ili93xx/ili93xx.c ****  */
  99:../src/sam/components/display/ili93xx/ili93xx.c **** const uint8_t p_uc_charset10x14[] = {
 100:../src/sam/components/display/ili93xx/ili93xx.c **** 	0x00, 0x00, 0x00, 0x00, 0x00, 0x00, 0x00, 0x00, 0x00, 0x00,
 101:../src/sam/components/display/ili93xx/ili93xx.c **** 	0x00, 0x00, 0x00, 0x00, 0x00, 0x00, 0x00, 0x00, 0x00, 0x00,
 102:../src/sam/components/display/ili93xx/ili93xx.c **** 	0x00, 0x00, 0x00, 0x00, 0x00, 0x00, 0x00, 0x00, 0xFF, 0xCC,
 103:../src/sam/components/display/ili93xx/ili93xx.c **** 	0xFF, 0xCC, 0x00, 0x00, 0x00, 0x00, 0x00, 0x00, 0x00, 0x00,
 104:../src/sam/components/display/ili93xx/ili93xx.c **** 	0x00, 0x00, 0x00, 0x00, 0xF0, 0x00, 0xF0, 0x00, 0x00, 0x00,
 105:../src/sam/components/display/ili93xx/ili93xx.c **** 	0x00, 0x00, 0xF0, 0x00, 0xF0, 0x00, 0x00, 0x00, 0x00, 0x00,
 106:../src/sam/components/display/ili93xx/ili93xx.c **** 	0x0C, 0xC0, 0x0C, 0xC0, 0xFF, 0xFC, 0xFF, 0xFC, 0x0C, 0xC0,
 107:../src/sam/components/display/ili93xx/ili93xx.c **** 	0x0C, 0xC0, 0xFF, 0xFC, 0xFF, 0xFC, 0x0C, 0xC0, 0x0C, 0xC0,
 108:../src/sam/components/display/ili93xx/ili93xx.c **** 	0x0C, 0x60, 0x1E, 0x70, 0x3F, 0x30, 0x33, 0x30, 0xFF, 0xFC,
 109:../src/sam/components/display/ili93xx/ili93xx.c **** 	0xFF, 0xFC, 0x33, 0x30, 0x33, 0xF0, 0x39, 0xE0, 0x18, 0xC0,
 110:../src/sam/components/display/ili93xx/ili93xx.c **** 	0x60, 0x00, 0xF0, 0x0C, 0xF0, 0x3C, 0x60, 0xF0, 0x03, 0xC0,
 111:../src/sam/components/display/ili93xx/ili93xx.c **** 	0x0F, 0x00, 0x3C, 0x18, 0xF0, 0x3C, 0xC0, 0x3C, 0x00, 0x18,
 112:../src/sam/components/display/ili93xx/ili93xx.c **** 	0x3C, 0xF0, 0x7F, 0xF8, 0xC3, 0x1C, 0xC7, 0x8C, 0xCF, 0xCC,
 113:../src/sam/components/display/ili93xx/ili93xx.c **** 	0xDC, 0xEC, 0x78, 0x78, 0x30, 0x30, 0x00, 0xFC, 0x00, 0xCC,
 114:../src/sam/components/display/ili93xx/ili93xx.c **** 	0x00, 0x00, 0x00, 0x00, 0x00, 0x00, 0x44, 0x00, 0xEC, 0x00,
 115:../src/sam/components/display/ili93xx/ili93xx.c **** 	0xF8, 0x00, 0x70, 0x00, 0x00, 0x00, 0x00, 0x00, 0x00, 0x00,
 116:../src/sam/components/display/ili93xx/ili93xx.c **** 	0x00, 0x00, 0x00, 0x00, 0x0F, 0xC0, 0x3F, 0xF0, 0x78, 0x78,
 117:../src/sam/components/display/ili93xx/ili93xx.c **** 	0x60, 0x18, 0xC0, 0x0C, 0xC0, 0x0C, 0x00, 0x00, 0x00, 0x00,
 118:../src/sam/components/display/ili93xx/ili93xx.c **** 	0x00, 0x00, 0x00, 0x00, 0xC0, 0x0C, 0xC0, 0x0C, 0x60, 0x18,
 119:../src/sam/components/display/ili93xx/ili93xx.c **** 	0x78, 0x78, 0x3F, 0xF0, 0x0F, 0xC0, 0x00, 0x00, 0x00, 0x00,
 120:../src/sam/components/display/ili93xx/ili93xx.c **** 	0x0C, 0x60, 0x0E, 0xE0, 0x07, 0xC0, 0x03, 0x80, 0x3F, 0xF8,
 121:../src/sam/components/display/ili93xx/ili93xx.c **** 	0x3F, 0xF8, 0x03, 0x80, 0x07, 0xC0, 0x0E, 0xE0, 0x0C, 0x60,
 122:../src/sam/components/display/ili93xx/ili93xx.c **** 	0x03, 0x00, 0x03, 0x00, 0x03, 0x00, 0x03, 0x00, 0x3F, 0xF0,
 123:../src/sam/components/display/ili93xx/ili93xx.c **** 	0x3F, 0xF0, 0x03, 0x00, 0x03, 0x00, 0x03, 0x00, 0x03, 0x00,
 124:../src/sam/components/display/ili93xx/ili93xx.c **** 	0x00, 0x44, 0x00, 0xEC, 0x00, 0xF8, 0x00, 0x70, 0x00, 0x00,
 125:../src/sam/components/display/ili93xx/ili93xx.c **** 	0x00, 0x00, 0x00, 0x00, 0x00, 0x00, 0x00, 0x00, 0x00, 0x00,
 126:../src/sam/components/display/ili93xx/ili93xx.c **** 	0x03, 0x00, 0x03, 0x00, 0x03, 0x00, 0x03, 0x00, 0x03, 0x00,
 127:../src/sam/components/display/ili93xx/ili93xx.c **** 	0x03, 0x00, 0x03, 0x00, 0x03, 0x00, 0x03, 0x00, 0x03, 0x00,
 128:../src/sam/components/display/ili93xx/ili93xx.c **** 	0x00, 0x18, 0x00, 0x3C, 0x00, 0x3C, 0x00, 0x18, 0x00, 0x00,
 129:../src/sam/components/display/ili93xx/ili93xx.c **** 	0x00, 0x00, 0x00, 0x00, 0x00, 0x00, 0x00, 0x00, 0x00, 0x00,
 130:../src/sam/components/display/ili93xx/ili93xx.c **** 	0x00, 0x00, 0x00, 0x0C, 0x00, 0x3C, 0x00, 0xF0, 0x03, 0xC0,
 131:../src/sam/components/display/ili93xx/ili93xx.c **** 	0x0F, 0x00, 0x3C, 0x00, 0xF0, 0x00, 0xC0, 0x00, 0x00, 0x00,
 132:../src/sam/components/display/ili93xx/ili93xx.c **** 	0x3F, 0xF0, 0x7F, 0xF8, 0xE0, 0xFC, 0xC1, 0xCC, 0xC3, 0x8C,
 133:../src/sam/components/display/ili93xx/ili93xx.c **** 	0xC7, 0x0C, 0xCE, 0x0C, 0xFC, 0x1C, 0x7F, 0xF8, 0x3F, 0xF0,
 134:../src/sam/components/display/ili93xx/ili93xx.c **** 	0x00, 0x00, 0x00, 0x00, 0x30, 0x0C, 0x70, 0x0C, 0xFF, 0xFC,
 135:../src/sam/components/display/ili93xx/ili93xx.c **** 	0xFF, 0xFC, 0x00, 0x0C, 0x00, 0x0C, 0x00, 0x00, 0x00, 0x00,
 136:../src/sam/components/display/ili93xx/ili93xx.c **** 	0x30, 0x0C, 0x70, 0x1C, 0xE0, 0x3C, 0xC0, 0x7C, 0xC0, 0xEC,
 137:../src/sam/components/display/ili93xx/ili93xx.c **** 	0xC1, 0xCC, 0xC3, 0x8C, 0xE7, 0x0C, 0x7E, 0x0C, 0x3C, 0x0C,
 138:../src/sam/components/display/ili93xx/ili93xx.c **** 	0x30, 0x30, 0x70, 0x38, 0xE0, 0x1C, 0xC0, 0x0C, 0xC0, 0x0C,
 139:../src/sam/components/display/ili93xx/ili93xx.c **** 	0xC3, 0x0C, 0xC3, 0x0C, 0xE3, 0x1C, 0x7F, 0xF8, 0x3C, 0xF0,
 140:../src/sam/components/display/ili93xx/ili93xx.c **** 	0x03, 0xC0, 0x07, 0xC0, 0x0E, 0xC0, 0x1C, 0xC0, 0x38, 0xC0,
 141:../src/sam/components/display/ili93xx/ili93xx.c **** 	0x70, 0xC0, 0xFF, 0xFC, 0xFF, 0xFC, 0x00, 0xC0, 0x00, 0xC0,
 142:../src/sam/components/display/ili93xx/ili93xx.c **** 	0xFC, 0x30, 0xFC, 0x38, 0xCC, 0x1C, 0xCC, 0x0C, 0xCC, 0x0C,
 143:../src/sam/components/display/ili93xx/ili93xx.c **** 	0xCC, 0x0C, 0xCC, 0x0C, 0xCE, 0x1C, 0xC7, 0xF8, 0xC3, 0xF0,
 144:../src/sam/components/display/ili93xx/ili93xx.c **** 	0x3F, 0xF0, 0x7F, 0xF8, 0xE3, 0x1C, 0xC3, 0x0C, 0xC3, 0x0C,
 145:../src/sam/components/display/ili93xx/ili93xx.c **** 	0xC3, 0x0C, 0xC3, 0x0C, 0xE3, 0x9C, 0x71, 0xF8, 0x30, 0xF0,
 146:../src/sam/components/display/ili93xx/ili93xx.c **** 	0xC0, 0x00, 0xC0, 0x00, 0xC0, 0x00, 0xC0, 0x00, 0xC3, 0xFC,
 147:../src/sam/components/display/ili93xx/ili93xx.c **** 	0xC7, 0xFC, 0xCE, 0x00, 0xDC, 0x00, 0xF8, 0x00, 0xF0, 0x00,
 148:../src/sam/components/display/ili93xx/ili93xx.c **** 	0x3C, 0xF0, 0x7F, 0xF8, 0xE7, 0x9C, 0xC3, 0x0C, 0xC3, 0x0C,
 149:../src/sam/components/display/ili93xx/ili93xx.c **** 	0xC3, 0x0C, 0xC3, 0x0C, 0xE7, 0x9C, 0x7F, 0xF8, 0x3C, 0xF0,
 150:../src/sam/components/display/ili93xx/ili93xx.c **** 	0x3C, 0x00, 0x7E, 0x00, 0xE7, 0x0C, 0xC3, 0x0C, 0xC3, 0x1C,
 151:../src/sam/components/display/ili93xx/ili93xx.c **** 	0xC3, 0x38, 0xC3, 0x70, 0xE7, 0xE0, 0x7F, 0xC0, 0x3F, 0x80,
 152:../src/sam/components/display/ili93xx/ili93xx.c **** 	0x00, 0x00, 0x00, 0x00, 0x00, 0x00, 0x18, 0x60, 0x3C, 0xF0,
 153:../src/sam/components/display/ili93xx/ili93xx.c **** 	0x3C, 0xF0, 0x18, 0x60, 0x00, 0x00, 0x00, 0x00, 0x00, 0x00,
 154:../src/sam/components/display/ili93xx/ili93xx.c **** 	0x00, 0x00, 0x00, 0x00, 0x00, 0x00, 0x18, 0x44, 0x3C, 0xEC,
 155:../src/sam/components/display/ili93xx/ili93xx.c **** 	0x3C, 0xF8, 0x18, 0x70, 0x00, 0x00, 0x00, 0x00, 0x00, 0x00,
 156:../src/sam/components/display/ili93xx/ili93xx.c **** 	0x00, 0x00, 0x03, 0x00, 0x07, 0x80, 0x0F, 0xC0, 0x1C, 0xE0,
 157:../src/sam/components/display/ili93xx/ili93xx.c **** 	0x38, 0x70, 0x70, 0x38, 0xE0, 0x1C, 0xC0, 0x0C, 0x00, 0x00,
 158:../src/sam/components/display/ili93xx/ili93xx.c **** 	0x0C, 0xC0, 0x0C, 0xC0, 0x0C, 0xC0, 0x0C, 0xC0, 0x0C, 0xC0,
 159:../src/sam/components/display/ili93xx/ili93xx.c **** 	0x0C, 0xC0, 0x0C, 0xC0, 0x0C, 0xC0, 0x0C, 0xC0, 0x0C, 0xC0,
 160:../src/sam/components/display/ili93xx/ili93xx.c **** 	0x00, 0x00, 0xC0, 0x0C, 0xE0, 0x1C, 0x70, 0x38, 0x38, 0x70,
 161:../src/sam/components/display/ili93xx/ili93xx.c **** 	0x1C, 0xE0, 0x0F, 0xC0, 0x07, 0x80, 0x03, 0x00, 0x00, 0x00,
 162:../src/sam/components/display/ili93xx/ili93xx.c **** 	0x30, 0x00, 0x70, 0x00, 0xE0, 0x00, 0xC0, 0x00, 0xC1, 0xEC,
 163:../src/sam/components/display/ili93xx/ili93xx.c **** 	0xC3, 0xEC, 0xC3, 0x00, 0xE6, 0x00, 0x7E, 0x00, 0x3C, 0x00,
 164:../src/sam/components/display/ili93xx/ili93xx.c **** 	0x30, 0xF0, 0x71, 0xF8, 0xE3, 0x9C, 0xC3, 0x0C, 0xC3, 0xFC,
 165:../src/sam/components/display/ili93xx/ili93xx.c **** 	0xC3, 0xFC, 0xC0, 0x0C, 0xE0, 0x1C, 0x7F, 0xF8, 0x3F, 0xF0,
 166:../src/sam/components/display/ili93xx/ili93xx.c **** 	0x3F, 0xFC, 0x7F, 0xFC, 0xE0, 0xC0, 0xC0, 0xC0, 0xC0, 0xC0,
 167:../src/sam/components/display/ili93xx/ili93xx.c **** 	0xC0, 0xC0, 0xC0, 0xC0, 0xE0, 0xC0, 0x7F, 0xFC, 0x3F, 0xFC,
 168:../src/sam/components/display/ili93xx/ili93xx.c **** 	0xFF, 0xFC, 0xFF, 0xFC, 0xC3, 0x0C, 0xC3, 0x0C, 0xC3, 0x0C,
 169:../src/sam/components/display/ili93xx/ili93xx.c **** 	0xC3, 0x0C, 0xC3, 0x0C, 0xE7, 0x9C, 0x7F, 0xF8, 0x3C, 0xF0,
 170:../src/sam/components/display/ili93xx/ili93xx.c **** 	0x3F, 0xF0, 0x7F, 0xF8, 0xE0, 0x1C, 0xC0, 0x0C, 0xC0, 0x0C,
 171:../src/sam/components/display/ili93xx/ili93xx.c **** 	0xC0, 0x0C, 0xC0, 0x0C, 0xE0, 0x1C, 0x70, 0x38, 0x30, 0x30,
 172:../src/sam/components/display/ili93xx/ili93xx.c **** 	0xFF, 0xFC, 0xFF, 0xFC, 0xC0, 0x0C, 0xC0, 0x0C, 0xC0, 0x0C,
 173:../src/sam/components/display/ili93xx/ili93xx.c **** 	0xC0, 0x0C, 0xC0, 0x0C, 0xE0, 0x1C, 0x7F, 0xF8, 0x3F, 0xF0,
 174:../src/sam/components/display/ili93xx/ili93xx.c **** 	0xFF, 0xFC, 0xFF, 0xFC, 0xC3, 0x0C, 0xC3, 0x0C, 0xC3, 0x0C,
 175:../src/sam/components/display/ili93xx/ili93xx.c **** 	0xC3, 0x0C, 0xC3, 0x0C, 0xC3, 0x0C, 0xC0, 0x0C, 0xC0, 0x0C,
 176:../src/sam/components/display/ili93xx/ili93xx.c **** 	0xFF, 0xFC, 0xFF, 0xFC, 0xC3, 0x00, 0xC3, 0x00, 0xC3, 0x00,
 177:../src/sam/components/display/ili93xx/ili93xx.c **** 	0xC3, 0x00, 0xC3, 0x00, 0xC3, 0x00, 0xC0, 0x00, 0xC0, 0x00,
 178:../src/sam/components/display/ili93xx/ili93xx.c **** 	0x3F, 0xF0, 0x7F, 0xF8, 0xE0, 0x1C, 0xC0, 0x0C, 0xC0, 0x0C,
 179:../src/sam/components/display/ili93xx/ili93xx.c **** 	0xC3, 0x0C, 0xC3, 0x0C, 0xE3, 0x1C, 0x73, 0xF8, 0x33, 0xF0,
 180:../src/sam/components/display/ili93xx/ili93xx.c **** 	0xFF, 0xFC, 0xFF, 0xFC, 0x03, 0x00, 0x03, 0x00, 0x03, 0x00,
 181:../src/sam/components/display/ili93xx/ili93xx.c **** 	0x03, 0x00, 0x03, 0x00, 0x03, 0x00, 0xFF, 0xFC, 0xFF, 0xFC,
 182:../src/sam/components/display/ili93xx/ili93xx.c **** 	0x00, 0x00, 0x00, 0x00, 0xC0, 0x0C, 0xC0, 0x0C, 0xFF, 0xFC,
 183:../src/sam/components/display/ili93xx/ili93xx.c **** 	0xFF, 0xFC, 0xC0, 0x0C, 0xC0, 0x0C, 0x00, 0x00, 0x00, 0x00,
 184:../src/sam/components/display/ili93xx/ili93xx.c **** 	0x00, 0x30, 0x00, 0x38, 0xC0, 0x1C, 0xC0, 0x0C, 0xC0, 0x0C,
 185:../src/sam/components/display/ili93xx/ili93xx.c **** 	0xC0, 0x1C, 0xFF, 0xF8, 0xFF, 0xF0, 0xC0, 0x00, 0xC0, 0x00,
 186:../src/sam/components/display/ili93xx/ili93xx.c **** 	0xFF, 0xFC, 0xFF, 0xFC, 0x07, 0x80, 0x07, 0x80, 0x0F, 0xC0,
 187:../src/sam/components/display/ili93xx/ili93xx.c **** 	0x1C, 0xE0, 0x38, 0x70, 0x70, 0x38, 0xE0, 0x1C, 0xC0, 0x0C,
 188:../src/sam/components/display/ili93xx/ili93xx.c **** 	0xFF, 0xFC, 0xFF, 0xFC, 0x00, 0x0C, 0x00, 0x0C, 0x00, 0x0C,
 189:../src/sam/components/display/ili93xx/ili93xx.c **** 	0x00, 0x0C, 0x00, 0x0C, 0x00, 0x0C, 0x00, 0x0C, 0x00, 0x0C,
 190:../src/sam/components/display/ili93xx/ili93xx.c **** 	0xFF, 0xFC, 0xFF, 0xFC, 0x70, 0x00, 0x38, 0x00, 0x1F, 0x00,
 191:../src/sam/components/display/ili93xx/ili93xx.c **** 	0x1F, 0x00, 0x38, 0x00, 0x70, 0x00, 0xFF, 0xFC, 0xFF, 0xFC,
 192:../src/sam/components/display/ili93xx/ili93xx.c **** 	0xFF, 0xFC, 0xFF, 0xFC, 0x1C, 0x00, 0x0E, 0x00, 0x07, 0x00,
 193:../src/sam/components/display/ili93xx/ili93xx.c **** 	0x03, 0x80, 0x01, 0xC0, 0x00, 0xE0, 0xFF, 0xFC, 0xFF, 0xFC,
 194:../src/sam/components/display/ili93xx/ili93xx.c **** 	0x3F, 0xF0, 0x7F, 0xF8, 0xE0, 0x1C, 0xC0, 0x0C, 0xC0, 0x0C,
 195:../src/sam/components/display/ili93xx/ili93xx.c **** 	0xC0, 0x0C, 0xC0, 0x0C, 0xE0, 0x1C, 0x7F, 0xF8, 0x3F, 0xF0,
 196:../src/sam/components/display/ili93xx/ili93xx.c **** 	0xFF, 0xFC, 0xFF, 0xFC, 0xC3, 0x00, 0xC3, 0x00, 0xC3, 0x00,
 197:../src/sam/components/display/ili93xx/ili93xx.c **** 	0xC3, 0x00, 0xC3, 0x00, 0xE7, 0x00, 0x7E, 0x00, 0x3C, 0x00,
 198:../src/sam/components/display/ili93xx/ili93xx.c **** 	0x3F, 0xF0, 0x7F, 0xF8, 0xE0, 0x1C, 0xC0, 0x0C, 0xC0, 0xCC,
 199:../src/sam/components/display/ili93xx/ili93xx.c **** 	0xC0, 0xEC, 0xC0, 0x7C, 0xE0, 0x38, 0x7F, 0xFC, 0x3F, 0xEC,
 200:../src/sam/components/display/ili93xx/ili93xx.c **** 	0xFF, 0xFC, 0xFF, 0xFC, 0xC3, 0x00, 0xC3, 0x80, 0xC3, 0x80,
 201:../src/sam/components/display/ili93xx/ili93xx.c **** 	0xC3, 0xC0, 0xC3, 0xC0, 0xE7, 0x70, 0x7E, 0x3C, 0x3C, 0x1C,
 202:../src/sam/components/display/ili93xx/ili93xx.c **** 	0x3C, 0x18, 0x7E, 0x1C, 0xE7, 0x0C, 0xC3, 0x0C, 0xC3, 0x0C,
 203:../src/sam/components/display/ili93xx/ili93xx.c **** 	0xC3, 0x0C, 0xC3, 0x0C, 0xC3, 0x9C, 0xE1, 0xF8, 0x60, 0xF0,
 204:../src/sam/components/display/ili93xx/ili93xx.c **** 	0xC0, 0x00, 0xC0, 0x00, 0xC0, 0x00, 0xC0, 0x00, 0xFF, 0xFC,
 205:../src/sam/components/display/ili93xx/ili93xx.c **** 	0xFF, 0xFC, 0xC0, 0x00, 0xC0, 0x00, 0xC0, 0x00, 0xC0, 0x00,
 206:../src/sam/components/display/ili93xx/ili93xx.c **** 	0xFF, 0xF0, 0xFF, 0xF8, 0x00, 0x1C, 0x00, 0x0C, 0x00, 0x0C,
 207:../src/sam/components/display/ili93xx/ili93xx.c **** 	0x00, 0x0C, 0x00, 0x0C, 0x00, 0x1C, 0xFF, 0xF8, 0xFF, 0xF0,
 208:../src/sam/components/display/ili93xx/ili93xx.c **** 	0xFF, 0xC0, 0xFF, 0xE0, 0x00, 0x70, 0x00, 0x38, 0x00, 0x1C,
 209:../src/sam/components/display/ili93xx/ili93xx.c **** 	0x00, 0x1C, 0x00, 0x38, 0x00, 0x70, 0xFF, 0xE0, 0xFF, 0xC0,
 210:../src/sam/components/display/ili93xx/ili93xx.c **** 	0xFF, 0xF0, 0xFF, 0xF8, 0x00, 0x1C, 0x00, 0x3C, 0x00, 0xF8,
 211:../src/sam/components/display/ili93xx/ili93xx.c **** 	0x00, 0xF8, 0x00, 0x3C, 0x00, 0x1C, 0xFF, 0xF8, 0xFF, 0xF0,
 212:../src/sam/components/display/ili93xx/ili93xx.c **** 	0xF0, 0x3C, 0xF8, 0x7C, 0x1C, 0xE0, 0x0F, 0xC0, 0x07, 0x80,
 213:../src/sam/components/display/ili93xx/ili93xx.c **** 	0x07, 0x80, 0x0F, 0xC0, 0x1C, 0xE0, 0xF8, 0x7C, 0xF0, 0x3C,
 214:../src/sam/components/display/ili93xx/ili93xx.c **** 	0xFC, 0x00, 0xFE, 0x00, 0x07, 0x00, 0x03, 0x80, 0x01, 0xFC,
 215:../src/sam/components/display/ili93xx/ili93xx.c **** 	0x01, 0xFC, 0x03, 0x80, 0x07, 0x00, 0xFE, 0x00, 0xFC, 0x00,
 216:../src/sam/components/display/ili93xx/ili93xx.c **** 	0xC0, 0x3C, 0xC0, 0x7C, 0xC0, 0xEC, 0xC1, 0xCC, 0xC3, 0x8C,
 217:../src/sam/components/display/ili93xx/ili93xx.c **** 	0xC7, 0x0C, 0xCE, 0x0C, 0xDC, 0x0C, 0xF8, 0x0C, 0xF0, 0x0C,
 218:../src/sam/components/display/ili93xx/ili93xx.c **** 	0x00, 0x00, 0x00, 0x00, 0xFF, 0xFC, 0xFF, 0xFC, 0xC0, 0x0C,
 219:../src/sam/components/display/ili93xx/ili93xx.c **** 	0xC0, 0x0C, 0xC0, 0x0C, 0x00, 0x00, 0x00, 0x00, 0x00, 0x00,
 220:../src/sam/components/display/ili93xx/ili93xx.c **** 	0x30, 0x00, 0x30, 0x00, 0x0C, 0x00, 0x0C, 0x00, 0x03, 0x00,
 221:../src/sam/components/display/ili93xx/ili93xx.c **** 	0x03, 0x00, 0x00, 0xC0, 0x00, 0xC0, 0x00, 0x30, 0x00, 0x30,
 222:../src/sam/components/display/ili93xx/ili93xx.c **** 	0x00, 0x00, 0x00, 0x00, 0xC0, 0x0C, 0xC0, 0x0C, 0xC0, 0x0C,
 223:../src/sam/components/display/ili93xx/ili93xx.c **** 	0xFF, 0xFC, 0xFF, 0xFC, 0x00, 0x00, 0x00, 0x00, 0x00, 0x00,
 224:../src/sam/components/display/ili93xx/ili93xx.c **** 	0x0C, 0x00, 0x1C, 0x00, 0x38, 0x00, 0x70, 0x00, 0xE0, 0x00,
 225:../src/sam/components/display/ili93xx/ili93xx.c **** 	0xE0, 0x00, 0x70, 0x00, 0x38, 0x00, 0x1C, 0x00, 0x0C, 0x00,
 226:../src/sam/components/display/ili93xx/ili93xx.c **** 	0x00, 0x0C, 0x00, 0x0C, 0x00, 0x0C, 0x00, 0x0C, 0x00, 0x0C,
 227:../src/sam/components/display/ili93xx/ili93xx.c **** 	0x00, 0x0C, 0x00, 0x0C, 0x00, 0x0C, 0x00, 0x0C, 0x00, 0x0C,
 228:../src/sam/components/display/ili93xx/ili93xx.c **** 	0x00, 0x00, 0x00, 0x00, 0xC0, 0x00, 0xE0, 0x00, 0x70, 0x00,
 229:../src/sam/components/display/ili93xx/ili93xx.c **** 	0x38, 0x00, 0x18, 0x00, 0x00, 0x00, 0x00, 0x00, 0x00, 0x00,
 230:../src/sam/components/display/ili93xx/ili93xx.c **** 	0x00, 0x30, 0x06, 0x78, 0x0E, 0xFC, 0x0C, 0xCC, 0x0C, 0xCC,
 231:../src/sam/components/display/ili93xx/ili93xx.c **** 	0x0C, 0xCC, 0x0C, 0xCC, 0x0E, 0xCC, 0x07, 0xFC, 0x03, 0xF8,
 232:../src/sam/components/display/ili93xx/ili93xx.c **** 	0xFF, 0xFC, 0xFF, 0xFC, 0x03, 0x0C, 0x03, 0x0C, 0x03, 0x0C,
 233:../src/sam/components/display/ili93xx/ili93xx.c **** 	0x03, 0x0C, 0x03, 0x0C, 0x03, 0x9C, 0x01, 0xF8, 0x00, 0xF0,
 234:../src/sam/components/display/ili93xx/ili93xx.c **** 	0x03, 0xF0, 0x07, 0xF8, 0x0E, 0x1C, 0x0C, 0x0C, 0x0C, 0x0C,
 235:../src/sam/components/display/ili93xx/ili93xx.c **** 	0x0C, 0x0C, 0x0C, 0x0C, 0x0E, 0x1C, 0x07, 0x38, 0x03, 0x30,
 236:../src/sam/components/display/ili93xx/ili93xx.c **** 	0x00, 0xF0, 0x01, 0xF8, 0x03, 0x9C, 0x03, 0x0C, 0x03, 0x0C,
 237:../src/sam/components/display/ili93xx/ili93xx.c **** 	0x03, 0x0C, 0x03, 0x0C, 0x03, 0x0C, 0xFF, 0xFC, 0xFF, 0xFC,
 238:../src/sam/components/display/ili93xx/ili93xx.c **** 	0x03, 0xF0, 0x07, 0xF8, 0x0E, 0xDC, 0x0C, 0xCC, 0x0C, 0xCC,
 239:../src/sam/components/display/ili93xx/ili93xx.c **** 	0x0C, 0xCC, 0x0C, 0xCC, 0x0E, 0xDC, 0x07, 0xD8, 0x03, 0x90,
 240:../src/sam/components/display/ili93xx/ili93xx.c **** 	0x00, 0x00, 0x03, 0x00, 0x3F, 0xFC, 0x7F, 0xFC, 0xE3, 0x00,
 241:../src/sam/components/display/ili93xx/ili93xx.c **** 	0xE3, 0x00, 0x70, 0x00, 0x30, 0x00, 0x00, 0x00, 0x00, 0x00,
 242:../src/sam/components/display/ili93xx/ili93xx.c **** 	0x03, 0x18, 0x07, 0x9C, 0x0F, 0xCC, 0x0C, 0xCC, 0x0C, 0xCC,
 243:../src/sam/components/display/ili93xx/ili93xx.c **** 	0x0C, 0xCC, 0x0C, 0xCC, 0x0C, 0xDC, 0x0F, 0xF8, 0x07, 0xF0,
 244:../src/sam/components/display/ili93xx/ili93xx.c **** 	0xFF, 0xFC, 0xFF, 0xFC, 0x03, 0x00, 0x03, 0x00, 0x03, 0x00,
 245:../src/sam/components/display/ili93xx/ili93xx.c **** 	0x03, 0x00, 0x03, 0x80, 0x01, 0xFC, 0x00, 0xFC, 0x00, 0x00,
 246:../src/sam/components/display/ili93xx/ili93xx.c **** 	0x00, 0x00, 0x00, 0x00, 0x00, 0x00, 0x00, 0x00, 0x1B, 0xFC,
 247:../src/sam/components/display/ili93xx/ili93xx.c **** 	0x1B, 0xFC, 0x00, 0x00, 0x00, 0x00, 0x00, 0x00, 0x00, 0x00,
 248:../src/sam/components/display/ili93xx/ili93xx.c **** 	0x00, 0x00, 0x00, 0x30, 0x00, 0x38, 0x00, 0x1C, 0x00, 0x0C,
 249:../src/sam/components/display/ili93xx/ili93xx.c **** 	0x00, 0x0C, 0x00, 0x1C, 0xCF, 0xF8, 0xCF, 0xF0, 0x00, 0x00,
 250:../src/sam/components/display/ili93xx/ili93xx.c **** 	0x00, 0x00, 0xFF, 0xFC, 0xFF, 0xFC, 0x00, 0xE0, 0x01, 0xE0,
 251:../src/sam/components/display/ili93xx/ili93xx.c **** 	0x03, 0xF0, 0x07, 0x38, 0x0E, 0x1C, 0x0C, 0x0C, 0x00, 0x00,
 252:../src/sam/components/display/ili93xx/ili93xx.c **** 	0x00, 0x00, 0x00, 0x00, 0xC0, 0x0C, 0xC0, 0x0C, 0xFF, 0xFC,
 253:../src/sam/components/display/ili93xx/ili93xx.c **** 	0xFF, 0xFC, 0x00, 0x0C, 0x00, 0x0C, 0x00, 0x00, 0x00, 0x00,
 254:../src/sam/components/display/ili93xx/ili93xx.c **** 	0x0F, 0xFC, 0x0F, 0xFC, 0x0E, 0x00, 0x07, 0x00, 0x03, 0xC0,
 255:../src/sam/components/display/ili93xx/ili93xx.c **** 	0x03, 0xC0, 0x07, 0x00, 0x0E, 0x00, 0x0F, 0xFC, 0x0F, 0xFC,
 256:../src/sam/components/display/ili93xx/ili93xx.c **** 	0x0F, 0xFC, 0x0F, 0xFC, 0x03, 0x00, 0x07, 0x00, 0x0E, 0x00,
 257:../src/sam/components/display/ili93xx/ili93xx.c **** 	0x0C, 0x00, 0x0C, 0x00, 0x0E, 0x00, 0x07, 0xFC, 0x03, 0xFC,
 258:../src/sam/components/display/ili93xx/ili93xx.c **** 	0x03, 0xF0, 0x07, 0xF8, 0x0E, 0x1C, 0x0C, 0x0C, 0x0C, 0x0C,
 259:../src/sam/components/display/ili93xx/ili93xx.c **** 	0x0C, 0x0C, 0x0C, 0x0C, 0x0E, 0x1C, 0x07, 0xF8, 0x03, 0xF0,
 260:../src/sam/components/display/ili93xx/ili93xx.c **** 	0x0F, 0xFC, 0x0F, 0xFC, 0x0C, 0xC0, 0x0C, 0xC0, 0x0C, 0xC0,
 261:../src/sam/components/display/ili93xx/ili93xx.c **** 	0x0C, 0xC0, 0x0C, 0xC0, 0x0F, 0xC0, 0x07, 0x80, 0x03, 0x00,
 262:../src/sam/components/display/ili93xx/ili93xx.c **** 	0x03, 0x00, 0x07, 0x80, 0x0F, 0xC0, 0x0C, 0xC0, 0x0C, 0xC0,
 263:../src/sam/components/display/ili93xx/ili93xx.c **** 	0x0C, 0xC0, 0x0C, 0xC0, 0x0C, 0xC0, 0x0F, 0xFC, 0x0F, 0xFC,
 264:../src/sam/components/display/ili93xx/ili93xx.c **** 	0x0F, 0xFC, 0x0F, 0xFC, 0x03, 0x80, 0x07, 0x00, 0x0E, 0x00,
 265:../src/sam/components/display/ili93xx/ili93xx.c **** 	0x0C, 0x00, 0x0C, 0x00, 0x0E, 0x00, 0x07, 0x00, 0x03, 0x00,
 266:../src/sam/components/display/ili93xx/ili93xx.c **** 	0x03, 0x18, 0x07, 0x9C, 0x0F, 0xCC, 0x0C, 0xCC, 0x0C, 0xCC,
 267:../src/sam/components/display/ili93xx/ili93xx.c **** 	0x0C, 0xCC, 0x0C, 0xCC, 0x0C, 0xFC, 0x0E, 0x78, 0x06, 0x30,
 268:../src/sam/components/display/ili93xx/ili93xx.c **** 	0x00, 0x00, 0x0C, 0x00, 0x0C, 0x00, 0xFF, 0xF0, 0xFF, 0xF8,
 269:../src/sam/components/display/ili93xx/ili93xx.c **** 	0x0C, 0x1C, 0x0C, 0x1C, 0x0C, 0x38, 0x0C, 0x30, 0x00, 0x00,
 270:../src/sam/components/display/ili93xx/ili93xx.c **** 	0x0F, 0xF0, 0x0F, 0xF8, 0x00, 0x1C, 0x00, 0x0C, 0x00, 0x0C,
 271:../src/sam/components/display/ili93xx/ili93xx.c **** 	0x00, 0x0C, 0x00, 0x0C, 0x00, 0x1C, 0x0F, 0xF8, 0x0F, 0xF0,
 272:../src/sam/components/display/ili93xx/ili93xx.c **** 	0x0F, 0xC0, 0x0F, 0xE0, 0x00, 0x70, 0x00, 0x38, 0x00, 0x1C,
 273:../src/sam/components/display/ili93xx/ili93xx.c **** 	0x00, 0x1C, 0x00, 0x38, 0x00, 0x70, 0x0F, 0xE0, 0x0F, 0xC0,
 274:../src/sam/components/display/ili93xx/ili93xx.c **** 	0x0F, 0xF0, 0x0F, 0xF8, 0x00, 0x1C, 0x00, 0x1C, 0x00, 0xF8,
 275:../src/sam/components/display/ili93xx/ili93xx.c **** 	0x00, 0xF8, 0x00, 0x1C, 0x00, 0x1C, 0x0F, 0xF8, 0x0F, 0xF0,
 276:../src/sam/components/display/ili93xx/ili93xx.c **** 	0x0C, 0x0C, 0x0E, 0x1C, 0x07, 0x38, 0x03, 0xF0, 0x01, 0xE0,
 277:../src/sam/components/display/ili93xx/ili93xx.c **** 	0x01, 0xE0, 0x03, 0xF0, 0x07, 0x38, 0x0E, 0x1C, 0x0C, 0x0C,
 278:../src/sam/components/display/ili93xx/ili93xx.c **** 	0x0C, 0x00, 0x0E, 0x00, 0x07, 0x0C, 0x03, 0x9C, 0x01, 0xF8,
 279:../src/sam/components/display/ili93xx/ili93xx.c **** 	0x01, 0xF0, 0x03, 0x80, 0x07, 0x00, 0x0E, 0x00, 0x0C, 0x00,
 280:../src/sam/components/display/ili93xx/ili93xx.c **** 	0x0C, 0x0C, 0x0C, 0x1C, 0x0C, 0x3C, 0x0C, 0x7C, 0x0C, 0xEC,
 281:../src/sam/components/display/ili93xx/ili93xx.c **** 	0x0D, 0xCC, 0x0F, 0x8C, 0x0F, 0x0C, 0x0E, 0x0C, 0x0C, 0x0C,
 282:../src/sam/components/display/ili93xx/ili93xx.c **** 	0x00, 0x00, 0x03, 0x00, 0x07, 0x80, 0x3F, 0xF0, 0x7C, 0xF8,
 283:../src/sam/components/display/ili93xx/ili93xx.c **** 	0xE0, 0x1C, 0xC0, 0x0C, 0xC0, 0x0C, 0xC0, 0x0C, 0x00, 0x00,
 284:../src/sam/components/display/ili93xx/ili93xx.c **** 	0x03, 0x0C, 0x03, 0x0C, 0x3F, 0xFC, 0x7F, 0xFC, 0xE3, 0x0C,
 285:../src/sam/components/display/ili93xx/ili93xx.c **** 	0xC3, 0x0C, 0xC0, 0x0C, 0xE0, 0x0C, 0x70, 0x0C, 0x30, 0x0C,
 286:../src/sam/components/display/ili93xx/ili93xx.c **** 	0x00, 0x00, 0xC0, 0x0C, 0xC0, 0x0C, 0xC0, 0x0C, 0xE0, 0x1C,
 287:../src/sam/components/display/ili93xx/ili93xx.c **** 	0x7C, 0xF8, 0x3F, 0xF0, 0x07, 0x80, 0x03, 0x00, 0x00, 0x00,
 288:../src/sam/components/display/ili93xx/ili93xx.c **** 	0xC0, 0x00, 0xC0, 0x00, 0xC0, 0x00, 0xC0, 0x00, 0xC0, 0x00,
 289:../src/sam/components/display/ili93xx/ili93xx.c **** 	0xC0, 0x00, 0xC0, 0x00, 0xC0, 0x00, 0xC0, 0x00, 0xC0, 0x00,
 290:../src/sam/components/display/ili93xx/ili93xx.c **** 	0xFF, 0xFC, 0xFF, 0xFC, 0xFF, 0xFC, 0xFF, 0xFC, 0xFF, 0xFC,
 291:../src/sam/components/display/ili93xx/ili93xx.c **** 	0xFF, 0xFC, 0xFF, 0xFC, 0xFF, 0xFC, 0xFF, 0xFC, 0xFF, 0xFC
 292:../src/sam/components/display/ili93xx/ili93xx.c **** };
 293:../src/sam/components/display/ili93xx/ili93xx.c **** 
 294:../src/sam/components/display/ili93xx/ili93xx.c **** /**
 295:../src/sam/components/display/ili93xx/ili93xx.c ****  * \brief Send command to LCD controller.
 296:../src/sam/components/display/ili93xx/ili93xx.c ****  *
 297:../src/sam/components/display/ili93xx/ili93xx.c ****  * \param uc_cmd command.
 298:../src/sam/components/display/ili93xx/ili93xx.c ****  */
 299:../src/sam/components/display/ili93xx/ili93xx.c **** static void ili9341_write_cmd(uint8_t uc_cmd)
 300:../src/sam/components/display/ili93xx/ili93xx.c **** {
 301:../src/sam/components/display/ili93xx/ili93xx.c ****   /* Configure SPI Chip Select: SPI Mode 0, 8bits */
 302:../src/sam/components/display/ili93xx/ili93xx.c **** //  spi_set_bits_per_transfer(BOARD_ILI9341_SPI, BOARD_ILI9341_SPI_NPCS, SPI_CSR_BITS_8_BIT);
 303:../src/sam/components/display/ili93xx/ili93xx.c ****   /* Enable SPI */
 304:../src/sam/components/display/ili93xx/ili93xx.c **** //  spi_enable(BOARD_ILI9341_SPI);
 305:../src/sam/components/display/ili93xx/ili93xx.c **** 
 306:../src/sam/components/display/ili93xx/ili93xx.c ****   /* Transfer data/command pin. (Select command.) */
 307:../src/sam/components/display/ili93xx/ili93xx.c ****   gpio_set_pin_low(BOARD_ILI9341_DC_GPIO);
 308:../src/sam/components/display/ili93xx/ili93xx.c ****   spi_write(BOARD_ILI9341_SPI, uc_cmd, BOARD_ILI9341_SPI_NPCS, 0);
 309:../src/sam/components/display/ili93xx/ili93xx.c **** 
 310:../src/sam/components/display/ili93xx/ili93xx.c ****   /* Disable SPI */
 311:../src/sam/components/display/ili93xx/ili93xx.c **** //  spi_disable(BOARD_ILI9341_SPI);
 312:../src/sam/components/display/ili93xx/ili93xx.c **** 
 313:../src/sam/components/display/ili93xx/ili93xx.c ****   /* Back to the default config: SPI Mode 0, 16bits */
 314:../src/sam/components/display/ili93xx/ili93xx.c **** //  spi_set_bits_per_transfer(BOARD_ILI9341_SPI, BOARD_ILI9341_SPI_NPCS, SPI_CSR_BITS_16_BIT);
 315:../src/sam/components/display/ili93xx/ili93xx.c **** }
 316:../src/sam/components/display/ili93xx/ili93xx.c **** 
 317:../src/sam/components/display/ili93xx/ili93xx.c **** /**
 318:../src/sam/components/display/ili93xx/ili93xx.c ****  * \brief Send 16 bits data to LCD controller.
 319:../src/sam/components/display/ili93xx/ili93xx.c ****  *
 320:../src/sam/components/display/ili93xx/ili93xx.c ****  * \param uc_cmd command.
 321:../src/sam/components/display/ili93xx/ili93xx.c ****  */
 322:../src/sam/components/display/ili93xx/ili93xx.c **** static void ili9341_write_data16(uint16_t us_data)
 323:../src/sam/components/display/ili93xx/ili93xx.c **** {
 324:../src/sam/components/display/ili93xx/ili93xx.c ****   /* Enable SPI */
 325:../src/sam/components/display/ili93xx/ili93xx.c ****   spi_enable(BOARD_ILI9341_SPI);
 326:../src/sam/components/display/ili93xx/ili93xx.c **** 
 327:../src/sam/components/display/ili93xx/ili93xx.c ****   /* Transfer data */
 328:../src/sam/components/display/ili93xx/ili93xx.c ****   gpio_set_pin_high(BOARD_ILI9341_DC_GPIO);
 329:../src/sam/components/display/ili93xx/ili93xx.c ****   spi_write(BOARD_ILI9341_SPI, us_data, BOARD_ILI9341_SPI_NPCS, 0);
 330:../src/sam/components/display/ili93xx/ili93xx.c **** 
 331:../src/sam/components/display/ili93xx/ili93xx.c ****   /* Disable SPI */
 332:../src/sam/components/display/ili93xx/ili93xx.c ****   spi_disable(BOARD_ILI9341_SPI);
 333:../src/sam/components/display/ili93xx/ili93xx.c **** }
 334:../src/sam/components/display/ili93xx/ili93xx.c **** 
 335:../src/sam/components/display/ili93xx/ili93xx.c **** /**
 336:../src/sam/components/display/ili93xx/ili93xx.c ****  * \brief Send 8 bits data to LCD controller.
 337:../src/sam/components/display/ili93xx/ili93xx.c ****  *
 338:../src/sam/components/display/ili93xx/ili93xx.c ****  * \param uc_cmd command.
 339:../src/sam/components/display/ili93xx/ili93xx.c ****  */
 340:../src/sam/components/display/ili93xx/ili93xx.c **** 
 341:../src/sam/components/display/ili93xx/ili93xx.c **** static void ili9341_write_data8(uint8_t us_data)
 342:../src/sam/components/display/ili93xx/ili93xx.c **** {
 343:../src/sam/components/display/ili93xx/ili93xx.c ****   /* Configure SPI Chip Select: SPI Mode 0, 8bits */
 344:../src/sam/components/display/ili93xx/ili93xx.c ****   spi_set_bits_per_transfer(BOARD_ILI9341_SPI, BOARD_ILI9341_SPI_NPCS, SPI_CSR_BITS_8_BIT);
 345:../src/sam/components/display/ili93xx/ili93xx.c ****   /* Enable SPI */
 346:../src/sam/components/display/ili93xx/ili93xx.c ****   spi_enable(BOARD_ILI9341_SPI);
 347:../src/sam/components/display/ili93xx/ili93xx.c **** 
 348:../src/sam/components/display/ili93xx/ili93xx.c ****   /* Transfer data/command pin. (Select data.) */
 349:../src/sam/components/display/ili93xx/ili93xx.c ****   gpio_set_pin_high(BOARD_ILI9341_DC_GPIO);
 350:../src/sam/components/display/ili93xx/ili93xx.c ****   spi_write(BOARD_ILI9341_SPI, us_data, BOARD_ILI9341_SPI_NPCS, 0);
 351:../src/sam/components/display/ili93xx/ili93xx.c **** 
 352:../src/sam/components/display/ili93xx/ili93xx.c ****   /* Disable SPI */
 353:../src/sam/components/display/ili93xx/ili93xx.c ****   spi_disable(BOARD_ILI9341_SPI);
 354:../src/sam/components/display/ili93xx/ili93xx.c **** 
 355:../src/sam/components/display/ili93xx/ili93xx.c ****   /* Back to the default config: SPI Mode 0, 16bits */
 356:../src/sam/components/display/ili93xx/ili93xx.c ****   spi_set_bits_per_transfer(BOARD_ILI9341_SPI, BOARD_ILI9341_SPI_NPCS, SPI_CSR_BITS_16_BIT);
 357:../src/sam/components/display/ili93xx/ili93xx.c **** }
 358:../src/sam/components/display/ili93xx/ili93xx.c **** 
 359:../src/sam/components/display/ili93xx/ili93xx.c **** 
 360:../src/sam/components/display/ili93xx/ili93xx.c **** /**
 361:../src/sam/components/display/ili93xx/ili93xx.c ****  * \brief Prepare to write GRAM data for ili93xx.
 362:../src/sam/components/display/ili93xx/ili93xx.c ****  */
 363:../src/sam/components/display/ili93xx/ili93xx.c **** static void ili93xx_write_ram_prepare(void)
 364:../src/sam/components/display/ili93xx/ili93xx.c **** {
 365:../src/sam/components/display/ili93xx/ili93xx.c **** 	if (g_uc_device_type == DEVICE_TYPE_ILI9325) {
 366:../src/sam/components/display/ili93xx/ili93xx.c **** 
 367:../src/sam/components/display/ili93xx/ili93xx.c **** 	} else if (g_uc_device_type == DEVICE_TYPE_ILI9341) {
 368:../src/sam/components/display/ili93xx/ili93xx.c **** 		/** memory write command (R2Ch)*/
 369:../src/sam/components/display/ili93xx/ili93xx.c **** 	    ili9341_write_cmd(ILI9341_CMD_MEMORY_WRITE);
 370:../src/sam/components/display/ili93xx/ili93xx.c **** 	}
 371:../src/sam/components/display/ili93xx/ili93xx.c **** }
 372:../src/sam/components/display/ili93xx/ili93xx.c **** 
 373:../src/sam/components/display/ili93xx/ili93xx.c **** /**
 374:../src/sam/components/display/ili93xx/ili93xx.c ****  * \brief Write data to LCD GRAM.
 375:../src/sam/components/display/ili93xx/ili93xx.c ****  *
 376:../src/sam/components/display/ili93xx/ili93xx.c ****  * \param ul_color 24-bits RGB color.
 377:../src/sam/components/display/ili93xx/ili93xx.c ****  */
 378:../src/sam/components/display/ili93xx/ili93xx.c **** static void ili93xx_write_ram(ili93xx_color_t ul_color)
 379:../src/sam/components/display/ili93xx/ili93xx.c **** {
 380:../src/sam/components/display/ili93xx/ili93xx.c **** 
 381:../src/sam/components/display/ili93xx/ili93xx.c ****   /* Transfer data/command pin. (Select data.) */
 382:../src/sam/components/display/ili93xx/ili93xx.c ****   gpio_set_pin_high(BOARD_ILI9341_DC_GPIO);
 383:../src/sam/components/display/ili93xx/ili93xx.c **** 
 384:../src/sam/components/display/ili93xx/ili93xx.c **** #if defined(BITS_16_COLOR)
 385:../src/sam/components/display/ili93xx/ili93xx.c ****   spi_write(BOARD_ILI9341_SPI, ((ul_color >> 8) & 0xFF), BOARD_ILI9341_SPI_NPCS, 0);
 386:../src/sam/components/display/ili93xx/ili93xx.c ****   spi_write(BOARD_ILI9341_SPI, (ul_color & 0xFF), BOARD_ILI9341_SPI_NPCS, 0);
 387:../src/sam/components/display/ili93xx/ili93xx.c **** #endif
 388:../src/sam/components/display/ili93xx/ili93xx.c **** 
 389:../src/sam/components/display/ili93xx/ili93xx.c **** #if defined(BITS_24_COLOR)
 390:../src/sam/components/display/ili93xx/ili93xx.c ****   spi_write(BOARD_ILI9341_SPI, ((ul_color >> 8) & 0xFF), BOARD_ILI9341_SPI_NPCS, 0);
 391:../src/sam/components/display/ili93xx/ili93xx.c ****   spi_write(BOARD_ILI9341_SPI, (ul_color & 0xFF), BOARD_ILI9341_SPI_NPCS, 0);
 392:../src/sam/components/display/ili93xx/ili93xx.c **** #endif
 393:../src/sam/components/display/ili93xx/ili93xx.c **** 
 394:../src/sam/components/display/ili93xx/ili93xx.c ****   return;
 395:../src/sam/components/display/ili93xx/ili93xx.c **** 
 396:../src/sam/components/display/ili93xx/ili93xx.c ****   /* Configure SPI Chip Select: SPI Mode 0, 8bits */
 397:../src/sam/components/display/ili93xx/ili93xx.c ****   spi_set_bits_per_transfer(BOARD_ILI9341_SPI, BOARD_ILI9341_SPI_NPCS, SPI_CSR_BITS_8_BIT);
 398:../src/sam/components/display/ili93xx/ili93xx.c ****   /* Enable SPI */
 399:../src/sam/components/display/ili93xx/ili93xx.c ****   spi_enable(BOARD_ILI9341_SPI);
 400:../src/sam/components/display/ili93xx/ili93xx.c **** 
 401:../src/sam/components/display/ili93xx/ili93xx.c ****   /* Transfer data/command pin. (Select data.) */
 402:../src/sam/components/display/ili93xx/ili93xx.c ****   gpio_set_pin_high(BOARD_ILI9341_DC_GPIO);
 403:../src/sam/components/display/ili93xx/ili93xx.c **** 
 404:../src/sam/components/display/ili93xx/ili93xx.c **** 
 405:../src/sam/components/display/ili93xx/ili93xx.c ****   /* Disable SPI */
 406:../src/sam/components/display/ili93xx/ili93xx.c ****   spi_disable(BOARD_ILI9341_SPI);
 407:../src/sam/components/display/ili93xx/ili93xx.c **** 
 408:../src/sam/components/display/ili93xx/ili93xx.c ****   /* Back to the default config: SPI Mode 0, 16bits */
 409:../src/sam/components/display/ili93xx/ili93xx.c ****   spi_set_bits_per_transfer(BOARD_ILI9341_SPI, BOARD_ILI9341_SPI_NPCS, SPI_CSR_BITS_16_BIT);
 410:../src/sam/components/display/ili93xx/ili93xx.c **** }
 411:../src/sam/components/display/ili93xx/ili93xx.c **** 
 412:../src/sam/components/display/ili93xx/ili93xx.c **** /**
 413:../src/sam/components/display/ili93xx/ili93xx.c ****  * \brief Write multiple data in buffer to LCD controller for ili93xx.
 414:../src/sam/components/display/ili93xx/ili93xx.c ****  *
 415:../src/sam/components/display/ili93xx/ili93xx.c ****  * \param p_ul_buf data buffer.
 416:../src/sam/components/display/ili93xx/ili93xx.c ****  * \param ul_size size in pixels.
 417:../src/sam/components/display/ili93xx/ili93xx.c ****  */
 418:../src/sam/components/display/ili93xx/ili93xx.c **** static void ili93xx_write_ram_buffer(const ili93xx_color_t *p_ul_buf,
 419:../src/sam/components/display/ili93xx/ili93xx.c **** 		uint32_t ul_size)
 420:../src/sam/components/display/ili93xx/ili93xx.c **** {
 421:../src/sam/components/display/ili93xx/ili93xx.c **** 	uint32_t ul_addr;
 422:../src/sam/components/display/ili93xx/ili93xx.c **** 	for (ul_addr = 0; ul_addr < (ul_size - ul_size % 8); ul_addr += 8) {
 423:../src/sam/components/display/ili93xx/ili93xx.c **** 		ili93xx_write_ram(p_ul_buf[ul_addr]);
 424:../src/sam/components/display/ili93xx/ili93xx.c **** 		ili93xx_write_ram(p_ul_buf[ul_addr + 1]);
 425:../src/sam/components/display/ili93xx/ili93xx.c **** 		ili93xx_write_ram(p_ul_buf[ul_addr + 2]);
 426:../src/sam/components/display/ili93xx/ili93xx.c **** 		ili93xx_write_ram(p_ul_buf[ul_addr + 3]);
 427:../src/sam/components/display/ili93xx/ili93xx.c **** 		ili93xx_write_ram(p_ul_buf[ul_addr + 4]);
 428:../src/sam/components/display/ili93xx/ili93xx.c **** 		ili93xx_write_ram(p_ul_buf[ul_addr + 5]);
 429:../src/sam/components/display/ili93xx/ili93xx.c **** 		ili93xx_write_ram(p_ul_buf[ul_addr + 6]);
 430:../src/sam/components/display/ili93xx/ili93xx.c **** 		ili93xx_write_ram(p_ul_buf[ul_addr + 7]);
 431:../src/sam/components/display/ili93xx/ili93xx.c **** 	}
 432:../src/sam/components/display/ili93xx/ili93xx.c **** 	for (; ul_addr < ul_size; ul_addr++) {
 433:../src/sam/components/display/ili93xx/ili93xx.c **** 		ili93xx_write_ram(p_ul_buf[ul_addr]);
 434:../src/sam/components/display/ili93xx/ili93xx.c **** 	}
 435:../src/sam/components/display/ili93xx/ili93xx.c **** }
 436:../src/sam/components/display/ili93xx/ili93xx.c **** 
 437:../src/sam/components/display/ili93xx/ili93xx.c **** /**
 438:../src/sam/components/display/ili93xx/ili93xx.c ****  * \brief Write data to LCD Register for ili93xx.
 439:../src/sam/components/display/ili93xx/ili93xx.c ****  *
 440:../src/sam/components/display/ili93xx/ili93xx.c ****  * \param uc_reg register address.
 441:../src/sam/components/display/ili93xx/ili93xx.c ****  * \param us_data data to be written.
 442:../src/sam/components/display/ili93xx/ili93xx.c ****  */
 443:../src/sam/components/display/ili93xx/ili93xx.c **** static void ili93xx_write_register_datas(uint8_t uc_reg, uint8_t *p_data, uint8_t uc_datacnt)
 444:../src/sam/components/display/ili93xx/ili93xx.c **** {
 445:../src/sam/components/display/ili93xx/ili93xx.c ****   /* select command in the DC register. */
 446:../src/sam/components/display/ili93xx/ili93xx.c ****   gpio_set_pin_low(BOARD_ILI9341_DC_GPIO);
 447:../src/sam/components/display/ili93xx/ili93xx.c ****   spi_write_packet(BOARD_ILI9341_SPI, &uc_reg, 1);
 448:../src/sam/components/display/ili93xx/ili93xx.c **** 
 449:../src/sam/components/display/ili93xx/ili93xx.c ****   /* select data in the DC resgister. */
 450:../src/sam/components/display/ili93xx/ili93xx.c ****   gpio_set_pin_high(BOARD_ILI9341_DC_GPIO);
 451:../src/sam/components/display/ili93xx/ili93xx.c **** 
 452:../src/sam/components/display/ili93xx/ili93xx.c ****   spi_write_packet(BOARD_ILI9341_SPI, p_data, uc_datacnt);
 453:../src/sam/components/display/ili93xx/ili93xx.c **** 
 454:../src/sam/components/display/ili93xx/ili93xx.c **** };
 455:../src/sam/components/display/ili93xx/ili93xx.c **** 
 456:../src/sam/components/display/ili93xx/ili93xx.c **** /**
 457:../src/sam/components/display/ili93xx/ili93xx.c ****  * \brief Write a word (16bits)to LCD Register.
 458:../src/sam/components/display/ili93xx/ili93xx.c ****  *
 459:../src/sam/components/display/ili93xx/ili93xx.c ****  * \param uc_reg register address.
 460:../src/sam/components/display/ili93xx/ili93xx.c ****  * \param us_data data to be written.
 461:../src/sam/components/display/ili93xx/ili93xx.c ****  */
 462:../src/sam/components/display/ili93xx/ili93xx.c **** static void ili93xx_write_register_word(uint8_t uc_reg, uint16_t us_data)
 463:../src/sam/components/display/ili93xx/ili93xx.c **** {
 464:../src/sam/components/display/ili93xx/ili93xx.c ****   ili93xx_write_register_datas(uc_reg, (uint8_t*)&us_data, 2);
 465:../src/sam/components/display/ili93xx/ili93xx.c **** }
 466:../src/sam/components/display/ili93xx/ili93xx.c **** 
 467:../src/sam/components/display/ili93xx/ili93xx.c **** /**
 468:../src/sam/components/display/ili93xx/ili93xx.c ****  * \brief Write data to LCD Register for ili93xx.
 469:../src/sam/components/display/ili93xx/ili93xx.c ****  *
 470:../src/sam/components/display/ili93xx/ili93xx.c ****  * \param uc_reg register address.
 471:../src/sam/components/display/ili93xx/ili93xx.c ****  * \param us_data data to be written.
 472:../src/sam/components/display/ili93xx/ili93xx.c ****  */
 473:../src/sam/components/display/ili93xx/ili93xx.c **** static void ili93xx_write_register(uint8_t uc_reg, uint8_t *p_data,
 474:../src/sam/components/display/ili93xx/ili93xx.c **** 		uint8_t uc_datacnt)
 475:../src/sam/components/display/ili93xx/ili93xx.c **** {
 476:../src/sam/components/display/ili93xx/ili93xx.c **** 
 477:../src/sam/components/display/ili93xx/ili93xx.c ****   /* Configure SPI Chip Select: SPI Mode 0, 8bits */
 478:../src/sam/components/display/ili93xx/ili93xx.c ****   spi_set_bits_per_transfer(BOARD_ILI9341_SPI, BOARD_ILI9341_SPI_NPCS, SPI_CSR_BITS_8_BIT);
 479:../src/sam/components/display/ili93xx/ili93xx.c ****   /* Enable SPI */
 480:../src/sam/components/display/ili93xx/ili93xx.c ****   spi_enable(BOARD_ILI9341_SPI);
 481:../src/sam/components/display/ili93xx/ili93xx.c **** 
 482:../src/sam/components/display/ili93xx/ili93xx.c ****   /* select command in the DC register. */
 483:../src/sam/components/display/ili93xx/ili93xx.c ****   gpio_set_pin_low(BOARD_ILI9341_DC_GPIO);
 484:../src/sam/components/display/ili93xx/ili93xx.c ****   spi_write(BOARD_ILI9341_SPI, uc_reg, BOARD_ILI9341_SPI_NPCS, 0);
 485:../src/sam/components/display/ili93xx/ili93xx.c **** 
 486:../src/sam/components/display/ili93xx/ili93xx.c ****   /* select data in the DC resgister. */
 487:../src/sam/components/display/ili93xx/ili93xx.c ****   gpio_set_pin_high(BOARD_ILI9341_DC_GPIO);
 488:../src/sam/components/display/ili93xx/ili93xx.c **** 
 489:../src/sam/components/display/ili93xx/ili93xx.c ****   for (uint8_t i = 0; i < uc_datacnt; i++) {
 490:../src/sam/components/display/ili93xx/ili93xx.c ****       spi_write(BOARD_ILI9341_SPI, &p_data, BOARD_ILI9341_SPI_NPCS, 0);
 491:../src/sam/components/display/ili93xx/ili93xx.c ****       p_data++;
 492:../src/sam/components/display/ili93xx/ili93xx.c ****   }
 493:../src/sam/components/display/ili93xx/ili93xx.c **** 
 494:../src/sam/components/display/ili93xx/ili93xx.c ****   /* Disable SPI */
 495:../src/sam/components/display/ili93xx/ili93xx.c **** //  spi_disable(BOARD_ILI9341_SPI);
 496:../src/sam/components/display/ili93xx/ili93xx.c **** 
 497:../src/sam/components/display/ili93xx/ili93xx.c ****   /* Back to the default config: SPI Mode 0, 16bits */
 498:../src/sam/components/display/ili93xx/ili93xx.c **** //  spi_set_bits_per_transfer(BOARD_ILI9341_SPI, BOARD_ILI9341_SPI_NPCS, SPI_CSR_BITS_16_BIT);
 499:../src/sam/components/display/ili93xx/ili93xx.c **** 
 500:../src/sam/components/display/ili93xx/ili93xx.c **** 
 501:../src/sam/components/display/ili93xx/ili93xx.c **** }
 502:../src/sam/components/display/ili93xx/ili93xx.c **** 
 503:../src/sam/components/display/ili93xx/ili93xx.c **** /**
 504:../src/sam/components/display/ili93xx/ili93xx.c ****  * \brief Prepare to read GRAM data for ili93xx.
 505:../src/sam/components/display/ili93xx/ili93xx.c ****  */
 506:../src/sam/components/display/ili93xx/ili93xx.c **** static void ili93xx_read_ram_prepare(void)
 507:../src/sam/components/display/ili93xx/ili93xx.c **** {
 508:../src/sam/components/display/ili93xx/ili93xx.c **** 	if (g_uc_device_type == DEVICE_TYPE_ILI9325) {
 509:../src/sam/components/display/ili93xx/ili93xx.c **** 		LCD_IR(0);
 510:../src/sam/components/display/ili93xx/ili93xx.c **** 		/** Write Data to GRAM (R22h) */
 511:../src/sam/components/display/ili93xx/ili93xx.c **** 		LCD_IR(ILI9325_GRAM_DATA_REG);
 512:../src/sam/components/display/ili93xx/ili93xx.c **** 	} else if (g_uc_device_type == DEVICE_TYPE_ILI9341) {
 513:../src/sam/components/display/ili93xx/ili93xx.c **** 		LCD_IR(0);
 514:../src/sam/components/display/ili93xx/ili93xx.c **** 		/** Write Data to GRAM (R2Eh) */
 515:../src/sam/components/display/ili93xx/ili93xx.c **** 		LCD_IR(ILI9341_CMD_MEMORY_READ);
 516:../src/sam/components/display/ili93xx/ili93xx.c **** 	}
 517:../src/sam/components/display/ili93xx/ili93xx.c **** }
 518:../src/sam/components/display/ili93xx/ili93xx.c **** 
 519:../src/sam/components/display/ili93xx/ili93xx.c **** /**
 520:../src/sam/components/display/ili93xx/ili93xx.c ****  * \brief Read data to LCD GRAM for ili93xx.
 521:../src/sam/components/display/ili93xx/ili93xx.c ****  *
 522:../src/sam/components/display/ili93xx/ili93xx.c ****  * \note For ili9325, because pixel data LCD GRAM is 18-bits, so convertion
 523:../src/sam/components/display/ili93xx/ili93xx.c ****  * to RGB 24-bits will cause low color bit lose.
 524:../src/sam/components/display/ili93xx/ili93xx.c ****  *
 525:../src/sam/components/display/ili93xx/ili93xx.c ****  * \return color 24-bits RGB color.
 526:../src/sam/components/display/ili93xx/ili93xx.c ****  */
 527:../src/sam/components/display/ili93xx/ili93xx.c **** static uint32_t ili93xx_read_ram(void)
 528:../src/sam/components/display/ili93xx/ili93xx.c **** {
 529:../src/sam/components/display/ili93xx/ili93xx.c **** 	uint8_t value[3];
 530:../src/sam/components/display/ili93xx/ili93xx.c **** 	uint32_t color;
 531:../src/sam/components/display/ili93xx/ili93xx.c **** 	if (g_uc_device_type == DEVICE_TYPE_ILI9325) {
 532:../src/sam/components/display/ili93xx/ili93xx.c **** 		/** dummy read*/
 533:../src/sam/components/display/ili93xx/ili93xx.c **** 		value[0] = LCD_RD();
 534:../src/sam/components/display/ili93xx/ili93xx.c **** 		value[1] = LCD_RD();
 535:../src/sam/components/display/ili93xx/ili93xx.c **** 		/** data upper byte*/
 536:../src/sam/components/display/ili93xx/ili93xx.c **** 		value[0] = LCD_RD();
 537:../src/sam/components/display/ili93xx/ili93xx.c **** 		/** data lower byte */
 538:../src/sam/components/display/ili93xx/ili93xx.c **** 		value[1] = LCD_RD();
 539:../src/sam/components/display/ili93xx/ili93xx.c **** 
 540:../src/sam/components/display/ili93xx/ili93xx.c **** 		/** Convert RGB565 to RGB888 */
 541:../src/sam/components/display/ili93xx/ili93xx.c **** 		/** For BGR format */
 542:../src/sam/components/display/ili93xx/ili93xx.c **** 		color = ((value[0] & 0xF8)) | ((value[0] & 0x07) << 13) |
 543:../src/sam/components/display/ili93xx/ili93xx.c **** 				((value[1] & 0xE0) << 5) |
 544:../src/sam/components/display/ili93xx/ili93xx.c **** 				((value[1] & 0x1F) << 19);
 545:../src/sam/components/display/ili93xx/ili93xx.c **** 	} else if (g_uc_device_type == DEVICE_TYPE_ILI9341) {
 546:../src/sam/components/display/ili93xx/ili93xx.c **** 		/** dummy read */
 547:../src/sam/components/display/ili93xx/ili93xx.c **** 		value[0] = LCD_RD();
 548:../src/sam/components/display/ili93xx/ili93xx.c **** 		/** the highest byte - R byte*/
 549:../src/sam/components/display/ili93xx/ili93xx.c **** 		value[0] = LCD_RD();
 550:../src/sam/components/display/ili93xx/ili93xx.c **** 		/** the middle byte - G byte*/
 551:../src/sam/components/display/ili93xx/ili93xx.c **** 		value[1] = LCD_RD();
 552:../src/sam/components/display/ili93xx/ili93xx.c **** 		/** the lowest byte - B byte*/
 553:../src/sam/components/display/ili93xx/ili93xx.c **** 		value[2] = LCD_RD();
 554:../src/sam/components/display/ili93xx/ili93xx.c **** 		/** combine R, G, B byte to a color value */
 555:../src/sam/components/display/ili93xx/ili93xx.c **** 		color = (value[0] << 16) | (value[1] << 8) | value[2];
 556:../src/sam/components/display/ili93xx/ili93xx.c **** 	}
 557:../src/sam/components/display/ili93xx/ili93xx.c **** 
 558:../src/sam/components/display/ili93xx/ili93xx.c **** 	return color;
 559:../src/sam/components/display/ili93xx/ili93xx.c **** }
 560:../src/sam/components/display/ili93xx/ili93xx.c **** 
 561:../src/sam/components/display/ili93xx/ili93xx.c **** /**
 562:../src/sam/components/display/ili93xx/ili93xx.c ****  * \brief Read data from LCD Register.
 563:../src/sam/components/display/ili93xx/ili93xx.c ****  *
 564:../src/sam/components/display/ili93xx/ili93xx.c ****  * \param uc_reg register address.
 565:../src/sam/components/display/ili93xx/ili93xx.c ****  * \param p_data the pointer to the read data.
 566:../src/sam/components/display/ili93xx/ili93xx.c ****  * \param uc_datacnt the number of the read data
 567:../src/sam/components/display/ili93xx/ili93xx.c ****  */
 568:../src/sam/components/display/ili93xx/ili93xx.c **** static void ili93xx_read_register(uint8_t uc_reg, uint8_t *p_data,
 569:../src/sam/components/display/ili93xx/ili93xx.c **** 		uint8_t uc_datacnt)
 570:../src/sam/components/display/ili93xx/ili93xx.c **** {
 571:../src/sam/components/display/ili93xx/ili93xx.c ****   status_code_t result;
 572:../src/sam/components/display/ili93xx/ili93xx.c **** /*	LCD_IR(0);
 573:../src/sam/components/display/ili93xx/ili93xx.c **** 	LCD_IR(uc_reg);*/
 574:../src/sam/components/display/ili93xx/ili93xx.c **** 
 575:../src/sam/components/display/ili93xx/ili93xx.c ****   gpio_set_pin_low(BOARD_ILI9341_DC_GPIO);
 576:../src/sam/components/display/ili93xx/ili93xx.c ****   result = spi_write(BOARD_ILI9341_SPI, uc_reg, BOARD_ILI9341_SPI_NPCS, 0);
 577:../src/sam/components/display/ili93xx/ili93xx.c ****   /* select data in the DC resgister. */
 578:../src/sam/components/display/ili93xx/ili93xx.c ****   gpio_set_pin_high(BOARD_ILI9341_DC_GPIO);
 579:../src/sam/components/display/ili93xx/ili93xx.c ****   result = spi_read_packet(BOARD_ILI9341_SPI, p_data, uc_datacnt);
 580:../src/sam/components/display/ili93xx/ili93xx.c **** /*	for (uint8_t i = 0; i < uc_datacnt; i++) {
 581:../src/sam/components/display/ili93xx/ili93xx.c **** 	    spi_read( uint8_t *p_pcs)
 582:../src/sam/components/display/ili93xx/ili93xx.c **** 	    p_data[i] = LCD_RD();
 583:../src/sam/components/display/ili93xx/ili93xx.c **** 	}*/
 584:../src/sam/components/display/ili93xx/ili93xx.c **** }
 585:../src/sam/components/display/ili93xx/ili93xx.c **** 
 586:../src/sam/components/display/ili93xx/ili93xx.c **** /**
 587:../src/sam/components/display/ili93xx/ili93xx.c ****  * \brief Delay function.
 588:../src/sam/components/display/ili93xx/ili93xx.c ****  */
 589:../src/sam/components/display/ili93xx/ili93xx.c **** static void ili93xx_delay(uint32_t ul_ms)
 590:../src/sam/components/display/ili93xx/ili93xx.c **** {
  27              		.loc 1 590 0
  28              		.cfi_startproc
  29              		@ args = 0, pretend = 0, frame = 8
  30              		@ frame_needed = 0, uses_anonymous_args = 0
  31              		@ link register save eliminated.
  32              	.LVL0:
  33 0000 82B0     		sub	sp, sp, #8
  34              		.cfi_def_cfa_offset 8
 591:../src/sam/components/display/ili93xx/ili93xx.c ****   volatile uint32_t i;
 592:../src/sam/components/display/ili93xx/ili93xx.c ****   for (i = 0; i < ul_ms; i++) { for (i = 0; i < 100000; i++) { } }
  35              		.loc 1 592 0
  36 0002 0023     		movs	r3, #0
  37 0004 0193     		str	r3, [sp, #4]
  38 0006 0CE0     		b	.L2
  39              	.L5:
  40              		.loc 1 592 0 is_stmt 0 discriminator 7
  41 0008 0023     		movs	r3, #0
  42 000a 0193     		str	r3, [sp, #4]
  43 000c 02E0     		b	.L3
  44              	.L4:
  45              		.loc 1 592 0 discriminator 4
  46 000e 019B     		ldr	r3, [sp, #4]
  47 0010 0133     		adds	r3, r3, #1
  48 0012 0193     		str	r3, [sp, #4]
  49              	.L3:
  50              		.loc 1 592 0 discriminator 2
  51 0014 019A     		ldr	r2, [sp, #4]
  52 0016 054B     		ldr	r3, .L7
  53 0018 9A42     		cmp	r2, r3
  54 001a F8D9     		bls	.L4
  55              		.loc 1 592 0 discriminator 5
  56 001c 019B     		ldr	r3, [sp, #4]
  57 001e 0133     		adds	r3, r3, #1
  58 0020 0193     		str	r3, [sp, #4]
  59              	.L2:
  60              		.loc 1 592 0 discriminator 6
  61 0022 019B     		ldr	r3, [sp, #4]
  62 0024 8342     		cmp	r3, r0
  63 0026 EFD3     		bcc	.L5
 593:../src/sam/components/display/ili93xx/ili93xx.c **** }
  64              		.loc 1 593 0 is_stmt 1
  65 0028 02B0     		add	sp, sp, #8
  66              		.cfi_def_cfa_offset 0
  67              		@ sp needed
  68 002a 7047     		bx	lr
  69              	.L8:
  70              		.align	2
  71              	.L7:
  72 002c 9F860100 		.word	99999
  73              		.cfi_endproc
  74              	.LFE187:
  76              		.section	.text.ili93xx_check_box_coordinates,"ax",%progbits
  77              		.align	2
  78              		.thumb
  79              		.thumb_func
  81              	ili93xx_check_box_coordinates:
  82              	.LFB188:
 594:../src/sam/components/display/ili93xx/ili93xx.c **** 
 595:../src/sam/components/display/ili93xx/ili93xx.c **** /**
 596:../src/sam/components/display/ili93xx/ili93xx.c ****  * \brief Check box coordinates.
 597:../src/sam/components/display/ili93xx/ili93xx.c ****  *
 598:../src/sam/components/display/ili93xx/ili93xx.c ****  * \param p_ul_x1 X coordinate of upper-left corner on LCD.
 599:../src/sam/components/display/ili93xx/ili93xx.c ****  * \param p_ul_y1 Y coordinate of upper-left corner on LCD.
 600:../src/sam/components/display/ili93xx/ili93xx.c ****  * \param p_ul_x2 X coordinate of lower-right corner on LCD.
 601:../src/sam/components/display/ili93xx/ili93xx.c ****  * \param p_ul_y2 Y coordinate of lower-right corner on LCD.
 602:../src/sam/components/display/ili93xx/ili93xx.c ****  */
 603:../src/sam/components/display/ili93xx/ili93xx.c **** static void ili93xx_check_box_coordinates(uint32_t *p_ul_x1, uint32_t *p_ul_y1,
 604:../src/sam/components/display/ili93xx/ili93xx.c **** 		uint32_t *p_ul_x2, uint32_t *p_ul_y2)
 605:../src/sam/components/display/ili93xx/ili93xx.c **** {
  83              		.loc 1 605 0
  84              		.cfi_startproc
  85              		@ args = 0, pretend = 0, frame = 0
  86              		@ frame_needed = 0, uses_anonymous_args = 0
  87              		@ link register save eliminated.
  88              	.LVL1:
  89 0000 30B4     		push	{r4, r5}
  90              		.cfi_def_cfa_offset 8
  91              		.cfi_offset 4, -8
  92              		.cfi_offset 5, -4
 606:../src/sam/components/display/ili93xx/ili93xx.c **** 	uint32_t dw;
 607:../src/sam/components/display/ili93xx/ili93xx.c **** 
 608:../src/sam/components/display/ili93xx/ili93xx.c **** 	if (*p_ul_x1 >= g_ul_lcd_x_length) {
  93              		.loc 1 608 0
  94 0002 0568     		ldr	r5, [r0]
  95 0004 124C     		ldr	r4, .L17
  96 0006 2468     		ldr	r4, [r4]
  97 0008 A542     		cmp	r5, r4
  98 000a 01D3     		bcc	.L10
 609:../src/sam/components/display/ili93xx/ili93xx.c **** 		*p_ul_x1 = g_ul_lcd_x_length - 1;
  99              		.loc 1 609 0
 100 000c 651E     		subs	r5, r4, #1
 101 000e 0560     		str	r5, [r0]
 102              	.L10:
 610:../src/sam/components/display/ili93xx/ili93xx.c **** 	}
 611:../src/sam/components/display/ili93xx/ili93xx.c **** 
 612:../src/sam/components/display/ili93xx/ili93xx.c **** 	if (*p_ul_x2 >= g_ul_lcd_x_length) {
 103              		.loc 1 612 0
 104 0010 1568     		ldr	r5, [r2]
 105 0012 AC42     		cmp	r4, r5
 106 0014 01D8     		bhi	.L11
 613:../src/sam/components/display/ili93xx/ili93xx.c **** 		*p_ul_x2 = g_ul_lcd_x_length - 1;
 107              		.loc 1 613 0
 108 0016 013C     		subs	r4, r4, #1
 109 0018 1460     		str	r4, [r2]
 110              	.L11:
 614:../src/sam/components/display/ili93xx/ili93xx.c **** 	}
 615:../src/sam/components/display/ili93xx/ili93xx.c **** 
 616:../src/sam/components/display/ili93xx/ili93xx.c **** 	if (*p_ul_y1 >= g_ul_lcd_y_length) {
 111              		.loc 1 616 0
 112 001a 0D68     		ldr	r5, [r1]
 113 001c 0D4C     		ldr	r4, .L17+4
 114 001e 2468     		ldr	r4, [r4]
 115 0020 A542     		cmp	r5, r4
 116 0022 01D3     		bcc	.L12
 617:../src/sam/components/display/ili93xx/ili93xx.c **** 		*p_ul_y1 = g_ul_lcd_y_length - 1;
 117              		.loc 1 617 0
 118 0024 651E     		subs	r5, r4, #1
 119 0026 0D60     		str	r5, [r1]
 120              	.L12:
 618:../src/sam/components/display/ili93xx/ili93xx.c **** 	}
 619:../src/sam/components/display/ili93xx/ili93xx.c **** 
 620:../src/sam/components/display/ili93xx/ili93xx.c **** 	if (*p_ul_y2 >= g_ul_lcd_y_length) {
 121              		.loc 1 620 0
 122 0028 1D68     		ldr	r5, [r3]
 123 002a AC42     		cmp	r4, r5
 124 002c 01D8     		bhi	.L13
 621:../src/sam/components/display/ili93xx/ili93xx.c **** 		*p_ul_y2 = g_ul_lcd_y_length - 1;
 125              		.loc 1 621 0
 126 002e 013C     		subs	r4, r4, #1
 127 0030 1C60     		str	r4, [r3]
 128              	.L13:
 622:../src/sam/components/display/ili93xx/ili93xx.c **** 	}
 623:../src/sam/components/display/ili93xx/ili93xx.c **** 
 624:../src/sam/components/display/ili93xx/ili93xx.c **** 	if (*p_ul_x1 > *p_ul_x2) {
 129              		.loc 1 624 0
 130 0032 0468     		ldr	r4, [r0]
 131 0034 1568     		ldr	r5, [r2]
 132 0036 AC42     		cmp	r4, r5
 133 0038 01D9     		bls	.L14
 134              	.LVL2:
 625:../src/sam/components/display/ili93xx/ili93xx.c **** 		dw = *p_ul_x1;
 626:../src/sam/components/display/ili93xx/ili93xx.c **** 		*p_ul_x1 = *p_ul_x2;
 135              		.loc 1 626 0
 136 003a 0560     		str	r5, [r0]
 627:../src/sam/components/display/ili93xx/ili93xx.c **** 		*p_ul_x2 = dw;
 137              		.loc 1 627 0
 138 003c 1460     		str	r4, [r2]
 139              	.LVL3:
 140              	.L14:
 628:../src/sam/components/display/ili93xx/ili93xx.c **** 	}
 629:../src/sam/components/display/ili93xx/ili93xx.c **** 
 630:../src/sam/components/display/ili93xx/ili93xx.c **** 	if (*p_ul_y1 > *p_ul_y2) {
 141              		.loc 1 630 0
 142 003e 0A68     		ldr	r2, [r1]
 143              	.LVL4:
 144 0040 1868     		ldr	r0, [r3]
 145              	.LVL5:
 146 0042 8242     		cmp	r2, r0
 147 0044 01D9     		bls	.L9
 148              	.LVL6:
 631:../src/sam/components/display/ili93xx/ili93xx.c **** 		dw = *p_ul_y1;
 632:../src/sam/components/display/ili93xx/ili93xx.c **** 		*p_ul_y1 = *p_ul_y2;
 149              		.loc 1 632 0
 150 0046 0860     		str	r0, [r1]
 633:../src/sam/components/display/ili93xx/ili93xx.c **** 		*p_ul_y2 = dw;
 151              		.loc 1 633 0
 152 0048 1A60     		str	r2, [r3]
 153              	.LVL7:
 154              	.L9:
 634:../src/sam/components/display/ili93xx/ili93xx.c **** 	}
 635:../src/sam/components/display/ili93xx/ili93xx.c **** }
 155              		.loc 1 635 0
 156 004a 30BC     		pop	{r4, r5}
 157              		.cfi_restore 5
 158              		.cfi_restore 4
 159              		.cfi_def_cfa_offset 0
 160 004c 7047     		bx	lr
 161              	.L18:
 162 004e 00BF     		.align	2
 163              	.L17:
 164 0050 00000000 		.word	.LANCHOR0
 165 0054 00000000 		.word	.LANCHOR1
 166              		.cfi_endproc
 167              	.LFE188:
 169              		.section	.text.ili9341_write_cmd,"ax",%progbits
 170              		.align	2
 171              		.thumb
 172              		.thumb_func
 174              	ili9341_write_cmd:
 175              	.LFB175:
 300:../src/sam/components/display/ili93xx/ili93xx.c ****   /* Configure SPI Chip Select: SPI Mode 0, 8bits */
 176              		.loc 1 300 0
 177              		.cfi_startproc
 178              		@ args = 0, pretend = 0, frame = 0
 179              		@ frame_needed = 0, uses_anonymous_args = 0
 180              	.LVL8:
 181 0000 10B5     		push	{r4, lr}
 182              		.cfi_def_cfa_offset 8
 183              		.cfi_offset 4, -8
 184              		.cfi_offset 14, -4
 185 0002 0446     		mov	r4, r0
 307:../src/sam/components/display/ili93xx/ili93xx.c ****   spi_write(BOARD_ILI9341_SPI, uc_cmd, BOARD_ILI9341_SPI_NPCS, 0);
 186              		.loc 1 307 0
 187 0004 0220     		movs	r0, #2
 188              	.LVL9:
 189 0006 FFF7FEFF 		bl	pio_set_pin_low
 190              	.LVL10:
 308:../src/sam/components/display/ili93xx/ili93xx.c **** 
 191              		.loc 1 308 0
 192 000a 0023     		movs	r3, #0
 193 000c 1A46     		mov	r2, r3
 194 000e 2146     		mov	r1, r4
 195 0010 0148     		ldr	r0, .L21
 196 0012 FFF7FEFF 		bl	spi_write
 197              	.LVL11:
 198 0016 10BD     		pop	{r4, pc}
 199              	.L22:
 200              		.align	2
 201              	.L21:
 202 0018 00800040 		.word	1073774592
 203              		.cfi_endproc
 204              	.LFE175:
 206              		.section	.text.ili93xx_write_ram_prepare,"ax",%progbits
 207              		.align	2
 208              		.thumb
 209              		.thumb_func
 211              	ili93xx_write_ram_prepare:
 212              	.LFB178:
 364:../src/sam/components/display/ili93xx/ili93xx.c **** 	if (g_uc_device_type == DEVICE_TYPE_ILI9325) {
 213              		.loc 1 364 0
 214              		.cfi_startproc
 215              		@ args = 0, pretend = 0, frame = 0
 216              		@ frame_needed = 0, uses_anonymous_args = 0
 217 0000 08B5     		push	{r3, lr}
 218              		.cfi_def_cfa_offset 8
 219              		.cfi_offset 3, -8
 220              		.cfi_offset 14, -4
 365:../src/sam/components/display/ili93xx/ili93xx.c **** 
 221              		.loc 1 365 0
 222 0002 054B     		ldr	r3, .L26
 223 0004 1B78     		ldrb	r3, [r3]	@ zero_extendqisi2
 224 0006 012B     		cmp	r3, #1
 225 0008 04D0     		beq	.L23
 367:../src/sam/components/display/ili93xx/ili93xx.c **** 		/** memory write command (R2Ch)*/
 226              		.loc 1 367 0
 227 000a 022B     		cmp	r3, #2
 228 000c 02D1     		bne	.L23
 369:../src/sam/components/display/ili93xx/ili93xx.c **** 	}
 229              		.loc 1 369 0
 230 000e 2C20     		movs	r0, #44
 231 0010 FFF7FEFF 		bl	ili9341_write_cmd
 232              	.LVL12:
 233              	.L23:
 234 0014 08BD     		pop	{r3, pc}
 235              	.L27:
 236 0016 00BF     		.align	2
 237              	.L26:
 238 0018 00000000 		.word	.LANCHOR2
 239              		.cfi_endproc
 240              	.LFE178:
 242              		.section	.text.ili93xx_write_ram,"ax",%progbits
 243              		.align	2
 244              		.thumb
 245              		.thumb_func
 247              	ili93xx_write_ram:
 248              	.LFB179:
 379:../src/sam/components/display/ili93xx/ili93xx.c **** 
 249              		.loc 1 379 0
 250              		.cfi_startproc
 251              		@ args = 0, pretend = 0, frame = 0
 252              		@ frame_needed = 0, uses_anonymous_args = 0
 253              	.LVL13:
 254 0000 38B5     		push	{r3, r4, r5, lr}
 255              		.cfi_def_cfa_offset 16
 256              		.cfi_offset 3, -16
 257              		.cfi_offset 4, -12
 258              		.cfi_offset 5, -8
 259              		.cfi_offset 14, -4
 260 0002 0546     		mov	r5, r0
 382:../src/sam/components/display/ili93xx/ili93xx.c **** 
 261              		.loc 1 382 0
 262 0004 0220     		movs	r0, #2
 263              	.LVL14:
 264 0006 FFF7FEFF 		bl	pio_set_pin_high
 265              	.LVL15:
 385:../src/sam/components/display/ili93xx/ili93xx.c ****   spi_write(BOARD_ILI9341_SPI, (ul_color & 0xFF), BOARD_ILI9341_SPI_NPCS, 0);
 266              		.loc 1 385 0
 267 000a 074C     		ldr	r4, .L30
 268 000c 0023     		movs	r3, #0
 269 000e 1A46     		mov	r2, r3
 270 0010 290A     		lsrs	r1, r5, #8
 271 0012 2046     		mov	r0, r4
 272 0014 FFF7FEFF 		bl	spi_write
 273              	.LVL16:
 386:../src/sam/components/display/ili93xx/ili93xx.c **** #endif
 274              		.loc 1 386 0
 275 0018 0023     		movs	r3, #0
 276 001a 1A46     		mov	r2, r3
 277 001c E9B2     		uxtb	r1, r5
 278 001e 2046     		mov	r0, r4
 279 0020 FFF7FEFF 		bl	spi_write
 280              	.LVL17:
 281 0024 38BD     		pop	{r3, r4, r5, pc}
 282              	.L31:
 283 0026 00BF     		.align	2
 284              	.L30:
 285 0028 00800040 		.word	1073774592
 286              		.cfi_endproc
 287              	.LFE179:
 289              		.section	.text.ili93xx_write_ram_buffer,"ax",%progbits
 290              		.align	2
 291              		.thumb
 292              		.thumb_func
 294              	ili93xx_write_ram_buffer:
 295              	.LFB180:
 420:../src/sam/components/display/ili93xx/ili93xx.c **** 	uint32_t ul_addr;
 296              		.loc 1 420 0
 297              		.cfi_startproc
 298              		@ args = 0, pretend = 0, frame = 0
 299              		@ frame_needed = 0, uses_anonymous_args = 0
 300              	.LVL18:
 301 0000 70B5     		push	{r4, r5, r6, lr}
 302              		.cfi_def_cfa_offset 16
 303              		.cfi_offset 4, -16
 304              		.cfi_offset 5, -12
 305              		.cfi_offset 6, -8
 306              		.cfi_offset 14, -4
 307 0002 0546     		mov	r5, r0
 308 0004 0E46     		mov	r6, r1
 309              	.LVL19:
 422:../src/sam/components/display/ili93xx/ili93xx.c **** 		ili93xx_write_ram(p_ul_buf[ul_addr]);
 310              		.loc 1 422 0
 311 0006 0024     		movs	r4, #0
 312 0008 27E0     		b	.L33
 313              	.LVL20:
 314              	.L34:
 423:../src/sam/components/display/ili93xx/ili93xx.c **** 		ili93xx_write_ram(p_ul_buf[ul_addr + 1]);
 315              		.loc 1 423 0 discriminator 3
 316 000a 35F81400 		ldrh	r0, [r5, r4, lsl #1]
 317 000e FFF7FEFF 		bl	ili93xx_write_ram
 318              	.LVL21:
 424:../src/sam/components/display/ili93xx/ili93xx.c **** 		ili93xx_write_ram(p_ul_buf[ul_addr + 2]);
 319              		.loc 1 424 0 discriminator 3
 320 0012 631C     		adds	r3, r4, #1
 321 0014 35F81300 		ldrh	r0, [r5, r3, lsl #1]
 322 0018 FFF7FEFF 		bl	ili93xx_write_ram
 323              	.LVL22:
 425:../src/sam/components/display/ili93xx/ili93xx.c **** 		ili93xx_write_ram(p_ul_buf[ul_addr + 3]);
 324              		.loc 1 425 0 discriminator 3
 325 001c A31C     		adds	r3, r4, #2
 326 001e 35F81300 		ldrh	r0, [r5, r3, lsl #1]
 327 0022 FFF7FEFF 		bl	ili93xx_write_ram
 328              	.LVL23:
 426:../src/sam/components/display/ili93xx/ili93xx.c **** 		ili93xx_write_ram(p_ul_buf[ul_addr + 4]);
 329              		.loc 1 426 0 discriminator 3
 330 0026 E31C     		adds	r3, r4, #3
 331 0028 35F81300 		ldrh	r0, [r5, r3, lsl #1]
 332 002c FFF7FEFF 		bl	ili93xx_write_ram
 333              	.LVL24:
 427:../src/sam/components/display/ili93xx/ili93xx.c **** 		ili93xx_write_ram(p_ul_buf[ul_addr + 5]);
 334              		.loc 1 427 0 discriminator 3
 335 0030 231D     		adds	r3, r4, #4
 336 0032 35F81300 		ldrh	r0, [r5, r3, lsl #1]
 337 0036 FFF7FEFF 		bl	ili93xx_write_ram
 338              	.LVL25:
 428:../src/sam/components/display/ili93xx/ili93xx.c **** 		ili93xx_write_ram(p_ul_buf[ul_addr + 6]);
 339              		.loc 1 428 0 discriminator 3
 340 003a 631D     		adds	r3, r4, #5
 341 003c 35F81300 		ldrh	r0, [r5, r3, lsl #1]
 342 0040 FFF7FEFF 		bl	ili93xx_write_ram
 343              	.LVL26:
 429:../src/sam/components/display/ili93xx/ili93xx.c **** 		ili93xx_write_ram(p_ul_buf[ul_addr + 7]);
 344              		.loc 1 429 0 discriminator 3
 345 0044 A31D     		adds	r3, r4, #6
 346 0046 35F81300 		ldrh	r0, [r5, r3, lsl #1]
 347 004a FFF7FEFF 		bl	ili93xx_write_ram
 348              	.LVL27:
 430:../src/sam/components/display/ili93xx/ili93xx.c **** 	}
 349              		.loc 1 430 0 discriminator 3
 350 004e E31D     		adds	r3, r4, #7
 351 0050 35F81300 		ldrh	r0, [r5, r3, lsl #1]
 352 0054 FFF7FEFF 		bl	ili93xx_write_ram
 353              	.LVL28:
 422:../src/sam/components/display/ili93xx/ili93xx.c **** 		ili93xx_write_ram(p_ul_buf[ul_addr]);
 354              		.loc 1 422 0 discriminator 3
 355 0058 0834     		adds	r4, r4, #8
 356              	.LVL29:
 357              	.L33:
 422:../src/sam/components/display/ili93xx/ili93xx.c **** 		ili93xx_write_ram(p_ul_buf[ul_addr]);
 358              		.loc 1 422 0 is_stmt 0 discriminator 1
 359 005a 26F00703 		bic	r3, r6, #7
 360 005e 9C42     		cmp	r4, r3
 361 0060 D3D3     		bcc	.L34
 362 0062 04E0     		b	.L35
 363              	.L36:
 433:../src/sam/components/display/ili93xx/ili93xx.c **** 	}
 364              		.loc 1 433 0 is_stmt 1 discriminator 2
 365 0064 35F81400 		ldrh	r0, [r5, r4, lsl #1]
 366 0068 FFF7FEFF 		bl	ili93xx_write_ram
 367              	.LVL30:
 432:../src/sam/components/display/ili93xx/ili93xx.c **** 		ili93xx_write_ram(p_ul_buf[ul_addr]);
 368              		.loc 1 432 0 discriminator 2
 369 006c 0134     		adds	r4, r4, #1
 370              	.LVL31:
 371              	.L35:
 432:../src/sam/components/display/ili93xx/ili93xx.c **** 		ili93xx_write_ram(p_ul_buf[ul_addr]);
 372              		.loc 1 432 0 is_stmt 0 discriminator 1
 373 006e B442     		cmp	r4, r6
 374 0070 F8D3     		bcc	.L36
 435:../src/sam/components/display/ili93xx/ili93xx.c **** 
 375              		.loc 1 435 0 is_stmt 1
 376 0072 70BD     		pop	{r4, r5, r6, pc}
 377              		.cfi_endproc
 378              	.LFE180:
 380              		.section	.text.ili93xx_read_register,"ax",%progbits
 381              		.align	2
 382              		.thumb
 383              		.thumb_func
 385              	ili93xx_read_register:
 386              	.LFB186:
 570:../src/sam/components/display/ili93xx/ili93xx.c ****   status_code_t result;
 387              		.loc 1 570 0
 388              		.cfi_startproc
 389              		@ args = 0, pretend = 0, frame = 0
 390              		@ frame_needed = 0, uses_anonymous_args = 0
 391              	.LVL32:
 392 0000 F8B5     		push	{r3, r4, r5, r6, r7, lr}
 393              		.cfi_def_cfa_offset 24
 394              		.cfi_offset 3, -24
 395              		.cfi_offset 4, -20
 396              		.cfi_offset 5, -16
 397              		.cfi_offset 6, -12
 398              		.cfi_offset 7, -8
 399              		.cfi_offset 14, -4
 400 0002 0746     		mov	r7, r0
 401 0004 0D46     		mov	r5, r1
 402 0006 1646     		mov	r6, r2
 575:../src/sam/components/display/ili93xx/ili93xx.c ****   result = spi_write(BOARD_ILI9341_SPI, uc_reg, BOARD_ILI9341_SPI_NPCS, 0);
 403              		.loc 1 575 0
 404 0008 0220     		movs	r0, #2
 405              	.LVL33:
 406 000a FFF7FEFF 		bl	pio_set_pin_low
 407              	.LVL34:
 576:../src/sam/components/display/ili93xx/ili93xx.c ****   /* select data in the DC resgister. */
 408              		.loc 1 576 0
 409 000e 084C     		ldr	r4, .L40
 410 0010 0023     		movs	r3, #0
 411 0012 1A46     		mov	r2, r3
 412 0014 3946     		mov	r1, r7
 413 0016 2046     		mov	r0, r4
 414 0018 FFF7FEFF 		bl	spi_write
 415              	.LVL35:
 578:../src/sam/components/display/ili93xx/ili93xx.c ****   result = spi_read_packet(BOARD_ILI9341_SPI, p_data, uc_datacnt);
 416              		.loc 1 578 0
 417 001c 0220     		movs	r0, #2
 418 001e FFF7FEFF 		bl	pio_set_pin_high
 419              	.LVL36:
 579:../src/sam/components/display/ili93xx/ili93xx.c **** /*	for (uint8_t i = 0; i < uc_datacnt; i++) {
 420              		.loc 1 579 0
 421 0022 3246     		mov	r2, r6
 422 0024 2946     		mov	r1, r5
 423 0026 2046     		mov	r0, r4
 424 0028 FFF7FEFF 		bl	spi_read_packet
 425              	.LVL37:
 426 002c F8BD     		pop	{r3, r4, r5, r6, r7, pc}
 427              	.LVL38:
 428              	.L41:
 429 002e 00BF     		.align	2
 430              	.L40:
 431 0030 00800040 		.word	1073774592
 432              		.cfi_endproc
 433              	.LFE186:
 435              		.section	.text.ili93xx_write_register_datas,"ax",%progbits
 436              		.align	2
 437              		.thumb
 438              		.thumb_func
 440              	ili93xx_write_register_datas:
 441              	.LFB181:
 444:../src/sam/components/display/ili93xx/ili93xx.c ****   /* select command in the DC register. */
 442              		.loc 1 444 0
 443              		.cfi_startproc
 444              		@ args = 0, pretend = 0, frame = 8
 445              		@ frame_needed = 0, uses_anonymous_args = 0
 446              	.LVL39:
 447 0000 F0B5     		push	{r4, r5, r6, r7, lr}
 448              		.cfi_def_cfa_offset 20
 449              		.cfi_offset 4, -20
 450              		.cfi_offset 5, -16
 451              		.cfi_offset 6, -12
 452              		.cfi_offset 7, -8
 453              		.cfi_offset 14, -4
 454 0002 83B0     		sub	sp, sp, #12
 455              		.cfi_def_cfa_offset 32
 456 0004 0E46     		mov	r6, r1
 457 0006 1746     		mov	r7, r2
 458 0008 02AC     		add	r4, sp, #8
 459 000a 04F8010D 		strb	r0, [r4, #-1]!
 446:../src/sam/components/display/ili93xx/ili93xx.c ****   spi_write_packet(BOARD_ILI9341_SPI, &uc_reg, 1);
 460              		.loc 1 446 0
 461 000e 0220     		movs	r0, #2
 462              	.LVL40:
 463 0010 FFF7FEFF 		bl	pio_set_pin_low
 464              	.LVL41:
 447:../src/sam/components/display/ili93xx/ili93xx.c **** 
 465              		.loc 1 447 0
 466 0014 074D     		ldr	r5, .L44
 467 0016 0122     		movs	r2, #1
 468 0018 2146     		mov	r1, r4
 469 001a 2846     		mov	r0, r5
 470 001c FFF7FEFF 		bl	spi_write_packet
 471              	.LVL42:
 450:../src/sam/components/display/ili93xx/ili93xx.c **** 
 472              		.loc 1 450 0
 473 0020 0220     		movs	r0, #2
 474 0022 FFF7FEFF 		bl	pio_set_pin_high
 475              	.LVL43:
 452:../src/sam/components/display/ili93xx/ili93xx.c **** 
 476              		.loc 1 452 0
 477 0026 3A46     		mov	r2, r7
 478 0028 3146     		mov	r1, r6
 479 002a 2846     		mov	r0, r5
 480 002c FFF7FEFF 		bl	spi_write_packet
 481              	.LVL44:
 454:../src/sam/components/display/ili93xx/ili93xx.c **** 
 482              		.loc 1 454 0
 483 0030 03B0     		add	sp, sp, #12
 484              		.cfi_def_cfa_offset 20
 485              		@ sp needed
 486 0032 F0BD     		pop	{r4, r5, r6, r7, pc}
 487              	.LVL45:
 488              	.L45:
 489              		.align	2
 490              	.L44:
 491 0034 00800040 		.word	1073774592
 492              		.cfi_endproc
 493              	.LFE181:
 495              		.section	.text.ili93xx_write_register_word,"ax",%progbits
 496              		.align	2
 497              		.thumb
 498              		.thumb_func
 500              	ili93xx_write_register_word:
 501              	.LFB182:
 463:../src/sam/components/display/ili93xx/ili93xx.c ****   ili93xx_write_register_datas(uc_reg, (uint8_t*)&us_data, 2);
 502              		.loc 1 463 0
 503              		.cfi_startproc
 504              		@ args = 0, pretend = 0, frame = 8
 505              		@ frame_needed = 0, uses_anonymous_args = 0
 506              	.LVL46:
 507 0000 00B5     		push	{lr}
 508              		.cfi_def_cfa_offset 4
 509              		.cfi_offset 14, -4
 510 0002 83B0     		sub	sp, sp, #12
 511              		.cfi_def_cfa_offset 16
 512 0004 02AB     		add	r3, sp, #8
 513 0006 23F8021D 		strh	r1, [r3, #-2]!	@ movhi
 464:../src/sam/components/display/ili93xx/ili93xx.c **** }
 514              		.loc 1 464 0
 515 000a 0222     		movs	r2, #2
 516 000c 1946     		mov	r1, r3
 517              	.LVL47:
 518 000e FFF7FEFF 		bl	ili93xx_write_register_datas
 519              	.LVL48:
 465:../src/sam/components/display/ili93xx/ili93xx.c **** 
 520              		.loc 1 465 0
 521 0012 03B0     		add	sp, sp, #12
 522              		.cfi_def_cfa_offset 4
 523              		@ sp needed
 524 0014 5DF804FB 		ldr	pc, [sp], #4
 525              		.cfi_endproc
 526              	.LFE182:
 528              		.section	.text.ili93xx_write_register,"ax",%progbits
 529              		.align	2
 530              		.thumb
 531              		.thumb_func
 533              	ili93xx_write_register:
 534              	.LFB183:
 475:../src/sam/components/display/ili93xx/ili93xx.c **** 
 535              		.loc 1 475 0
 536              		.cfi_startproc
 537              		@ args = 0, pretend = 0, frame = 8
 538              		@ frame_needed = 0, uses_anonymous_args = 0
 539              	.LVL49:
 540 0000 70B5     		push	{r4, r5, r6, lr}
 541              		.cfi_def_cfa_offset 16
 542              		.cfi_offset 4, -16
 543              		.cfi_offset 5, -12
 544              		.cfi_offset 6, -8
 545              		.cfi_offset 14, -4
 546 0002 82B0     		sub	sp, sp, #8
 547              		.cfi_def_cfa_offset 24
 548 0004 0646     		mov	r6, r0
 549 0006 0191     		str	r1, [sp, #4]
 550 0008 1546     		mov	r5, r2
 478:../src/sam/components/display/ili93xx/ili93xx.c ****   /* Enable SPI */
 551              		.loc 1 478 0
 552 000a 134C     		ldr	r4, .L52
 553 000c 0022     		movs	r2, #0
 554              	.LVL50:
 555 000e 1146     		mov	r1, r2
 556              	.LVL51:
 557 0010 2046     		mov	r0, r4
 558              	.LVL52:
 559 0012 FFF7FEFF 		bl	spi_set_bits_per_transfer
 560              	.LVL53:
 561              	.LBB21:
 562              	.LBB22:
 563              		.file 2 "/home/bekeband/workspace/OLIMEX_Start/src/spi.h"
   1:/home/bekeband/workspace/OLIMEX_Start/src/spi.h **** /**
   2:/home/bekeband/workspace/OLIMEX_Start/src/spi.h ****  * \file
   3:/home/bekeband/workspace/OLIMEX_Start/src/spi.h ****  *
   4:/home/bekeband/workspace/OLIMEX_Start/src/spi.h ****  * \brief Serial Peripheral Interface (SPI) driver for SAM.
   5:/home/bekeband/workspace/OLIMEX_Start/src/spi.h ****  *
   6:/home/bekeband/workspace/OLIMEX_Start/src/spi.h ****  * Copyright (c) 2011-2016 Atmel Corporation. All rights reserved.
   7:/home/bekeband/workspace/OLIMEX_Start/src/spi.h ****  *
   8:/home/bekeband/workspace/OLIMEX_Start/src/spi.h ****  * \asf_license_start
   9:/home/bekeband/workspace/OLIMEX_Start/src/spi.h ****  *
  10:/home/bekeband/workspace/OLIMEX_Start/src/spi.h ****  * \page License
  11:/home/bekeband/workspace/OLIMEX_Start/src/spi.h ****  *
  12:/home/bekeband/workspace/OLIMEX_Start/src/spi.h ****  * Redistribution and use in source and binary forms, with or without
  13:/home/bekeband/workspace/OLIMEX_Start/src/spi.h ****  * modification, are permitted provided that the following conditions are met:
  14:/home/bekeband/workspace/OLIMEX_Start/src/spi.h ****  *
  15:/home/bekeband/workspace/OLIMEX_Start/src/spi.h ****  * 1. Redistributions of source code must retain the above copyright notice,
  16:/home/bekeband/workspace/OLIMEX_Start/src/spi.h ****  *    this list of conditions and the following disclaimer.
  17:/home/bekeband/workspace/OLIMEX_Start/src/spi.h ****  *
  18:/home/bekeband/workspace/OLIMEX_Start/src/spi.h ****  * 2. Redistributions in binary form must reproduce the above copyright notice,
  19:/home/bekeband/workspace/OLIMEX_Start/src/spi.h ****  *    this list of conditions and the following disclaimer in the documentation
  20:/home/bekeband/workspace/OLIMEX_Start/src/spi.h ****  *    and/or other materials provided with the distribution.
  21:/home/bekeband/workspace/OLIMEX_Start/src/spi.h ****  *
  22:/home/bekeband/workspace/OLIMEX_Start/src/spi.h ****  * 3. The name of Atmel may not be used to endorse or promote products derived
  23:/home/bekeband/workspace/OLIMEX_Start/src/spi.h ****  *    from this software without specific prior written permission.
  24:/home/bekeband/workspace/OLIMEX_Start/src/spi.h ****  *
  25:/home/bekeband/workspace/OLIMEX_Start/src/spi.h ****  * 4. This software may only be redistributed and used in connection with an
  26:/home/bekeband/workspace/OLIMEX_Start/src/spi.h ****  *    Atmel microcontroller product.
  27:/home/bekeband/workspace/OLIMEX_Start/src/spi.h ****  *
  28:/home/bekeband/workspace/OLIMEX_Start/src/spi.h ****  * THIS SOFTWARE IS PROVIDED BY ATMEL "AS IS" AND ANY EXPRESS OR IMPLIED
  29:/home/bekeband/workspace/OLIMEX_Start/src/spi.h ****  * WARRANTIES, INCLUDING, BUT NOT LIMITED TO, THE IMPLIED WARRANTIES OF
  30:/home/bekeband/workspace/OLIMEX_Start/src/spi.h ****  * MERCHANTABILITY, FITNESS FOR A PARTICULAR PURPOSE AND NON-INFRINGEMENT ARE
  31:/home/bekeband/workspace/OLIMEX_Start/src/spi.h ****  * EXPRESSLY AND SPECIFICALLY DISCLAIMED. IN NO EVENT SHALL ATMEL BE LIABLE FOR
  32:/home/bekeband/workspace/OLIMEX_Start/src/spi.h ****  * ANY DIRECT, INDIRECT, INCIDENTAL, SPECIAL, EXEMPLARY, OR CONSEQUENTIAL
  33:/home/bekeband/workspace/OLIMEX_Start/src/spi.h ****  * DAMAGES (INCLUDING, BUT NOT LIMITED TO, PROCUREMENT OF SUBSTITUTE GOODS
  34:/home/bekeband/workspace/OLIMEX_Start/src/spi.h ****  * OR SERVICES; LOSS OF USE, DATA, OR PROFITS; OR BUSINESS INTERRUPTION)
  35:/home/bekeband/workspace/OLIMEX_Start/src/spi.h ****  * HOWEVER CAUSED AND ON ANY THEORY OF LIABILITY, WHETHER IN CONTRACT,
  36:/home/bekeband/workspace/OLIMEX_Start/src/spi.h ****  * STRICT LIABILITY, OR TORT (INCLUDING NEGLIGENCE OR OTHERWISE) ARISING IN
  37:/home/bekeband/workspace/OLIMEX_Start/src/spi.h ****  * ANY WAY OUT OF THE USE OF THIS SOFTWARE, EVEN IF ADVISED OF THE
  38:/home/bekeband/workspace/OLIMEX_Start/src/spi.h ****  * POSSIBILITY OF SUCH DAMAGE.
  39:/home/bekeband/workspace/OLIMEX_Start/src/spi.h ****  *
  40:/home/bekeband/workspace/OLIMEX_Start/src/spi.h ****  * \asf_license_stop
  41:/home/bekeband/workspace/OLIMEX_Start/src/spi.h ****  *
  42:/home/bekeband/workspace/OLIMEX_Start/src/spi.h ****  */
  43:/home/bekeband/workspace/OLIMEX_Start/src/spi.h **** /*
  44:/home/bekeband/workspace/OLIMEX_Start/src/spi.h ****  * Support and FAQ: visit <a href="http://www.atmel.com/design-support/">Atmel Support</a>
  45:/home/bekeband/workspace/OLIMEX_Start/src/spi.h ****  */
  46:/home/bekeband/workspace/OLIMEX_Start/src/spi.h **** 
  47:/home/bekeband/workspace/OLIMEX_Start/src/spi.h **** #ifndef SPI_H_INCLUDED
  48:/home/bekeband/workspace/OLIMEX_Start/src/spi.h **** #define SPI_H_INCLUDED
  49:/home/bekeband/workspace/OLIMEX_Start/src/spi.h **** 
  50:/home/bekeband/workspace/OLIMEX_Start/src/spi.h **** #include "compiler.h"
  51:/home/bekeband/workspace/OLIMEX_Start/src/spi.h **** 
  52:/home/bekeband/workspace/OLIMEX_Start/src/spi.h **** /// @cond 0
  53:/home/bekeband/workspace/OLIMEX_Start/src/spi.h **** /**INDENT-OFF**/
  54:/home/bekeband/workspace/OLIMEX_Start/src/spi.h **** #ifdef __cplusplus
  55:/home/bekeband/workspace/OLIMEX_Start/src/spi.h **** extern "C" {
  56:/home/bekeband/workspace/OLIMEX_Start/src/spi.h **** #endif
  57:/home/bekeband/workspace/OLIMEX_Start/src/spi.h **** /**INDENT-ON**/
  58:/home/bekeband/workspace/OLIMEX_Start/src/spi.h **** /// @endcond
  59:/home/bekeband/workspace/OLIMEX_Start/src/spi.h **** 
  60:/home/bekeband/workspace/OLIMEX_Start/src/spi.h **** /** Time-out value (number of attempts). */
  61:/home/bekeband/workspace/OLIMEX_Start/src/spi.h **** #define SPI_TIMEOUT       150000
  62:/home/bekeband/workspace/OLIMEX_Start/src/spi.h **** 
  63:/home/bekeband/workspace/OLIMEX_Start/src/spi.h **** /** Status codes used by the SPI driver. */
  64:/home/bekeband/workspace/OLIMEX_Start/src/spi.h **** typedef enum
  65:/home/bekeband/workspace/OLIMEX_Start/src/spi.h **** {
  66:/home/bekeband/workspace/OLIMEX_Start/src/spi.h **** 	SPI_ERROR = -1,
  67:/home/bekeband/workspace/OLIMEX_Start/src/spi.h **** 	SPI_OK = 0,
  68:/home/bekeband/workspace/OLIMEX_Start/src/spi.h **** 	SPI_ERROR_TIMEOUT = 1,
  69:/home/bekeband/workspace/OLIMEX_Start/src/spi.h **** 	SPI_ERROR_ARGUMENT,
  70:/home/bekeband/workspace/OLIMEX_Start/src/spi.h **** 	SPI_ERROR_OVERRUN,
  71:/home/bekeband/workspace/OLIMEX_Start/src/spi.h **** 	SPI_ERROR_MODE_FAULT,
  72:/home/bekeband/workspace/OLIMEX_Start/src/spi.h **** 	SPI_ERROR_OVERRUN_AND_MODE_FAULT
  73:/home/bekeband/workspace/OLIMEX_Start/src/spi.h **** } spi_status_t;
  74:/home/bekeband/workspace/OLIMEX_Start/src/spi.h **** 
  75:/home/bekeband/workspace/OLIMEX_Start/src/spi.h **** /** SPI Chip Select behavior modes while transferring. */
  76:/home/bekeband/workspace/OLIMEX_Start/src/spi.h **** typedef enum spi_cs_behavior {
  77:/home/bekeband/workspace/OLIMEX_Start/src/spi.h **** 	/** CS does not rise until a new transfer is requested on different chip select. */
  78:/home/bekeband/workspace/OLIMEX_Start/src/spi.h **** 	SPI_CS_KEEP_LOW = SPI_CSR_CSAAT,
  79:/home/bekeband/workspace/OLIMEX_Start/src/spi.h **** 	/** CS rises if there is no more data to transfer. */
  80:/home/bekeband/workspace/OLIMEX_Start/src/spi.h **** 	SPI_CS_RISE_NO_TX = 0,
  81:/home/bekeband/workspace/OLIMEX_Start/src/spi.h **** 	/** CS is de-asserted systematically during a time DLYBCS. */
  82:/home/bekeband/workspace/OLIMEX_Start/src/spi.h **** 	SPI_CS_RISE_FORCED = SPI_CSR_CSNAAT
  83:/home/bekeband/workspace/OLIMEX_Start/src/spi.h **** } spi_cs_behavior_t;
  84:/home/bekeband/workspace/OLIMEX_Start/src/spi.h **** 
  85:/home/bekeband/workspace/OLIMEX_Start/src/spi.h **** /**
  86:/home/bekeband/workspace/OLIMEX_Start/src/spi.h ****  * \brief Generate Peripheral Chip Select Value from Chip Select ID
  87:/home/bekeband/workspace/OLIMEX_Start/src/spi.h ****  * \note When chip select n is working, PCS bit n is set to low level.
  88:/home/bekeband/workspace/OLIMEX_Start/src/spi.h ****  *
  89:/home/bekeband/workspace/OLIMEX_Start/src/spi.h ****  * \param chip_sel_id The chip select number used
  90:/home/bekeband/workspace/OLIMEX_Start/src/spi.h ****  */
  91:/home/bekeband/workspace/OLIMEX_Start/src/spi.h **** #define spi_get_pcs(chip_sel_id) ((~(1u<<(chip_sel_id)))&0xF)
  92:/home/bekeband/workspace/OLIMEX_Start/src/spi.h **** 
  93:/home/bekeband/workspace/OLIMEX_Start/src/spi.h **** /**
  94:/home/bekeband/workspace/OLIMEX_Start/src/spi.h ****  * \brief Reset SPI and set it to Slave mode.
  95:/home/bekeband/workspace/OLIMEX_Start/src/spi.h ****  *
  96:/home/bekeband/workspace/OLIMEX_Start/src/spi.h ****  * \param p_spi Pointer to an SPI instance.
  97:/home/bekeband/workspace/OLIMEX_Start/src/spi.h ****  */
  98:/home/bekeband/workspace/OLIMEX_Start/src/spi.h **** static inline void spi_reset(Spi *p_spi)
  99:/home/bekeband/workspace/OLIMEX_Start/src/spi.h **** {
 100:/home/bekeband/workspace/OLIMEX_Start/src/spi.h **** 	p_spi->SPI_CR = SPI_CR_SWRST;
 101:/home/bekeband/workspace/OLIMEX_Start/src/spi.h **** }
 102:/home/bekeband/workspace/OLIMEX_Start/src/spi.h **** 
 103:/home/bekeband/workspace/OLIMEX_Start/src/spi.h **** /**
 104:/home/bekeband/workspace/OLIMEX_Start/src/spi.h ****  * \brief Enable SPI.
 105:/home/bekeband/workspace/OLIMEX_Start/src/spi.h ****  *
 106:/home/bekeband/workspace/OLIMEX_Start/src/spi.h ****  * \param p_spi Pointer to an SPI instance.
 107:/home/bekeband/workspace/OLIMEX_Start/src/spi.h ****  */
 108:/home/bekeband/workspace/OLIMEX_Start/src/spi.h **** static inline void spi_enable(Spi *p_spi)
 109:/home/bekeband/workspace/OLIMEX_Start/src/spi.h **** {
 110:/home/bekeband/workspace/OLIMEX_Start/src/spi.h **** 	p_spi->SPI_CR = SPI_CR_SPIEN;
 564              		.loc 2 110 0
 565 0016 0123     		movs	r3, #1
 566 0018 2360     		str	r3, [r4]
 567              	.LVL54:
 568              	.LBE22:
 569              	.LBE21:
 483:../src/sam/components/display/ili93xx/ili93xx.c ****   spi_write(BOARD_ILI9341_SPI, uc_reg, BOARD_ILI9341_SPI_NPCS, 0);
 570              		.loc 1 483 0
 571 001a 0220     		movs	r0, #2
 572 001c FFF7FEFF 		bl	pio_set_pin_low
 573              	.LVL55:
 484:../src/sam/components/display/ili93xx/ili93xx.c **** 
 574              		.loc 1 484 0
 575 0020 0023     		movs	r3, #0
 576 0022 1A46     		mov	r2, r3
 577 0024 3146     		mov	r1, r6
 578 0026 2046     		mov	r0, r4
 579 0028 FFF7FEFF 		bl	spi_write
 580              	.LVL56:
 487:../src/sam/components/display/ili93xx/ili93xx.c **** 
 581              		.loc 1 487 0
 582 002c 0220     		movs	r0, #2
 583 002e FFF7FEFF 		bl	pio_set_pin_high
 584              	.LVL57:
 585              	.LBB23:
 489:../src/sam/components/display/ili93xx/ili93xx.c ****       spi_write(BOARD_ILI9341_SPI, &p_data, BOARD_ILI9341_SPI_NPCS, 0);
 586              		.loc 1 489 0
 587 0032 0024     		movs	r4, #0
 588 0034 0BE0     		b	.L49
 589              	.LVL58:
 590              	.L50:
 490:../src/sam/components/display/ili93xx/ili93xx.c ****       p_data++;
 591              		.loc 1 490 0 discriminator 3
 592 0036 01A9     		add	r1, sp, #4
 593              	.LVL59:
 594 0038 89B2     		uxth	r1, r1
 595              	.LVL60:
 596 003a 0023     		movs	r3, #0
 597 003c 1A46     		mov	r2, r3
 598 003e 0648     		ldr	r0, .L52
 599 0040 FFF7FEFF 		bl	spi_write
 600              	.LVL61:
 491:../src/sam/components/display/ili93xx/ili93xx.c ****   }
 601              		.loc 1 491 0 discriminator 3
 602 0044 019B     		ldr	r3, [sp, #4]
 603 0046 0133     		adds	r3, r3, #1
 604 0048 0193     		str	r3, [sp, #4]
 489:../src/sam/components/display/ili93xx/ili93xx.c ****       spi_write(BOARD_ILI9341_SPI, &p_data, BOARD_ILI9341_SPI_NPCS, 0);
 605              		.loc 1 489 0 discriminator 3
 606 004a 0134     		adds	r4, r4, #1
 607              	.LVL62:
 608 004c E4B2     		uxtb	r4, r4
 609              	.LVL63:
 610              	.L49:
 489:../src/sam/components/display/ili93xx/ili93xx.c ****       spi_write(BOARD_ILI9341_SPI, &p_data, BOARD_ILI9341_SPI_NPCS, 0);
 611              		.loc 1 489 0 is_stmt 0 discriminator 1
 612 004e AC42     		cmp	r4, r5
 613 0050 F1D3     		bcc	.L50
 614              	.LBE23:
 501:../src/sam/components/display/ili93xx/ili93xx.c **** 
 615              		.loc 1 501 0 is_stmt 1
 616 0052 02B0     		add	sp, sp, #8
 617              		.cfi_def_cfa_offset 16
 618              		@ sp needed
 619 0054 70BD     		pop	{r4, r5, r6, pc}
 620              	.LVL64:
 621              	.L53:
 622 0056 00BF     		.align	2
 623              	.L52:
 624 0058 00800040 		.word	1073774592
 625              		.cfi_endproc
 626              	.LFE183:
 628              		.section	.text.ili93xx_read_ram_prepare,"ax",%progbits
 629              		.align	2
 630              		.thumb
 631              		.thumb_func
 633              	ili93xx_read_ram_prepare:
 634              	.LFB184:
 507:../src/sam/components/display/ili93xx/ili93xx.c **** 	if (g_uc_device_type == DEVICE_TYPE_ILI9325) {
 635              		.loc 1 507 0
 636              		.cfi_startproc
 637              		@ args = 0, pretend = 0, frame = 0
 638              		@ frame_needed = 0, uses_anonymous_args = 0
 639 0000 08B5     		push	{r3, lr}
 640              		.cfi_def_cfa_offset 8
 641              		.cfi_offset 3, -8
 642              		.cfi_offset 14, -4
 508:../src/sam/components/display/ili93xx/ili93xx.c **** 		LCD_IR(0);
 643              		.loc 1 508 0
 644 0002 0A4B     		ldr	r3, .L58
 645 0004 1B78     		ldrb	r3, [r3]	@ zero_extendqisi2
 646 0006 012B     		cmp	r3, #1
 647 0008 06D1     		bne	.L55
 648              	.LBB24:
 509:../src/sam/components/display/ili93xx/ili93xx.c **** 		/** Write Data to GRAM (R22h) */
 649              		.loc 1 509 0
 650 000a 0020     		movs	r0, #0
 651 000c FFF7FEFF 		bl	LCD_IR
 652              	.LVL65:
 511:../src/sam/components/display/ili93xx/ili93xx.c **** 	} else if (g_uc_device_type == DEVICE_TYPE_ILI9341) {
 653              		.loc 1 511 0
 654 0010 2220     		movs	r0, #34
 655 0012 FFF7FEFF 		bl	LCD_IR
 656              	.LVL66:
 657              	.LBE24:
 658 0016 08BD     		pop	{r3, pc}
 659              	.L55:
 512:../src/sam/components/display/ili93xx/ili93xx.c **** 		LCD_IR(0);
 660              		.loc 1 512 0
 661 0018 022B     		cmp	r3, #2
 662 001a 05D1     		bne	.L54
 663              	.LBB25:
 513:../src/sam/components/display/ili93xx/ili93xx.c **** 		/** Write Data to GRAM (R2Eh) */
 664              		.loc 1 513 0
 665 001c 0020     		movs	r0, #0
 666 001e FFF7FEFF 		bl	LCD_IR
 667              	.LVL67:
 515:../src/sam/components/display/ili93xx/ili93xx.c **** 	}
 668              		.loc 1 515 0
 669 0022 2E20     		movs	r0, #46
 670 0024 FFF7FEFF 		bl	LCD_IR
 671              	.LVL68:
 672              	.L54:
 673 0028 08BD     		pop	{r3, pc}
 674              	.L59:
 675 002a 00BF     		.align	2
 676              	.L58:
 677 002c 00000000 		.word	.LANCHOR2
 678              	.LBE25:
 679              		.cfi_endproc
 680              	.LFE184:
 682              		.section	.text.ili93xx_read_ram,"ax",%progbits
 683              		.align	2
 684              		.thumb
 685              		.thumb_func
 687              	ili93xx_read_ram:
 688              	.LFB185:
 528:../src/sam/components/display/ili93xx/ili93xx.c **** 	uint8_t value[3];
 689              		.loc 1 528 0
 690              		.cfi_startproc
 691              		@ args = 0, pretend = 0, frame = 0
 692              		@ frame_needed = 0, uses_anonymous_args = 0
 693 0000 38B5     		push	{r3, r4, r5, lr}
 694              		.cfi_def_cfa_offset 16
 695              		.cfi_offset 3, -16
 696              		.cfi_offset 4, -12
 697              		.cfi_offset 5, -8
 698              		.cfi_offset 14, -4
 531:../src/sam/components/display/ili93xx/ili93xx.c **** 		/** dummy read*/
 699              		.loc 1 531 0
 700 0002 174B     		ldr	r3, .L64
 701 0004 1B78     		ldrb	r3, [r3]	@ zero_extendqisi2
 702 0006 012B     		cmp	r3, #1
 703 0008 17D1     		bne	.L61
 704              	.LBB26:
 533:../src/sam/components/display/ili93xx/ili93xx.c **** 		value[1] = LCD_RD();
 705              		.loc 1 533 0
 706 000a FFF7FEFF 		bl	LCD_RD
 707              	.LVL69:
 534:../src/sam/components/display/ili93xx/ili93xx.c **** 		/** data upper byte*/
 708              		.loc 1 534 0
 709 000e FFF7FEFF 		bl	LCD_RD
 710              	.LVL70:
 536:../src/sam/components/display/ili93xx/ili93xx.c **** 		/** data lower byte */
 711              		.loc 1 536 0
 712 0012 FFF7FEFF 		bl	LCD_RD
 713              	.LVL71:
 714 0016 C4B2     		uxtb	r4, r0
 538:../src/sam/components/display/ili93xx/ili93xx.c **** 
 715              		.loc 1 538 0
 716 0018 FFF7FEFF 		bl	LCD_RD
 717              	.LVL72:
 718 001c C3B2     		uxtb	r3, r0
 542:../src/sam/components/display/ili93xx/ili93xx.c **** 				((value[1] & 0xE0) << 5) |
 719              		.loc 1 542 0
 720 001e 04F0F800 		and	r0, r4, #248
 721 0022 6403     		lsls	r4, r4, #13
 722 0024 A4B2     		uxth	r4, r4
 723 0026 0443     		orrs	r4, r4, r0
 543:../src/sam/components/display/ili93xx/ili93xx.c **** 				((value[1] & 0x1F) << 19);
 724              		.loc 1 543 0
 725 0028 5801     		lsls	r0, r3, #5
 726 002a 00F4E050 		and	r0, r0, #7168
 542:../src/sam/components/display/ili93xx/ili93xx.c **** 				((value[1] & 0xE0) << 5) |
 727              		.loc 1 542 0
 728 002e 2043     		orrs	r0, r0, r4
 544:../src/sam/components/display/ili93xx/ili93xx.c **** 	} else if (g_uc_device_type == DEVICE_TYPE_ILI9341) {
 729              		.loc 1 544 0
 730 0030 DB04     		lsls	r3, r3, #19
 731 0032 03F47803 		and	r3, r3, #16252928
 543:../src/sam/components/display/ili93xx/ili93xx.c **** 				((value[1] & 0x1F) << 19);
 732              		.loc 1 543 0
 733 0036 1843     		orrs	r0, r0, r3
 734              	.LVL73:
 735              	.LBE26:
 736 0038 38BD     		pop	{r3, r4, r5, pc}
 737              	.LVL74:
 738              	.L61:
 545:../src/sam/components/display/ili93xx/ili93xx.c **** 		/** dummy read */
 739              		.loc 1 545 0
 740 003a 022B     		cmp	r3, #2
 741 003c 0ED1     		bne	.L62
 742              	.LBB27:
 547:../src/sam/components/display/ili93xx/ili93xx.c **** 		/** the highest byte - R byte*/
 743              		.loc 1 547 0
 744 003e FFF7FEFF 		bl	LCD_RD
 745              	.LVL75:
 549:../src/sam/components/display/ili93xx/ili93xx.c **** 		/** the middle byte - G byte*/
 746              		.loc 1 549 0
 747 0042 FFF7FEFF 		bl	LCD_RD
 748              	.LVL76:
 749 0046 C5B2     		uxtb	r5, r0
 551:../src/sam/components/display/ili93xx/ili93xx.c **** 		/** the lowest byte - B byte*/
 750              		.loc 1 551 0
 751 0048 FFF7FEFF 		bl	LCD_RD
 752              	.LVL77:
 753 004c C4B2     		uxtb	r4, r0
 553:../src/sam/components/display/ili93xx/ili93xx.c **** 		/** combine R, G, B byte to a color value */
 754              		.loc 1 553 0
 755 004e FFF7FEFF 		bl	LCD_RD
 756              	.LVL78:
 757 0052 C0B2     		uxtb	r0, r0
 555:../src/sam/components/display/ili93xx/ili93xx.c **** 	}
 758              		.loc 1 555 0
 759 0054 2402     		lsls	r4, r4, #8
 760 0056 44EA0544 		orr	r4, r4, r5, lsl #16
 761 005a 2043     		orrs	r0, r0, r4
 762              	.LVL79:
 763              	.L62:
 764              	.LBE27:
 559:../src/sam/components/display/ili93xx/ili93xx.c **** 
 765              		.loc 1 559 0
 766 005c 38BD     		pop	{r3, r4, r5, pc}
 767              	.L65:
 768 005e 00BF     		.align	2
 769              	.L64:
 770 0060 00000000 		.word	.LANCHOR2
 771              		.cfi_endproc
 772              	.LFE185:
 774              		.section	.text.ili93xx_device_type_identify,"ax",%progbits
 775              		.align	2
 776              		.global	ili93xx_device_type_identify
 777              		.thumb
 778              		.thumb_func
 780              	ili93xx_device_type_identify:
 781              	.LFB189:
 636:../src/sam/components/display/ili93xx/ili93xx.c **** 
 637:../src/sam/components/display/ili93xx/ili93xx.c **** /**
 638:../src/sam/components/display/ili93xx/ili93xx.c ****  * \brief Read device ID to idenfity the device
 639:../src/sam/components/display/ili93xx/ili93xx.c ****  *        ILI9325 device ID locates in Device Code Read (R00h) register.
 640:../src/sam/components/display/ili93xx/ili93xx.c ****  *        ILI9341 device ID locates in Read ID4 (RD3h) register.
 641:../src/sam/components/display/ili93xx/ili93xx.c ****  *
 642:../src/sam/components/display/ili93xx/ili93xx.c ****  * \return 0 if secceed in identifying device; otherwise fails.
 643:../src/sam/components/display/ili93xx/ili93xx.c ****  */
 644:../src/sam/components/display/ili93xx/ili93xx.c **** uint8_t ili93xx_device_type_identify(void)
 645:../src/sam/components/display/ili93xx/ili93xx.c **** {
 782              		.loc 1 645 0
 783              		.cfi_startproc
 784              		@ args = 0, pretend = 0, frame = 16
 785              		@ frame_needed = 0, uses_anonymous_args = 0
 786 0000 00B5     		push	{lr}
 787              		.cfi_def_cfa_offset 4
 788              		.cfi_offset 14, -4
 789 0002 87B0     		sub	sp, sp, #28
 790              		.cfi_def_cfa_offset 32
 646:../src/sam/components/display/ili93xx/ili93xx.c ****   uint8_t paratable[10];
 647:../src/sam/components/display/ili93xx/ili93xx.c ****   uint16_t chipid;
 648:../src/sam/components/display/ili93xx/ili93xx.c **** 
 649:../src/sam/components/display/ili93xx/ili93xx.c ****   /** Read ID4 (RD4h) register to get device code for ILI9341*/
 650:../src/sam/components/display/ili93xx/ili93xx.c ****   ili93xx_read_register(ILI9341_CMD_READ_DISP_STATUS, paratable, 5);
 791              		.loc 1 650 0
 792 0004 0522     		movs	r2, #5
 793 0006 03A9     		add	r1, sp, #12
 794 0008 0920     		movs	r0, #9
 795 000a FFF7FEFF 		bl	ili93xx_read_register
 796              	.LVL80:
 651:../src/sam/components/display/ili93xx/ili93xx.c ****   printf("ILI9341_CMD_READ_DISP_STATUS = %2x %2x %2x %2x\r\n", paratable[1], paratable[2], paratabl
 797              		.loc 1 651 0
 798 000e 9DF80D10 		ldrb	r1, [sp, #13]	@ zero_extendqisi2
 799 0012 9DF80E20 		ldrb	r2, [sp, #14]	@ zero_extendqisi2
 800 0016 9DF80F30 		ldrb	r3, [sp, #15]	@ zero_extendqisi2
 801 001a 9DF81000 		ldrb	r0, [sp, #16]	@ zero_extendqisi2
 802 001e 0090     		str	r0, [sp]
 803 0020 2948     		ldr	r0, .L71
 804 0022 FFF7FEFF 		bl	iprintf
 805              	.LVL81:
 652:../src/sam/components/display/ili93xx/ili93xx.c ****   ili93xx_read_register(ILI9341_CMD_READ_DISP_ID, paratable, 4);
 806              		.loc 1 652 0
 807 0026 0422     		movs	r2, #4
 808 0028 03A9     		add	r1, sp, #12
 809 002a 1046     		mov	r0, r2
 810 002c FFF7FEFF 		bl	ili93xx_read_register
 811              	.LVL82:
 653:../src/sam/components/display/ili93xx/ili93xx.c ****   printf("ILI9341_CMD_READ_DISP_ID = %2x %2x %2x\r\n", paratable[1], paratable[2], paratable[3]);
 812              		.loc 1 653 0
 813 0030 9DF80F30 		ldrb	r3, [sp, #15]	@ zero_extendqisi2
 814 0034 9DF80E20 		ldrb	r2, [sp, #14]	@ zero_extendqisi2
 815 0038 9DF80D10 		ldrb	r1, [sp, #13]	@ zero_extendqisi2
 816 003c 2348     		ldr	r0, .L71+4
 817 003e FFF7FEFF 		bl	iprintf
 818              	.LVL83:
 654:../src/sam/components/display/ili93xx/ili93xx.c ****   ili93xx_read_register(ILI9341_CMD_READ_DISP_POWER_MODE, paratable, 2);
 819              		.loc 1 654 0
 820 0042 0222     		movs	r2, #2
 821 0044 03A9     		add	r1, sp, #12
 822 0046 0A20     		movs	r0, #10
 823 0048 FFF7FEFF 		bl	ili93xx_read_register
 824              	.LVL84:
 655:../src/sam/components/display/ili93xx/ili93xx.c ****   printf("ILI9341_CMD_READ_DISP_POWER_MODE = %2x\r\n", paratable[1]);
 825              		.loc 1 655 0
 826 004c 9DF80D10 		ldrb	r1, [sp, #13]	@ zero_extendqisi2
 827 0050 1F48     		ldr	r0, .L71+8
 828 0052 FFF7FEFF 		bl	iprintf
 829              	.LVL85:
 656:../src/sam/components/display/ili93xx/ili93xx.c ****   ili93xx_read_register(ILI9341_CMD_READ_DISP_MADCTRL, paratable, 2);
 830              		.loc 1 656 0
 831 0056 0222     		movs	r2, #2
 832 0058 03A9     		add	r1, sp, #12
 833 005a 0B20     		movs	r0, #11
 834 005c FFF7FEFF 		bl	ili93xx_read_register
 835              	.LVL86:
 657:../src/sam/components/display/ili93xx/ili93xx.c ****   printf("ILI9341_CMD_READ_DISP_MADCTRL = %2x\r\n", paratable[1]);
 836              		.loc 1 657 0
 837 0060 9DF80D10 		ldrb	r1, [sp, #13]	@ zero_extendqisi2
 838 0064 1B48     		ldr	r0, .L71+12
 839 0066 FFF7FEFF 		bl	iprintf
 840              	.LVL87:
 658:../src/sam/components/display/ili93xx/ili93xx.c **** 
 659:../src/sam/components/display/ili93xx/ili93xx.c ****   chipid = ((uint16_t)paratable[2] << 8) + paratable[3];
 841              		.loc 1 659 0
 842 006a 9DF80E20 		ldrb	r2, [sp, #14]	@ zero_extendqisi2
 843 006e 9DF80F30 		ldrb	r3, [sp, #15]	@ zero_extendqisi2
 844 0072 03EB0223 		add	r3, r3, r2, lsl #8
 845 0076 9BB2     		uxth	r3, r3
 846              	.LVL88:
 660:../src/sam/components/display/ili93xx/ili93xx.c **** 
 661:../src/sam/components/display/ili93xx/ili93xx.c ****   if (chipid == ILI9341_DEVICE_CODE) { g_uc_device_type = DEVICE_TYPE_ILI9341; return 0; }
 847              		.loc 1 661 0
 848 0078 49F24132 		movw	r2, #37697
 849 007c 9342     		cmp	r3, r2
 850 007e 04D1     		bne	.L67
 851              		.loc 1 661 0 is_stmt 0 discriminator 1
 852 0080 0222     		movs	r2, #2
 853 0082 154B     		ldr	r3, .L71+16
 854              	.LVL89:
 855 0084 1A70     		strb	r2, [r3]
 856 0086 0020     		movs	r0, #0
 857 0088 1AE0     		b	.L68
 858              	.LVL90:
 859              	.L67:
 662:../src/sam/components/display/ili93xx/ili93xx.c **** 
 663:../src/sam/components/display/ili93xx/ili93xx.c ****   /** Driver Code Read (R00h) for ILI9325*/
 664:../src/sam/components/display/ili93xx/ili93xx.c ****   ili93xx_read_register(ILI9325_DEVICE_CODE_REG, paratable, 2);
 860              		.loc 1 664 0 is_stmt 1
 861 008a 0222     		movs	r2, #2
 862 008c 03A9     		add	r1, sp, #12
 863 008e 0020     		movs	r0, #0
 864 0090 FFF7FEFF 		bl	ili93xx_read_register
 865              	.LVL91:
 665:../src/sam/components/display/ili93xx/ili93xx.c ****   chipid = ((uint16_t)paratable[0] << 8) + paratable[1];
 866              		.loc 1 665 0
 867 0094 9DF80C20 		ldrb	r2, [sp, #12]	@ zero_extendqisi2
 868 0098 9DF80D30 		ldrb	r3, [sp, #13]	@ zero_extendqisi2
 869 009c 03EB0223 		add	r3, r3, r2, lsl #8
 870 00a0 9BB2     		uxth	r3, r3
 871              	.LVL92:
 666:../src/sam/components/display/ili93xx/ili93xx.c ****   if (chipid == ILI9325_DEVICE_CODE) { g_uc_device_type = DEVICE_TYPE_ILI9325; return 0;}
 872              		.loc 1 666 0
 873 00a2 49F22532 		movw	r2, #37669
 874 00a6 9342     		cmp	r3, r2
 875 00a8 04D1     		bne	.L69
 876              		.loc 1 666 0 is_stmt 0 discriminator 1
 877 00aa 0122     		movs	r2, #1
 878 00ac 0A4B     		ldr	r3, .L71+16
 879              	.LVL93:
 880 00ae 1A70     		strb	r2, [r3]
 881 00b0 0020     		movs	r0, #0
 882 00b2 05E0     		b	.L68
 883              	.LVL94:
 884              	.L69:
 667:../src/sam/components/display/ili93xx/ili93xx.c **** 
 668:../src/sam/components/display/ili93xx/ili93xx.c ****   printf("Device type identifity = %x\n\t", g_uc_device_type);
 885              		.loc 1 668 0 is_stmt 1
 886 00b4 084B     		ldr	r3, .L71+16
 887              	.LVL95:
 888 00b6 1978     		ldrb	r1, [r3]	@ zero_extendqisi2
 889 00b8 0848     		ldr	r0, .L71+20
 890 00ba FFF7FEFF 		bl	iprintf
 891              	.LVL96:
 669:../src/sam/components/display/ili93xx/ili93xx.c **** 
 670:../src/sam/components/display/ili93xx/ili93xx.c ****   return 1;
 892              		.loc 1 670 0
 893 00be 0120     		movs	r0, #1
 894              	.L68:
 671:../src/sam/components/display/ili93xx/ili93xx.c **** }
 895              		.loc 1 671 0
 896 00c0 07B0     		add	sp, sp, #28
 897              		.cfi_def_cfa_offset 4
 898              		@ sp needed
 899 00c2 5DF804FB 		ldr	pc, [sp], #4
 900              	.L72:
 901 00c6 00BF     		.align	2
 902              	.L71:
 903 00c8 00000000 		.word	.LC0
 904 00cc 34000000 		.word	.LC1
 905 00d0 60000000 		.word	.LC2
 906 00d4 8C000000 		.word	.LC3
 907 00d8 00000000 		.word	.LANCHOR2
 908 00dc B4000000 		.word	.LC4
 909              		.cfi_endproc
 910              	.LFE189:
 912              		.section	.text.ili93xx_device_type,"ax",%progbits
 913              		.align	2
 914              		.global	ili93xx_device_type
 915              		.thumb
 916              		.thumb_func
 918              	ili93xx_device_type:
 919              	.LFB192:
 672:../src/sam/components/display/ili93xx/ili93xx.c **** 
 673:../src/sam/components/display/ili93xx/ili93xx.c **** /* \brief Initialize the ILI93XX lcd driver.
 674:../src/sam/components/display/ili93xx/ili93xx.c **** *
 675:../src/sam/components/display/ili93xx/ili93xx.c **** * \note Make sure below works have been done before calling ili93xx_init_w_spi()
 676:../src/sam/components/display/ili93xx/ili93xx.c **** * 1. ILI93xx related Pins have been initialized correctly.
 677:../src/sam/components/display/ili93xx/ili93xx.c **** * 2. SPI has been configured correctly for access ILI93xx (8-bit system
 678:../src/sam/components/display/ili93xx/ili93xx.c **** *    interface for now).
 679:../src/sam/components/display/ili93xx/ili93xx.c **** *
 680:../src/sam/components/display/ili93xx/ili93xx.c **** * \param p_opt pointer to ILI93xx option structure.
 681:../src/sam/components/display/ili93xx/ili93xx.c **** *
 682:../src/sam/components/display/ili93xx/ili93xx.c **** * \return 0 if initialization succeeds, otherwise fails.
 683:../src/sam/components/display/ili93xx/ili93xx.c **** */
 684:../src/sam/components/display/ili93xx/ili93xx.c **** uint32_t ili93xx_init_w_spi(struct ili93xx_opt_t *p_opt)
 685:../src/sam/components/display/ili93xx/ili93xx.c **** {
 686:../src/sam/components/display/ili93xx/ili93xx.c ****   uint8_t paratable[6];
 687:../src/sam/components/display/ili93xx/ili93xx.c **** 
 688:../src/sam/components/display/ili93xx/ili93xx.c ****     /* SPI device structure */
 689:../src/sam/components/display/ili93xx/ili93xx.c ****     struct spi_device ILI9341_SPI_DEVICE = {
 690:../src/sam/components/display/ili93xx/ili93xx.c **** 	// Board specific chip select configuration
 691:../src/sam/components/display/ili93xx/ili93xx.c **** 	.id = BOARD_ILI9341_SPI_NPCS
 692:../src/sam/components/display/ili93xx/ili93xx.c ****     };
 693:../src/sam/components/display/ili93xx/ili93xx.c **** 
 694:../src/sam/components/display/ili93xx/ili93xx.c ****     g_uc_device_type = DEVICE_TYPE_ILI9341;
 695:../src/sam/components/display/ili93xx/ili93xx.c **** 
 696:../src/sam/components/display/ili93xx/ili93xx.c ****     /* Reset LCD module */
 697:../src/sam/components/display/ili93xx/ili93xx.c ****     gpio_set_pin_high(BOARD_ILI9341_RSTN_GPIO);
 698:../src/sam/components/display/ili93xx/ili93xx.c ****     ili93xx_delay(2); /* wait for at least 2ms */
 699:../src/sam/components/display/ili93xx/ili93xx.c **** 
 700:../src/sam/components/display/ili93xx/ili93xx.c ****     gpio_set_pin_low(BOARD_ILI9341_RSTN_GPIO);
 701:../src/sam/components/display/ili93xx/ili93xx.c ****     ili93xx_delay(20); /* wait for at least 20ms */
 702:../src/sam/components/display/ili93xx/ili93xx.c **** 
 703:../src/sam/components/display/ili93xx/ili93xx.c ****     gpio_set_pin_high(BOARD_ILI9341_RSTN_GPIO);
 704:../src/sam/components/display/ili93xx/ili93xx.c ****     ili93xx_delay(50); /* wait for at least 50ms */
 705:../src/sam/components/display/ili93xx/ili93xx.c **** 
 706:../src/sam/components/display/ili93xx/ili93xx.c **** 
 707:../src/sam/components/display/ili93xx/ili93xx.c ****     /* Finish current transfer and reset SPI */
 708:../src/sam/components/display/ili93xx/ili93xx.c ****     spi_disable(BOARD_ILI9341_SPI);
 709:../src/sam/components/display/ili93xx/ili93xx.c ****     spi_reset(BOARD_ILI9341_SPI);
 710:../src/sam/components/display/ili93xx/ili93xx.c ****     spi_set_lastxfer(BOARD_ILI9341_SPI);
 711:../src/sam/components/display/ili93xx/ili93xx.c **** 
 712:../src/sam/components/display/ili93xx/ili93xx.c ****     /* Enable Interrupt */
 713:../src/sam/components/display/ili93xx/ili93xx.c ****     NVIC_DisableIRQ(BOARD_ILI9341_SPI_IRQN);
 714:../src/sam/components/display/ili93xx/ili93xx.c ****     NVIC_ClearPendingIRQ(BOARD_ILI9341_SPI_IRQN);
 715:../src/sam/components/display/ili93xx/ili93xx.c ****     NVIC_SetPriority(BOARD_ILI9341_SPI_IRQN, 0);
 716:../src/sam/components/display/ili93xx/ili93xx.c ****     NVIC_EnableIRQ(BOARD_ILI9341_SPI_IRQN);
 717:../src/sam/components/display/ili93xx/ili93xx.c **** 
 718:../src/sam/components/display/ili93xx/ili93xx.c ****     /* Init, select and configure the chip */
 719:../src/sam/components/display/ili93xx/ili93xx.c ****     spi_master_init(BOARD_ILI9341_SPI);
 720:../src/sam/components/display/ili93xx/ili93xx.c ****     spi_master_setup_device(BOARD_ILI9341_SPI, &ILI9341_SPI_DEVICE, SPI_MODE_0, ILI9341_SPI_BAUDRAT
 721:../src/sam/components/display/ili93xx/ili93xx.c ****     spi_select_device(BOARD_ILI9341_SPI, &ILI9341_SPI_DEVICE);
 722:../src/sam/components/display/ili93xx/ili93xx.c **** 
 723:../src/sam/components/display/ili93xx/ili93xx.c ****     /* Enable the SPI peripheral */
 724:../src/sam/components/display/ili93xx/ili93xx.c ****     spi_enable(BOARD_ILI9341_SPI);
 725:../src/sam/components/display/ili93xx/ili93xx.c **** //    spi_enable_interrupt(BOARD_ILI9341_SPI, SPI_IER_RDRF);
 726:../src/sam/components/display/ili93xx/ili93xx.c **** 
 727:../src/sam/components/display/ili93xx/ili93xx.c ****     g_ul_lcd_x_length = ILI93XX_LCD_WIDTH;
 728:../src/sam/components/display/ili93xx/ili93xx.c ****     g_ul_lcd_y_length = ILI93XX_LCD_HEIGHT;
 729:../src/sam/components/display/ili93xx/ili93xx.c **** 
 730:../src/sam/components/display/ili93xx/ili93xx.c **** //    ioport_set_pin_level(SPI_NPCS0_GPIO, IOPORT_PIN_LEVEL_LOW);
 731:../src/sam/components/display/ili93xx/ili93xx.c **** 
 732:../src/sam/components/display/ili93xx/ili93xx.c ****     /** Identify the LCD driver device*/
 733:../src/sam/components/display/ili93xx/ili93xx.c **** //    ili93xx_device_type_identify();
 734:../src/sam/components/display/ili93xx/ili93xx.c **** 	//{	return 1; }
 735:../src/sam/components/display/ili93xx/ili93xx.c **** 
 736:../src/sam/components/display/ili93xx/ili93xx.c ****     /** init for ILI9341 **/
 737:../src/sam/components/display/ili93xx/ili93xx.c ****     /** power control A configuration*/
 738:../src/sam/components/display/ili93xx/ili93xx.c ****     paratable[0] = 0x39;
 739:../src/sam/components/display/ili93xx/ili93xx.c ****     paratable[1] = 0x2C;
 740:../src/sam/components/display/ili93xx/ili93xx.c ****     paratable[2] = 0x00;
 741:../src/sam/components/display/ili93xx/ili93xx.c ****     paratable[3] = 0x34;
 742:../src/sam/components/display/ili93xx/ili93xx.c ****     paratable[4] = 0x02;
 743:../src/sam/components/display/ili93xx/ili93xx.c ****     ili93xx_write_register_datas(ILI9341_CMD_POWER_CONTROL_A, paratable, 5);
 744:../src/sam/components/display/ili93xx/ili93xx.c **** 
 745:../src/sam/components/display/ili93xx/ili93xx.c ****     /** power control B configuration */
 746:../src/sam/components/display/ili93xx/ili93xx.c ****     paratable[0] = 0;
 747:../src/sam/components/display/ili93xx/ili93xx.c ****     paratable[1] = 0xAA;
 748:../src/sam/components/display/ili93xx/ili93xx.c ****     paratable[2] = 0xB0;
 749:../src/sam/components/display/ili93xx/ili93xx.c ****     ili93xx_write_register_datas(ILI9341_CMD_POWER_CONTROL_B, paratable, 3);
 750:../src/sam/components/display/ili93xx/ili93xx.c **** 
 751:../src/sam/components/display/ili93xx/ili93xx.c ****     /** Pump Ratio Control configuration */
 752:../src/sam/components/display/ili93xx/ili93xx.c ****     paratable[0] = 0x30;
 753:../src/sam/components/display/ili93xx/ili93xx.c ****     ili93xx_write_register_datas(ILI9341_CMD_PUMP_RATIO_CONTROL, paratable, 1);
 754:../src/sam/components/display/ili93xx/ili93xx.c **** 
 755:../src/sam/components/display/ili93xx/ili93xx.c ****     /** Power Control 1 configuration*/
 756:../src/sam/components/display/ili93xx/ili93xx.c ****     paratable[0] = 0x25;
 757:../src/sam/components/display/ili93xx/ili93xx.c ****     ili93xx_write_register_datas(ILI9341_CMD_POWER_CONTROL_1, paratable, 1);
 758:../src/sam/components/display/ili93xx/ili93xx.c **** 
 759:../src/sam/components/display/ili93xx/ili93xx.c ****     /** Power Control 2 configuration*/
 760:../src/sam/components/display/ili93xx/ili93xx.c ****     paratable[0] = 0x11;
 761:../src/sam/components/display/ili93xx/ili93xx.c ****     ili93xx_write_register_datas(ILI9341_CMD_POWER_CONTROL_2, paratable, 1);
 762:../src/sam/components/display/ili93xx/ili93xx.c **** 
 763:../src/sam/components/display/ili93xx/ili93xx.c ****     /** VOM Control 1 configuration*/
 764:../src/sam/components/display/ili93xx/ili93xx.c ****     paratable[0] = 0x5C;
 765:../src/sam/components/display/ili93xx/ili93xx.c ****     paratable[1] = 0x4C;
 766:../src/sam/components/display/ili93xx/ili93xx.c ****     ili93xx_write_register_datas(ILI9341_CMD_VCOM_CONTROL_1, paratable, 2);
 767:../src/sam/components/display/ili93xx/ili93xx.c **** 
 768:../src/sam/components/display/ili93xx/ili93xx.c ****     /** VOM control 2 configuration*/
 769:../src/sam/components/display/ili93xx/ili93xx.c ****     paratable[0] = 0x94;
 770:../src/sam/components/display/ili93xx/ili93xx.c ****     ili93xx_write_register_datas(ILI9341_CMD_VCOM_CONTROL_2, paratable, 1);
 771:../src/sam/components/display/ili93xx/ili93xx.c **** 
 772:../src/sam/components/display/ili93xx/ili93xx.c ****     /** Driver Timing Control A configuration*/
 773:../src/sam/components/display/ili93xx/ili93xx.c ****     paratable[0] = 0x85;
 774:../src/sam/components/display/ili93xx/ili93xx.c ****     paratable[1] = 0x01;
 775:../src/sam/components/display/ili93xx/ili93xx.c ****     paratable[2] = 0x78;
 776:../src/sam/components/display/ili93xx/ili93xx.c ****     ili93xx_write_register_datas(ILI9341_CMD_DRIVER_TIMING_CTL_A, paratable, 3);
 777:../src/sam/components/display/ili93xx/ili93xx.c **** 
 778:../src/sam/components/display/ili93xx/ili93xx.c ****     /** Driver Timing Control B configuration*/
 779:../src/sam/components/display/ili93xx/ili93xx.c ****     paratable[0] = 0x00;
 780:../src/sam/components/display/ili93xx/ili93xx.c ****     paratable[1] = 0x00;
 781:../src/sam/components/display/ili93xx/ili93xx.c ****     ili93xx_write_register_datas(ILI9341_CMD_DRIVER_TIMING_CTL_B, paratable, 2);
 782:../src/sam/components/display/ili93xx/ili93xx.c **** 
 783:../src/sam/components/display/ili93xx/ili93xx.c ****     /** Memory Access Control configuration*/
 784:../src/sam/components/display/ili93xx/ili93xx.c ****     paratable[0] = ILI9341_CMD_MEMORY_ACCESS_CONTROL_BGR | ILI9341_CMD_MEMORY_ACCESS_CONTROL_MX;
 785:../src/sam/components/display/ili93xx/ili93xx.c ****     ili93xx_write_register_datas(ILI9341_CMD_MEMORY_ACCESS_CONTROL, paratable, 1);
 786:../src/sam/components/display/ili93xx/ili93xx.c **** 
 787:../src/sam/components/display/ili93xx/ili93xx.c ****     /** Colmod Pixel Format Set configuation*/
 788:../src/sam/components/display/ili93xx/ili93xx.c **** #if defined(BITS_16_COLOR)
 789:../src/sam/components/display/ili93xx/ili93xx.c ****     paratable[0] = ILI9341_CMD_PIXEL_FORMAT_16_BITS;
 790:../src/sam/components/display/ili93xx/ili93xx.c **** #endif
 791:../src/sam/components/display/ili93xx/ili93xx.c **** #if defined(BITS_24_COLOR)
 792:../src/sam/components/display/ili93xx/ili93xx.c ****     paratable[0] = ILI9341_CMD_PIXEL_FORMAT_24_BITS;
 793:../src/sam/components/display/ili93xx/ili93xx.c **** #endif
 794:../src/sam/components/display/ili93xx/ili93xx.c ****     ili93xx_write_register_datas(ILI9341_CMD_PIXEL_FORMAT_SET, paratable, 1);
 795:../src/sam/components/display/ili93xx/ili93xx.c **** 
 796:../src/sam/components/display/ili93xx/ili93xx.c ****     /** Display Function Control */
 797:../src/sam/components/display/ili93xx/ili93xx.c ****     paratable[0] = 0x02;
 798:../src/sam/components/display/ili93xx/ili93xx.c ****     paratable[1] = 0x82;
 799:../src/sam/components/display/ili93xx/ili93xx.c ****     paratable[2] = 0x27;
 800:../src/sam/components/display/ili93xx/ili93xx.c ****     paratable[3] = 0x00;
 801:../src/sam/components/display/ili93xx/ili93xx.c ****     ili93xx_write_register_datas(ILI9341_CMD_DISPLAY_FUNCTION_CTL, paratable, 4);
 802:../src/sam/components/display/ili93xx/ili93xx.c **** 
 803:../src/sam/components/display/ili93xx/ili93xx.c ****     /** set window area*/
 804:../src/sam/components/display/ili93xx/ili93xx.c ****     ili93xx_set_window(0, 0, p_opt->ul_width, p_opt->ul_height);
 805:../src/sam/components/display/ili93xx/ili93xx.c ****     ili93xx_set_foreground_color(p_opt->foreground_color);
 806:../src/sam/components/display/ili93xx/ili93xx.c ****     /** Leave sleep mode*/
 807:../src/sam/components/display/ili93xx/ili93xx.c ****     ili93xx_write_register_datas(ILI9341_CMD_SLEEP_OUT, paratable, 0);
 808:../src/sam/components/display/ili93xx/ili93xx.c ****     ili93xx_delay(10);
 809:../src/sam/components/display/ili93xx/ili93xx.c ****     /** Display on*/
 810:../src/sam/components/display/ili93xx/ili93xx.c ****     ili93xx_write_register_datas(ILI9341_CMD_DISPLAY_ON, paratable, 0);
 811:../src/sam/components/display/ili93xx/ili93xx.c **** 
 812:../src/sam/components/display/ili93xx/ili93xx.c **** //    ili93xx_device_type_identify();
 813:../src/sam/components/display/ili93xx/ili93xx.c **** 
 814:../src/sam/components/display/ili93xx/ili93xx.c ****     return 0;
 815:../src/sam/components/display/ili93xx/ili93xx.c **** 
 816:../src/sam/components/display/ili93xx/ili93xx.c **** };
 817:../src/sam/components/display/ili93xx/ili93xx.c **** 
 818:../src/sam/components/display/ili93xx/ili93xx.c **** /**
 819:../src/sam/components/display/ili93xx/ili93xx.c ****  * \brief Initialize the ILI93XX lcd driver.
 820:../src/sam/components/display/ili93xx/ili93xx.c ****  *
 821:../src/sam/components/display/ili93xx/ili93xx.c ****  * \note Make sure below works have been done before calling ili93xx_init()
 822:../src/sam/components/display/ili93xx/ili93xx.c ****  * 1. ILI93xx related Pins have been initialized correctly.
 823:../src/sam/components/display/ili93xx/ili93xx.c ****  * 2. SMC has been configured correctly for access ILI93xx (8-bit system
 824:../src/sam/components/display/ili93xx/ili93xx.c ****  *    interface for now).
 825:../src/sam/components/display/ili93xx/ili93xx.c ****  *
 826:../src/sam/components/display/ili93xx/ili93xx.c ****  * \param p_opt pointer to ILI93xx option structure.
 827:../src/sam/components/display/ili93xx/ili93xx.c ****  *
 828:../src/sam/components/display/ili93xx/ili93xx.c ****  * \return 0 if initialization succeeds, otherwise fails.
 829:../src/sam/components/display/ili93xx/ili93xx.c ****  */
 830:../src/sam/components/display/ili93xx/ili93xx.c **** uint32_t ili93xx_init(struct ili93xx_opt_t *p_opt)
 831:../src/sam/components/display/ili93xx/ili93xx.c **** {
 832:../src/sam/components/display/ili93xx/ili93xx.c **** 	uint8_t paratable[6];
 833:../src/sam/components/display/ili93xx/ili93xx.c **** 
 834:../src/sam/components/display/ili93xx/ili93xx.c **** 	/** Identify the LCD driver device*/
 835:../src/sam/components/display/ili93xx/ili93xx.c **** 	if (ili93xx_device_type_identify() != 0) {
 836:../src/sam/components/display/ili93xx/ili93xx.c **** 		return 1;
 837:../src/sam/components/display/ili93xx/ili93xx.c **** 	}
 838:../src/sam/components/display/ili93xx/ili93xx.c **** 
 839:../src/sam/components/display/ili93xx/ili93xx.c **** 	g_ul_lcd_x_length = ILI93XX_LCD_WIDTH;
 840:../src/sam/components/display/ili93xx/ili93xx.c **** 	g_ul_lcd_y_length = ILI93XX_LCD_HEIGHT;
 841:../src/sam/components/display/ili93xx/ili93xx.c **** 
 842:../src/sam/components/display/ili93xx/ili93xx.c **** 	if (g_uc_device_type == DEVICE_TYPE_ILI9325) {
 843:../src/sam/components/display/ili93xx/ili93xx.c **** 		/** Turn off LCD */
 844:../src/sam/components/display/ili93xx/ili93xx.c **** 		ili93xx_write_register_word(ILI9325_DISP_CTRL1, ILI9325_DISP_CTRL1_GON |
 845:../src/sam/components/display/ili93xx/ili93xx.c **** 				ILI9325_DISP_CTRL1_DTE | ILI9325_DISP_CTRL1_D(0x03));
 846:../src/sam/components/display/ili93xx/ili93xx.c **** 
 847:../src/sam/components/display/ili93xx/ili93xx.c **** 		/** Start initial sequence */
 848:../src/sam/components/display/ili93xx/ili93xx.c **** 		/** Disable sleep and standby mode*/
 849:../src/sam/components/display/ili93xx/ili93xx.c **** 		ili93xx_write_register_word(ILI9325_POWER_CTRL1, 0x0000);
 850:../src/sam/components/display/ili93xx/ili93xx.c **** 		/** Start internal OSC */
 851:../src/sam/components/display/ili93xx/ili93xx.c **** 		ili93xx_write_register_word(ILI9325_START_OSC_CTRL,
 852:../src/sam/components/display/ili93xx/ili93xx.c **** 				ILI9325_START_OSC_CTRL_EN);
 853:../src/sam/components/display/ili93xx/ili93xx.c **** 		/** Set SS bit and direction output from S720 to S1 */
 854:../src/sam/components/display/ili93xx/ili93xx.c **** 		ili93xx_write_register_word(ILI9325_DRIVER_OUTPUT_CTRL1,
 855:../src/sam/components/display/ili93xx/ili93xx.c **** 				ILI9325_DRIVER_OUTPUT_CTRL1_SS);
 856:../src/sam/components/display/ili93xx/ili93xx.c **** 		/** Set 1 line inversion */
 857:../src/sam/components/display/ili93xx/ili93xx.c **** 		ili93xx_write_register_word(ILI9325_LCD_DRIVING_CTRL,
 858:../src/sam/components/display/ili93xx/ili93xx.c **** 				ILI9325_LCD_DRIVING_CTRL_BIT10 | ILI9325_LCD_DRIVING_CTRL_EOR
 859:../src/sam/components/display/ili93xx/ili93xx.c **** 				| ILI9325_LCD_DRIVING_CTRL_BC0);
 860:../src/sam/components/display/ili93xx/ili93xx.c **** 		/** Disable resizing feature */
 861:../src/sam/components/display/ili93xx/ili93xx.c **** 		ili93xx_write_register_word(ILI9325_RESIZE_CTRL, 0x0000);
 862:../src/sam/components/display/ili93xx/ili93xx.c **** 		/** Set the back porch and front porch */
 863:../src/sam/components/display/ili93xx/ili93xx.c **** 		ili93xx_write_register_word(ILI9325_DISP_CTRL2,
 864:../src/sam/components/display/ili93xx/ili93xx.c **** 				ILI9325_DISP_CTRL2_BP(
 865:../src/sam/components/display/ili93xx/ili93xx.c **** 				0x07) | ILI9325_DISP_CTRL2_FP(0x02));
 866:../src/sam/components/display/ili93xx/ili93xx.c **** 		/** Set non-display area refresh cycle ISC[3:0] */
 867:../src/sam/components/display/ili93xx/ili93xx.c **** 		ili93xx_write_register_word(ILI9325_DISP_CTRL3, 0x0000);
 868:../src/sam/components/display/ili93xx/ili93xx.c **** 		/** Disable FMARK function */
 869:../src/sam/components/display/ili93xx/ili93xx.c **** 		ili93xx_write_register_word(ILI9325_DISP_CTRL4, 0x0000);
 870:../src/sam/components/display/ili93xx/ili93xx.c **** 		/** 18-bit RGB interface and writing display data by system
 871:../src/sam/components/display/ili93xx/ili93xx.c **** 		 *interface */
 872:../src/sam/components/display/ili93xx/ili93xx.c **** 		ili93xx_write_register_word(ILI9325_RGB_DISP_INTERFACE_CTRL1,
 873:../src/sam/components/display/ili93xx/ili93xx.c **** 				0x0000);
 874:../src/sam/components/display/ili93xx/ili93xx.c **** 		/** Set the output position of frame cycle */
 875:../src/sam/components/display/ili93xx/ili93xx.c **** 		ili93xx_write_register_word(ILI9325_FRAME_MAKER_POS, 0x0000);
 876:../src/sam/components/display/ili93xx/ili93xx.c **** 		/** RGB interface polarity */
 877:../src/sam/components/display/ili93xx/ili93xx.c **** 		ili93xx_write_register_word(ILI9325_RGB_DISP_INTERFACE_CTRL2,
 878:../src/sam/components/display/ili93xx/ili93xx.c **** 				0x0000);
 879:../src/sam/components/display/ili93xx/ili93xx.c **** 
 880:../src/sam/components/display/ili93xx/ili93xx.c **** 		/** Power on sequence */
 881:../src/sam/components/display/ili93xx/ili93xx.c **** 		/** Disable sleep and standby mode */
 882:../src/sam/components/display/ili93xx/ili93xx.c **** 		ili93xx_write_register_word(ILI9325_POWER_CTRL1, 0x0000);
 883:../src/sam/components/display/ili93xx/ili93xx.c **** 
 884:../src/sam/components/display/ili93xx/ili93xx.c **** 		/**
 885:../src/sam/components/display/ili93xx/ili93xx.c **** 		 * Selects the operating frequency of the step-up circuit 1,2
 886:../src/sam/components/display/ili93xx/ili93xx.c **** 		 * and Sets the ratio factor of Vci.
 887:../src/sam/components/display/ili93xx/ili93xx.c **** 		 */
 888:../src/sam/components/display/ili93xx/ili93xx.c **** 		ili93xx_write_register_word(ILI9325_POWER_CTRL2, 0x0000);
 889:../src/sam/components/display/ili93xx/ili93xx.c **** 		/** Set VREG1OUT voltage */
 890:../src/sam/components/display/ili93xx/ili93xx.c **** 		ili93xx_write_register_word(ILI9325_POWER_CTRL3, 0x0000);
 891:../src/sam/components/display/ili93xx/ili93xx.c **** 		/** Set VCOM amplitude */
 892:../src/sam/components/display/ili93xx/ili93xx.c **** 		ili93xx_write_register_word(ILI9325_POWER_CTRL4, 0x0000);
 893:../src/sam/components/display/ili93xx/ili93xx.c **** 		ili93xx_delay(200);
 894:../src/sam/components/display/ili93xx/ili93xx.c **** 
 895:../src/sam/components/display/ili93xx/ili93xx.c **** 		/** Enable power supply and source driver */
 896:../src/sam/components/display/ili93xx/ili93xx.c **** 
 897:../src/sam/components/display/ili93xx/ili93xx.c **** 		/**
 898:../src/sam/components/display/ili93xx/ili93xx.c **** 		 * Adjusts the constant current and Sets the factor used
 899:../src/sam/components/display/ili93xx/ili93xx.c **** 		 * in the step-up circuits.
 900:../src/sam/components/display/ili93xx/ili93xx.c **** 		 */
 901:../src/sam/components/display/ili93xx/ili93xx.c **** 		ili93xx_write_register_word(ILI9325_POWER_CTRL1,
 902:../src/sam/components/display/ili93xx/ili93xx.c **** 				ILI9325_POWER_CTRL1_SAP | ILI9325_POWER_CTRL1_BT(0x02) |
 903:../src/sam/components/display/ili93xx/ili93xx.c **** 				ILI9325_POWER_CTRL1_APE |
 904:../src/sam/components/display/ili93xx/ili93xx.c **** 				ILI9325_POWER_CTRL1_AP(0x01));
 905:../src/sam/components/display/ili93xx/ili93xx.c **** 
 906:../src/sam/components/display/ili93xx/ili93xx.c **** 		/**
 907:../src/sam/components/display/ili93xx/ili93xx.c **** 		 * Select the operating frequency of the step-up circuit 1,2 and
 908:../src/sam/components/display/ili93xx/ili93xx.c **** 		 * Sets the ratio factor of Vci
 909:../src/sam/components/display/ili93xx/ili93xx.c **** 		 */
 910:../src/sam/components/display/ili93xx/ili93xx.c **** 		ili93xx_write_register_word(ILI9325_POWER_CTRL2,
 911:../src/sam/components/display/ili93xx/ili93xx.c **** 				ILI9325_POWER_CTRL2_DC1(0x02) |
 912:../src/sam/components/display/ili93xx/ili93xx.c **** 				ILI9325_POWER_CTRL2_DC0(0x02) | ILI9325_POWER_CTRL2_VC(0x07));
 913:../src/sam/components/display/ili93xx/ili93xx.c **** 		ili93xx_delay(50);
 914:../src/sam/components/display/ili93xx/ili93xx.c **** 		/** Internal reference voltage= Vci */
 915:../src/sam/components/display/ili93xx/ili93xx.c **** 		ili93xx_write_register_word(ILI9325_POWER_CTRL3,
 916:../src/sam/components/display/ili93xx/ili93xx.c **** 				ILI9325_POWER_CTRL3_PON | ILI9325_POWER_CTRL3_VRH(0x0B));
 917:../src/sam/components/display/ili93xx/ili93xx.c **** 		ili93xx_delay(50);
 918:../src/sam/components/display/ili93xx/ili93xx.c **** 		/** Set VDV[4:0] for VCOM amplitude */
 919:../src/sam/components/display/ili93xx/ili93xx.c **** 		ili93xx_write_register_word(ILI9325_POWER_CTRL4,
 920:../src/sam/components/display/ili93xx/ili93xx.c **** 				ILI9325_POWER_CTRL4_VDV(0x11));
 921:../src/sam/components/display/ili93xx/ili93xx.c **** 		/** Set VCM[5:0] for VCOMH */
 922:../src/sam/components/display/ili93xx/ili93xx.c **** 		ili93xx_write_register_word(ILI9325_POWER_CTRL7,
 923:../src/sam/components/display/ili93xx/ili93xx.c **** 				ILI9325_POWER_CTRL7_VCM(0x19));
 924:../src/sam/components/display/ili93xx/ili93xx.c **** 		/** Set Frame Rate */
 925:../src/sam/components/display/ili93xx/ili93xx.c **** 		ili93xx_write_register_word(ILI9325_FRAME_RATE_AND_COLOR_CTRL,
 926:../src/sam/components/display/ili93xx/ili93xx.c **** 				ILI9325_FRAME_RATE_AND_COLOR_CTRL_FRS(0x0D));
 927:../src/sam/components/display/ili93xx/ili93xx.c **** 		ili93xx_delay(50);
 928:../src/sam/components/display/ili93xx/ili93xx.c **** 
 929:../src/sam/components/display/ili93xx/ili93xx.c **** 		/** Adjust the Gamma Curve */
 930:../src/sam/components/display/ili93xx/ili93xx.c **** 		ili93xx_write_register_word(ILI9325_GAMMA_CTL1, 0x0000);
 931:../src/sam/components/display/ili93xx/ili93xx.c **** 		ili93xx_write_register_word(ILI9325_GAMMA_CTL2,
 932:../src/sam/components/display/ili93xx/ili93xx.c **** 				ILI9325_GAMMA_CTL2_KP3(0x02) |
 933:../src/sam/components/display/ili93xx/ili93xx.c **** 				ILI9325_GAMMA_CTL2_KP2(0x04));
 934:../src/sam/components/display/ili93xx/ili93xx.c **** 		ili93xx_write_register_word(ILI9325_GAMMA_CTL3,
 935:../src/sam/components/display/ili93xx/ili93xx.c **** 				ILI9325_GAMMA_CTL3_KP5(0x02) |
 936:../src/sam/components/display/ili93xx/ili93xx.c **** 				ILI9325_GAMMA_CTL3_KP4(0x00));
 937:../src/sam/components/display/ili93xx/ili93xx.c **** 		ili93xx_write_register_word(ILI9325_GAMMA_CTL4,
 938:../src/sam/components/display/ili93xx/ili93xx.c **** 				ILI9325_GAMMA_CTL4_RP1(0x00) |
 939:../src/sam/components/display/ili93xx/ili93xx.c **** 				ILI9325_GAMMA_CTL4_RP0(0x07));
 940:../src/sam/components/display/ili93xx/ili93xx.c **** 		ili93xx_write_register_word(ILI9325_GAMMA_CTL5,
 941:../src/sam/components/display/ili93xx/ili93xx.c **** 				ILI9325_GAMMA_CTL5_VRP1(0x14) |
 942:../src/sam/components/display/ili93xx/ili93xx.c **** 				ILI9325_GAMMA_CTL5_VRP0(0x04));
 943:../src/sam/components/display/ili93xx/ili93xx.c **** 		ili93xx_write_register_word(ILI9325_GAMMA_CTL6,
 944:../src/sam/components/display/ili93xx/ili93xx.c **** 				ILI9325_GAMMA_CTL6_KN1(0x07) |
 945:../src/sam/components/display/ili93xx/ili93xx.c **** 				ILI9325_GAMMA_CTL6_KN0(0x05));
 946:../src/sam/components/display/ili93xx/ili93xx.c **** 		ili93xx_write_register_word(ILI9325_GAMMA_CTL7,
 947:../src/sam/components/display/ili93xx/ili93xx.c **** 				ILI9325_GAMMA_CTL7_KN3(0x03) |
 948:../src/sam/components/display/ili93xx/ili93xx.c **** 				ILI9325_GAMMA_CTL7_KN2(0x05));
 949:../src/sam/components/display/ili93xx/ili93xx.c **** 		ili93xx_write_register_word(ILI9325_GAMMA_CTL8,
 950:../src/sam/components/display/ili93xx/ili93xx.c **** 				ILI9325_GAMMA_CTL8_KN5(0x07) |
 951:../src/sam/components/display/ili93xx/ili93xx.c **** 				ILI9325_GAMMA_CTL8_KN4(0x07));
 952:../src/sam/components/display/ili93xx/ili93xx.c **** 		ili93xx_write_register_word(ILI9325_GAMMA_CTL9,
 953:../src/sam/components/display/ili93xx/ili93xx.c **** 				ILI9325_GAMMA_CTL9_RN1(0x07) |
 954:../src/sam/components/display/ili93xx/ili93xx.c **** 				ILI9325_GAMMA_CTL9_RN0(0x01));
 955:../src/sam/components/display/ili93xx/ili93xx.c **** 		ili93xx_write_register_word(ILI9325_GAMMA_CTL10,
 956:../src/sam/components/display/ili93xx/ili93xx.c **** 				ILI9325_GAMMA_CTL10_VRN1(0x00) |
 957:../src/sam/components/display/ili93xx/ili93xx.c **** 				ILI9325_GAMMA_CTL10_VRN0(0x0E));
 958:../src/sam/components/display/ili93xx/ili93xx.c **** 		/**
 959:../src/sam/components/display/ili93xx/ili93xx.c **** 		 * Use the high speed write mode (HWM=1)
 960:../src/sam/components/display/ili93xx/ili93xx.c **** 		 * When TRI = 1, data are transferred to the internal RAM in
 961:../src/sam/components/display/ili93xx/ili93xx.c **** 		 * 8-bit x 3 transfers mode via the 8-bit interface.
 962:../src/sam/components/display/ili93xx/ili93xx.c **** 		 * DFM Set the mode of transferring data to the internal RAM
 963:../src/sam/components/display/ili93xx/ili93xx.c **** 		 * when TRI = 1.
 964:../src/sam/components/display/ili93xx/ili93xx.c **** 		 * I/D[1:0] = 11 Horizontal : increment Vertical : increment,
 965:../src/sam/components/display/ili93xx/ili93xx.c **** 		 * AM=0:Horizontal
 966:../src/sam/components/display/ili93xx/ili93xx.c **** 		 */
 967:../src/sam/components/display/ili93xx/ili93xx.c **** 		ili93xx_write_register_word(ILI9325_ENTRY_MODE,
 968:../src/sam/components/display/ili93xx/ili93xx.c **** 				ILI9325_ENTRY_MODE_TRI | ILI9325_ENTRY_MODE_DFM |
 969:../src/sam/components/display/ili93xx/ili93xx.c **** 				ILI9325_ENTRY_MODE_ID(0x01) | ILI9325_ENTRY_MODE_BGR);
 970:../src/sam/components/display/ili93xx/ili93xx.c **** 		/**
 971:../src/sam/components/display/ili93xx/ili93xx.c **** 		 * Sets the number of lines to drive the LCD at an interval of 8
 972:../src/sam/components/display/ili93xx/ili93xx.c **** 		 * lines. The scan direction is from G320 to G1
 973:../src/sam/components/display/ili93xx/ili93xx.c **** 		 */
 974:../src/sam/components/display/ili93xx/ili93xx.c **** 		ili93xx_write_register_word(ILI9325_DRIVER_OUTPUT_CTRL2,
 975:../src/sam/components/display/ili93xx/ili93xx.c **** 				ILI9325_DRIVER_OUTPUT_CTRL2_GS |
 976:../src/sam/components/display/ili93xx/ili93xx.c **** 				ILI9325_DRIVER_OUTPUT_CTRL2_NL(0x27));
 977:../src/sam/components/display/ili93xx/ili93xx.c **** 
 978:../src/sam/components/display/ili93xx/ili93xx.c **** 		/** Vertical Scrolling */
 979:../src/sam/components/display/ili93xx/ili93xx.c **** 		/** Disable scrolling and enable the grayscale inversion */
 980:../src/sam/components/display/ili93xx/ili93xx.c **** 		ili93xx_write_register_word(ILI9325_BASE_IMG_DISP_CTRL,
 981:../src/sam/components/display/ili93xx/ili93xx.c **** 				ILI9325_BASE_IMG_DISP_CTRL_REV);
 982:../src/sam/components/display/ili93xx/ili93xx.c **** 		ili93xx_write_register_word(ILI9325_VERTICAL_SCROLL_CTRL,
 983:../src/sam/components/display/ili93xx/ili93xx.c **** 				0x0000);
 984:../src/sam/components/display/ili93xx/ili93xx.c **** 
 985:../src/sam/components/display/ili93xx/ili93xx.c **** 		/** Disable Partial Display */
 986:../src/sam/components/display/ili93xx/ili93xx.c **** 		ili93xx_write_register_word(ILI9325_PARTIAL_IMG1_DISP_POS,
 987:../src/sam/components/display/ili93xx/ili93xx.c **** 				0x0000);
 988:../src/sam/components/display/ili93xx/ili93xx.c **** 		ili93xx_write_register_word(
 989:../src/sam/components/display/ili93xx/ili93xx.c **** 				ILI9325_PARTIAL_IMG1_AREA_START_LINE,
 990:../src/sam/components/display/ili93xx/ili93xx.c **** 				0x0000);
 991:../src/sam/components/display/ili93xx/ili93xx.c **** 		ili93xx_write_register_word(ILI9325_PARTIAL_IMG1_AREA_END_LINE,
 992:../src/sam/components/display/ili93xx/ili93xx.c **** 				0x0000);
 993:../src/sam/components/display/ili93xx/ili93xx.c **** 		ili93xx_write_register_word(ILI9325_PARTIAL_IMG2_DISP_POS,
 994:../src/sam/components/display/ili93xx/ili93xx.c **** 				0x0000);
 995:../src/sam/components/display/ili93xx/ili93xx.c **** 		ili93xx_write_register_word(
 996:../src/sam/components/display/ili93xx/ili93xx.c **** 				ILI9325_PARTIAL_IMG2_AREA_START_LINE,
 997:../src/sam/components/display/ili93xx/ili93xx.c **** 				0x0000);
 998:../src/sam/components/display/ili93xx/ili93xx.c **** 		ili93xx_write_register_word(ILI9325_PARTIAL_IMG2_AREA_END_LINE,
 999:../src/sam/components/display/ili93xx/ili93xx.c **** 				0x0000);
1000:../src/sam/components/display/ili93xx/ili93xx.c **** 
1001:../src/sam/components/display/ili93xx/ili93xx.c **** 		/** Panel Control */
1002:../src/sam/components/display/ili93xx/ili93xx.c **** 		ili93xx_write_register_word(ILI9325_PANEL_INTERFACE_CTRL1,
1003:../src/sam/components/display/ili93xx/ili93xx.c **** 				ILI9325_PANEL_INTERFACE_CTRL1_RTNI(0x10));
1004:../src/sam/components/display/ili93xx/ili93xx.c **** 		ili93xx_write_register_word(ILI9325_PANEL_INTERFACE_CTRL2,
1005:../src/sam/components/display/ili93xx/ili93xx.c **** 				ILI9325_PANEL_INTERFACE_CTRL2_NOWI(0x06));
1006:../src/sam/components/display/ili93xx/ili93xx.c **** 		ili93xx_write_register_word(ILI9325_PANEL_INTERFACE_CTRL4,
1007:../src/sam/components/display/ili93xx/ili93xx.c **** 				ILI9325_PANEL_INTERFACE_CTRL4_DIVE(0x01) |
1008:../src/sam/components/display/ili93xx/ili93xx.c **** 				ILI9325_PANEL_INTERFACE_CTRL4_RTNE(0x10));
1009:../src/sam/components/display/ili93xx/ili93xx.c **** 
1010:../src/sam/components/display/ili93xx/ili93xx.c **** 		ili93xx_set_window(0, 0, p_opt->ul_width, p_opt->ul_height);
1011:../src/sam/components/display/ili93xx/ili93xx.c **** 		ili93xx_set_foreground_color(p_opt->foreground_color);
1012:../src/sam/components/display/ili93xx/ili93xx.c **** 		ili93xx_set_cursor_position(0, 0);
1013:../src/sam/components/display/ili93xx/ili93xx.c **** 	} else if (g_uc_device_type == DEVICE_TYPE_ILI9341) {
1014:../src/sam/components/display/ili93xx/ili93xx.c **** 		/** init for ILI9341 **/
1015:../src/sam/components/display/ili93xx/ili93xx.c **** 		/** power control A configuration*/
1016:../src/sam/components/display/ili93xx/ili93xx.c **** 		paratable[0] = 0x39;
1017:../src/sam/components/display/ili93xx/ili93xx.c **** 		paratable[1] = 0x2C;
1018:../src/sam/components/display/ili93xx/ili93xx.c **** 		paratable[2] = 0x00;
1019:../src/sam/components/display/ili93xx/ili93xx.c **** 		paratable[3] = 0x34;
1020:../src/sam/components/display/ili93xx/ili93xx.c **** 		paratable[4] = 0x02;
1021:../src/sam/components/display/ili93xx/ili93xx.c **** 		ili93xx_write_register(ILI9341_CMD_POWER_CONTROL_A, paratable, 5);
1022:../src/sam/components/display/ili93xx/ili93xx.c **** 
1023:../src/sam/components/display/ili93xx/ili93xx.c **** 		/** power control B configuration */
1024:../src/sam/components/display/ili93xx/ili93xx.c **** 		paratable[0] = 0;
1025:../src/sam/components/display/ili93xx/ili93xx.c **** 		paratable[1] = 0xAA;
1026:../src/sam/components/display/ili93xx/ili93xx.c **** 		paratable[2] = 0xB0;
1027:../src/sam/components/display/ili93xx/ili93xx.c **** 		ili93xx_write_register(ILI9341_CMD_POWER_CONTROL_B, paratable, 3);
1028:../src/sam/components/display/ili93xx/ili93xx.c **** 
1029:../src/sam/components/display/ili93xx/ili93xx.c **** 		/** Pump Ratio Control configuration */
1030:../src/sam/components/display/ili93xx/ili93xx.c **** 		paratable[0] = 0x30;
1031:../src/sam/components/display/ili93xx/ili93xx.c **** 		ili93xx_write_register(ILI9341_CMD_PUMP_RATIO_CONTROL,
1032:../src/sam/components/display/ili93xx/ili93xx.c **** 				paratable, 1);
1033:../src/sam/components/display/ili93xx/ili93xx.c **** 
1034:../src/sam/components/display/ili93xx/ili93xx.c **** 		/** Power Control 1 configuration*/
1035:../src/sam/components/display/ili93xx/ili93xx.c **** 		paratable[0] = 0x25;
1036:../src/sam/components/display/ili93xx/ili93xx.c **** 		ili93xx_write_register(ILI9341_CMD_POWER_CONTROL_1, paratable, 1);
1037:../src/sam/components/display/ili93xx/ili93xx.c **** 
1038:../src/sam/components/display/ili93xx/ili93xx.c **** 		/** Power Control 2 configuration*/
1039:../src/sam/components/display/ili93xx/ili93xx.c **** 		paratable[0] = 0x11;
1040:../src/sam/components/display/ili93xx/ili93xx.c **** 		ili93xx_write_register(ILI9341_CMD_POWER_CONTROL_2, paratable, 1);
1041:../src/sam/components/display/ili93xx/ili93xx.c **** 
1042:../src/sam/components/display/ili93xx/ili93xx.c **** 		/** VOM Control 1 configuration*/
1043:../src/sam/components/display/ili93xx/ili93xx.c **** 		paratable[0] = 0x5C;
1044:../src/sam/components/display/ili93xx/ili93xx.c **** 		paratable[1] = 0x4C;
1045:../src/sam/components/display/ili93xx/ili93xx.c **** 		ili93xx_write_register(ILI9341_CMD_VCOM_CONTROL_1, paratable, 2);
1046:../src/sam/components/display/ili93xx/ili93xx.c **** 
1047:../src/sam/components/display/ili93xx/ili93xx.c **** 		/** VOM control 2 configuration*/
1048:../src/sam/components/display/ili93xx/ili93xx.c **** 		paratable[0] = 0x94;
1049:../src/sam/components/display/ili93xx/ili93xx.c **** 		ili93xx_write_register(ILI9341_CMD_VCOM_CONTROL_2, paratable, 1);
1050:../src/sam/components/display/ili93xx/ili93xx.c **** 
1051:../src/sam/components/display/ili93xx/ili93xx.c **** 		/** Driver Timing Control A configuration*/
1052:../src/sam/components/display/ili93xx/ili93xx.c **** 		paratable[0] = 0x85;
1053:../src/sam/components/display/ili93xx/ili93xx.c **** 		paratable[1] = 0x01;
1054:../src/sam/components/display/ili93xx/ili93xx.c **** 		paratable[2] = 0x78;
1055:../src/sam/components/display/ili93xx/ili93xx.c **** 		ili93xx_write_register(ILI9341_CMD_DRIVER_TIMING_CTL_A, paratable, 3);
1056:../src/sam/components/display/ili93xx/ili93xx.c **** 
1057:../src/sam/components/display/ili93xx/ili93xx.c **** 		/** Driver Timing Control B configuration*/
1058:../src/sam/components/display/ili93xx/ili93xx.c **** 		paratable[0] = 0x00;
1059:../src/sam/components/display/ili93xx/ili93xx.c **** 		paratable[1] = 0x00;
1060:../src/sam/components/display/ili93xx/ili93xx.c **** 		ili93xx_write_register(ILI9341_CMD_DRIVER_TIMING_CTL_B, paratable, 2);
1061:../src/sam/components/display/ili93xx/ili93xx.c **** 
1062:../src/sam/components/display/ili93xx/ili93xx.c **** 		/** Memory Access Control configuration*/
1063:../src/sam/components/display/ili93xx/ili93xx.c **** 		paratable[0] = ILI9341_CMD_MEMORY_ACCESS_CONTROL_MX |
1064:../src/sam/components/display/ili93xx/ili93xx.c **** 				ILI9341_CMD_MEMORY_ACCESS_CONTROL_BGR;
1065:../src/sam/components/display/ili93xx/ili93xx.c **** 		ili93xx_write_register(ILI9341_CMD_MEMORY_ACCESS_CONTROL,
1066:../src/sam/components/display/ili93xx/ili93xx.c **** 				paratable, 1);
1067:../src/sam/components/display/ili93xx/ili93xx.c **** 
1068:../src/sam/components/display/ili93xx/ili93xx.c **** 		/** Colmod Pixel Format Set configuation*/
1069:../src/sam/components/display/ili93xx/ili93xx.c **** 		paratable[0] = 0x06;
1070:../src/sam/components/display/ili93xx/ili93xx.c **** 		ili93xx_write_register(ILI9341_CMD_PIXEL_FORMAT_SET, paratable, 1);
1071:../src/sam/components/display/ili93xx/ili93xx.c **** 
1072:../src/sam/components/display/ili93xx/ili93xx.c **** 		/** Display Function Control */
1073:../src/sam/components/display/ili93xx/ili93xx.c **** 		paratable[0] = 0x02;
1074:../src/sam/components/display/ili93xx/ili93xx.c **** 		paratable[1] = 0x82;
1075:../src/sam/components/display/ili93xx/ili93xx.c **** 		paratable[2] = 0x27;
1076:../src/sam/components/display/ili93xx/ili93xx.c **** 		paratable[3] = 0x00;
1077:../src/sam/components/display/ili93xx/ili93xx.c **** 		ili93xx_write_register(ILI9341_CMD_DISPLAY_FUNCTION_CTL, paratable, 4);
1078:../src/sam/components/display/ili93xx/ili93xx.c **** 		
1079:../src/sam/components/display/ili93xx/ili93xx.c **** 		/** set window area*/
1080:../src/sam/components/display/ili93xx/ili93xx.c **** 		ili93xx_set_window(0, 0, p_opt->ul_width, p_opt->ul_height);
1081:../src/sam/components/display/ili93xx/ili93xx.c **** 		ili93xx_set_foreground_color(p_opt->foreground_color);
1082:../src/sam/components/display/ili93xx/ili93xx.c **** 		/** Leave sleep mode*/
1083:../src/sam/components/display/ili93xx/ili93xx.c **** 		ili93xx_write_register(ILI9341_CMD_SLEEP_OUT, paratable, 0);
1084:../src/sam/components/display/ili93xx/ili93xx.c **** 		ili93xx_delay(10);
1085:../src/sam/components/display/ili93xx/ili93xx.c **** 		/** Display on*/
1086:../src/sam/components/display/ili93xx/ili93xx.c **** 		ili93xx_write_register(ILI9341_CMD_DISPLAY_ON, paratable, 0);
1087:../src/sam/components/display/ili93xx/ili93xx.c **** 	} else {
1088:../src/sam/components/display/ili93xx/ili93xx.c **** 		/** exit with return value 1 if device type is not supported.*/
1089:../src/sam/components/display/ili93xx/ili93xx.c **** 		return 1;
1090:../src/sam/components/display/ili93xx/ili93xx.c **** 	}
1091:../src/sam/components/display/ili93xx/ili93xx.c **** 
1092:../src/sam/components/display/ili93xx/ili93xx.c **** 	return 0;
1093:../src/sam/components/display/ili93xx/ili93xx.c **** }
1094:../src/sam/components/display/ili93xx/ili93xx.c **** 
1095:../src/sam/components/display/ili93xx/ili93xx.c **** /**
1096:../src/sam/components/display/ili93xx/ili93xx.c ****  * \brief get the device type.
1097:../src/sam/components/display/ili93xx/ili93xx.c ****  */
1098:../src/sam/components/display/ili93xx/ili93xx.c **** uint8_t ili93xx_device_type(void)
1099:../src/sam/components/display/ili93xx/ili93xx.c **** {
 920              		.loc 1 1099 0
 921              		.cfi_startproc
 922              		@ args = 0, pretend = 0, frame = 0
 923              		@ frame_needed = 0, uses_anonymous_args = 0
 924              		@ link register save eliminated.
1100:../src/sam/components/display/ili93xx/ili93xx.c **** 	return g_uc_device_type;
1101:../src/sam/components/display/ili93xx/ili93xx.c **** }
 925              		.loc 1 1101 0
 926 0000 014B     		ldr	r3, .L74
 927 0002 1878     		ldrb	r0, [r3]	@ zero_extendqisi2
 928 0004 7047     		bx	lr
 929              	.L75:
 930 0006 00BF     		.align	2
 931              	.L74:
 932 0008 00000000 		.word	.LANCHOR2
 933              		.cfi_endproc
 934              	.LFE192:
 936              		.section	.text.ili93xx_display_on,"ax",%progbits
 937              		.align	2
 938              		.global	ili93xx_display_on
 939              		.thumb
 940              		.thumb_func
 942              	ili93xx_display_on:
 943              	.LFB193:
1102:../src/sam/components/display/ili93xx/ili93xx.c **** 
1103:../src/sam/components/display/ili93xx/ili93xx.c **** /**
1104:../src/sam/components/display/ili93xx/ili93xx.c ****  * \brief Turn on the LCD.
1105:../src/sam/components/display/ili93xx/ili93xx.c ****  */
1106:../src/sam/components/display/ili93xx/ili93xx.c **** void ili93xx_display_on(void)
1107:../src/sam/components/display/ili93xx/ili93xx.c **** {
 944              		.loc 1 1107 0
 945              		.cfi_startproc
 946              		@ args = 0, pretend = 0, frame = 0
 947              		@ frame_needed = 0, uses_anonymous_args = 0
 948 0000 08B5     		push	{r3, lr}
 949              		.cfi_def_cfa_offset 8
 950              		.cfi_offset 3, -8
 951              		.cfi_offset 14, -4
1108:../src/sam/components/display/ili93xx/ili93xx.c **** 	if (g_uc_device_type == DEVICE_TYPE_ILI9325) {
 952              		.loc 1 1108 0
 953 0002 084B     		ldr	r3, .L80
 954 0004 1B78     		ldrb	r3, [r3]	@ zero_extendqisi2
 955 0006 012B     		cmp	r3, #1
 956 0008 05D1     		bne	.L77
1109:../src/sam/components/display/ili93xx/ili93xx.c **** 		ili93xx_write_register_word(ILI9325_DISP_CTRL1,
 957              		.loc 1 1109 0
 958 000a 40F23311 		movw	r1, #307
 959 000e 0720     		movs	r0, #7
 960 0010 FFF7FEFF 		bl	ili93xx_write_register_word
 961              	.LVL97:
 962 0014 08BD     		pop	{r3, pc}
 963              	.L77:
1110:../src/sam/components/display/ili93xx/ili93xx.c **** 				ILI9325_DISP_CTRL1_BASEE |
1111:../src/sam/components/display/ili93xx/ili93xx.c **** 				ILI9325_DISP_CTRL1_GON |
1112:../src/sam/components/display/ili93xx/ili93xx.c **** 				ILI9325_DISP_CTRL1_DTE |
1113:../src/sam/components/display/ili93xx/ili93xx.c **** 				ILI9325_DISP_CTRL1_D(0x03));
1114:../src/sam/components/display/ili93xx/ili93xx.c **** 	} else if (g_uc_device_type == DEVICE_TYPE_ILI9341) {
 964              		.loc 1 1114 0
 965 0016 022B     		cmp	r3, #2
 966 0018 02D1     		bne	.L76
1115:../src/sam/components/display/ili93xx/ili93xx.c **** 	    ili9341_write_cmd(ILI9341_CMD_DISPLAY_ON);
 967              		.loc 1 1115 0
 968 001a 2920     		movs	r0, #41
 969 001c FFF7FEFF 		bl	ili9341_write_cmd
 970              	.LVL98:
 971              	.L76:
 972 0020 08BD     		pop	{r3, pc}
 973              	.L81:
 974 0022 00BF     		.align	2
 975              	.L80:
 976 0024 00000000 		.word	.LANCHOR2
 977              		.cfi_endproc
 978              	.LFE193:
 980              		.section	.text.ili93xx_display_off,"ax",%progbits
 981              		.align	2
 982              		.global	ili93xx_display_off
 983              		.thumb
 984              		.thumb_func
 986              	ili93xx_display_off:
 987              	.LFB194:
1116:../src/sam/components/display/ili93xx/ili93xx.c **** 	}
1117:../src/sam/components/display/ili93xx/ili93xx.c **** }
1118:../src/sam/components/display/ili93xx/ili93xx.c **** 
1119:../src/sam/components/display/ili93xx/ili93xx.c **** /**
1120:../src/sam/components/display/ili93xx/ili93xx.c ****  * \brief Turn off the LCD.
1121:../src/sam/components/display/ili93xx/ili93xx.c ****  */
1122:../src/sam/components/display/ili93xx/ili93xx.c **** void ili93xx_display_off(void)
1123:../src/sam/components/display/ili93xx/ili93xx.c **** {
 988              		.loc 1 1123 0
 989              		.cfi_startproc
 990              		@ args = 0, pretend = 0, frame = 0
 991              		@ frame_needed = 0, uses_anonymous_args = 0
 992 0000 08B5     		push	{r3, lr}
 993              		.cfi_def_cfa_offset 8
 994              		.cfi_offset 3, -8
 995              		.cfi_offset 14, -4
1124:../src/sam/components/display/ili93xx/ili93xx.c ****   if (g_uc_device_type == DEVICE_TYPE_ILI9325) {
 996              		.loc 1 1124 0
 997 0002 074B     		ldr	r3, .L86
 998 0004 1B78     		ldrb	r3, [r3]	@ zero_extendqisi2
 999 0006 012B     		cmp	r3, #1
 1000 0008 04D1     		bne	.L83
1125:../src/sam/components/display/ili93xx/ili93xx.c ****       ili93xx_write_register_word(ILI9325_DISP_CTRL1, 0x00);
 1001              		.loc 1 1125 0
 1002 000a 0021     		movs	r1, #0
 1003 000c 0720     		movs	r0, #7
 1004 000e FFF7FEFF 		bl	ili93xx_write_register_word
 1005              	.LVL99:
 1006 0012 08BD     		pop	{r3, pc}
 1007              	.L83:
1126:../src/sam/components/display/ili93xx/ili93xx.c ****   } else if (g_uc_device_type == DEVICE_TYPE_ILI9341) {
 1008              		.loc 1 1126 0
 1009 0014 022B     		cmp	r3, #2
 1010 0016 02D1     		bne	.L82
1127:../src/sam/components/display/ili93xx/ili93xx.c ****       ili9341_write_cmd(ILI9341_CMD_DISPLAY_OFF);
 1011              		.loc 1 1127 0
 1012 0018 2820     		movs	r0, #40
 1013 001a FFF7FEFF 		bl	ili9341_write_cmd
 1014              	.LVL100:
 1015              	.L82:
 1016 001e 08BD     		pop	{r3, pc}
 1017              	.L87:
 1018              		.align	2
 1019              	.L86:
 1020 0020 00000000 		.word	.LANCHOR2
 1021              		.cfi_endproc
 1022              	.LFE194:
 1024              		.section	.text.ili93xx_set_foreground_color,"ax",%progbits
 1025              		.align	2
 1026              		.global	ili93xx_set_foreground_color
 1027              		.thumb
 1028              		.thumb_func
 1030              	ili93xx_set_foreground_color:
 1031              	.LFB195:
1128:../src/sam/components/display/ili93xx/ili93xx.c **** //      ili93xx_write_register(ILI9341_CMD_DISPLAY_OFF, NULL, 0);
1129:../src/sam/components/display/ili93xx/ili93xx.c ****   }
1130:../src/sam/components/display/ili93xx/ili93xx.c **** }
1131:../src/sam/components/display/ili93xx/ili93xx.c **** 
1132:../src/sam/components/display/ili93xx/ili93xx.c **** 
1133:../src/sam/components/display/ili93xx/ili93xx.c **** /**
1134:../src/sam/components/display/ili93xx/ili93xx.c ****  * \brief Set foreground color.
1135:../src/sam/components/display/ili93xx/ili93xx.c ****  *
1136:../src/sam/components/display/ili93xx/ili93xx.c ****  * \param ul_color foreground color.
1137:../src/sam/components/display/ili93xx/ili93xx.c ****  */
1138:../src/sam/components/display/ili93xx/ili93xx.c **** void ili93xx_set_foreground_color(ili93xx_color_t ul_color)
1139:../src/sam/components/display/ili93xx/ili93xx.c **** {
 1032              		.loc 1 1139 0
 1033              		.cfi_startproc
 1034              		@ args = 0, pretend = 0, frame = 0
 1035              		@ frame_needed = 0, uses_anonymous_args = 0
 1036              		@ link register save eliminated.
 1037              	.LVL101:
1140:../src/sam/components/display/ili93xx/ili93xx.c ****   uint32_t i;
1141:../src/sam/components/display/ili93xx/ili93xx.c **** 
1142:../src/sam/components/display/ili93xx/ili93xx.c ****   /** Fill the cache with selected color */
1143:../src/sam/components/display/ili93xx/ili93xx.c ****   for (i = 0; i < LCD_DATA_CACHE_SIZE; ++i) {
 1038              		.loc 1 1143 0
 1039 0000 0023     		movs	r3, #0
 1040 0002 03E0     		b	.L89
 1041              	.LVL102:
 1042              	.L90:
1144:../src/sam/components/display/ili93xx/ili93xx.c ****       g_ul_pixel_cache[i] = ul_color;
 1043              		.loc 1 1144 0 discriminator 3
 1044 0004 034A     		ldr	r2, .L91
 1045 0006 22F81300 		strh	r0, [r2, r3, lsl #1]	@ movhi
1143:../src/sam/components/display/ili93xx/ili93xx.c ****       g_ul_pixel_cache[i] = ul_color;
 1046              		.loc 1 1143 0 discriminator 3
 1047 000a 0133     		adds	r3, r3, #1
 1048              	.LVL103:
 1049              	.L89:
1143:../src/sam/components/display/ili93xx/ili93xx.c ****       g_ul_pixel_cache[i] = ul_color;
 1050              		.loc 1 1143 0 is_stmt 0 discriminator 1
 1051 000c EF2B     		cmp	r3, #239
 1052 000e F9D9     		bls	.L90
1145:../src/sam/components/display/ili93xx/ili93xx.c ****   }
1146:../src/sam/components/display/ili93xx/ili93xx.c **** }
 1053              		.loc 1 1146 0 is_stmt 1
 1054 0010 7047     		bx	lr
 1055              	.L92:
 1056 0012 00BF     		.align	2
 1057              	.L91:
 1058 0014 00000000 		.word	.LANCHOR3
 1059              		.cfi_endproc
 1060              	.LFE195:
 1062              		.section	.text.ili93xx_set_window,"ax",%progbits
 1063              		.align	2
 1064              		.global	ili93xx_set_window
 1065              		.thumb
 1066              		.thumb_func
 1068              	ili93xx_set_window:
 1069              	.LFB197:
1147:../src/sam/components/display/ili93xx/ili93xx.c **** 
1148:../src/sam/components/display/ili93xx/ili93xx.c **** /**
1149:../src/sam/components/display/ili93xx/ili93xx.c ****  * \brief Fill the LCD buffer with the specified color.
1150:../src/sam/components/display/ili93xx/ili93xx.c ****  *
1151:../src/sam/components/display/ili93xx/ili93xx.c ****  * \param ul_color fill color.
1152:../src/sam/components/display/ili93xx/ili93xx.c ****  */
1153:../src/sam/components/display/ili93xx/ili93xx.c **** void ili93xx_fill(ili93xx_color_t ul_color)
1154:../src/sam/components/display/ili93xx/ili93xx.c **** {
1155:../src/sam/components/display/ili93xx/ili93xx.c **** 	uint32_t dw;
1156:../src/sam/components/display/ili93xx/ili93xx.c **** 	if (g_uc_device_type == DEVICE_TYPE_ILI9325) {
1157:../src/sam/components/display/ili93xx/ili93xx.c **** 		ili93xx_set_cursor_position(0, 0);
1158:../src/sam/components/display/ili93xx/ili93xx.c **** 	} else if (g_uc_device_type == DEVICE_TYPE_ILI9341) {
1159:../src/sam/components/display/ili93xx/ili93xx.c **** 		ili93xx_set_window(0, 0, g_ul_lcd_x_length, g_ul_lcd_y_length);
1160:../src/sam/components/display/ili93xx/ili93xx.c **** 	}
1161:../src/sam/components/display/ili93xx/ili93xx.c **** 
1162:../src/sam/components/display/ili93xx/ili93xx.c **** 	ili93xx_write_ram_prepare();
1163:../src/sam/components/display/ili93xx/ili93xx.c **** 
1164:../src/sam/components/display/ili93xx/ili93xx.c **** 	for (dw = ILI93XX_LCD_WIDTH * ILI93XX_LCD_HEIGHT; dw > 0; dw--) {
1165:../src/sam/components/display/ili93xx/ili93xx.c **** 		ili93xx_write_ram(ul_color);
1166:../src/sam/components/display/ili93xx/ili93xx.c **** 	}
1167:../src/sam/components/display/ili93xx/ili93xx.c **** }
1168:../src/sam/components/display/ili93xx/ili93xx.c **** 
1169:../src/sam/components/display/ili93xx/ili93xx.c **** /**
1170:../src/sam/components/display/ili93xx/ili93xx.c ****  * \brief Set display window.
1171:../src/sam/components/display/ili93xx/ili93xx.c ****  *
1172:../src/sam/components/display/ili93xx/ili93xx.c ****  * \param ul_x Horizontal address start position
1173:../src/sam/components/display/ili93xx/ili93xx.c ****  * \param ul_y Vertical address start position
1174:../src/sam/components/display/ili93xx/ili93xx.c ****  * \param ul_width The width of the window.
1175:../src/sam/components/display/ili93xx/ili93xx.c ****  * \param ul_height The height of the window.
1176:../src/sam/components/display/ili93xx/ili93xx.c ****  */
1177:../src/sam/components/display/ili93xx/ili93xx.c **** void ili93xx_set_window(uint32_t ul_x, uint32_t ul_y, uint32_t ul_width,
1178:../src/sam/components/display/ili93xx/ili93xx.c **** 		uint32_t ul_height)
1179:../src/sam/components/display/ili93xx/ili93xx.c **** {
 1070              		.loc 1 1179 0
 1071              		.cfi_startproc
 1072              		@ args = 0, pretend = 0, frame = 8
 1073              		@ frame_needed = 0, uses_anonymous_args = 0
 1074              	.LVL104:
 1075 0000 F0B5     		push	{r4, r5, r6, r7, lr}
 1076              		.cfi_def_cfa_offset 20
 1077              		.cfi_offset 4, -20
 1078              		.cfi_offset 5, -16
 1079              		.cfi_offset 6, -12
 1080              		.cfi_offset 7, -8
 1081              		.cfi_offset 14, -4
 1082 0002 83B0     		sub	sp, sp, #12
 1083              		.cfi_def_cfa_offset 32
 1084 0004 0C46     		mov	r4, r1
 1085 0006 1746     		mov	r7, r2
 1086 0008 1E46     		mov	r6, r3
1180:../src/sam/components/display/ili93xx/ili93xx.c **** 	Assert(ul_x <= (g_ul_lcd_x_length - 1));
1181:../src/sam/components/display/ili93xx/ili93xx.c **** 	Assert(ul_y <= (g_ul_lcd_y_length - 1));
1182:../src/sam/components/display/ili93xx/ili93xx.c **** 	Assert(ul_width <= (g_ul_lcd_x_length - ul_x));
1183:../src/sam/components/display/ili93xx/ili93xx.c **** 	Assert(ul_height <= (g_ul_lcd_y_length - ul_y));
1184:../src/sam/components/display/ili93xx/ili93xx.c **** 	if (g_uc_device_type == DEVICE_TYPE_ILI9325) {
 1087              		.loc 1 1184 0
 1088 000a 244B     		ldr	r3, .L97
 1089              	.LVL105:
 1090 000c 1B78     		ldrb	r3, [r3]	@ zero_extendqisi2
 1091 000e 012B     		cmp	r3, #1
 1092 0010 16D1     		bne	.L94
1185:../src/sam/components/display/ili93xx/ili93xx.c **** 		/** Set Horizontal Address Start Position */
1186:../src/sam/components/display/ili93xx/ili93xx.c **** 		ili93xx_write_register_word(ILI9325_HORIZONTAL_ADDR_START,
 1093              		.loc 1 1186 0
 1094 0012 85B2     		uxth	r5, r0
 1095 0014 2946     		mov	r1, r5
 1096              	.LVL106:
 1097 0016 5020     		movs	r0, #80
 1098              	.LVL107:
 1099 0018 FFF7FEFF 		bl	ili93xx_write_register_word
 1100              	.LVL108:
1187:../src/sam/components/display/ili93xx/ili93xx.c **** 				(uint16_t)ul_x);
1188:../src/sam/components/display/ili93xx/ili93xx.c **** 
1189:../src/sam/components/display/ili93xx/ili93xx.c **** 		/** Set Horizontal Address End Position */
1190:../src/sam/components/display/ili93xx/ili93xx.c **** 		ili93xx_write_register_word(ILI9325_HORIZONTAL_ADDR_END,
 1101              		.loc 1 1190 0
 1102 001c E819     		adds	r0, r5, r7
 1103 001e 411E     		subs	r1, r0, #1
 1104 0020 89B2     		uxth	r1, r1
 1105 0022 5120     		movs	r0, #81
 1106 0024 FFF7FEFF 		bl	ili93xx_write_register_word
 1107              	.LVL109:
1191:../src/sam/components/display/ili93xx/ili93xx.c **** 				(uint16_t)(ul_x + ul_width - 1));
1192:../src/sam/components/display/ili93xx/ili93xx.c **** 
1193:../src/sam/components/display/ili93xx/ili93xx.c **** 		/** Set Vertical Address Start Position */
1194:../src/sam/components/display/ili93xx/ili93xx.c **** 		ili93xx_write_register_word(ILI9325_VERTICAL_ADDR_START,
 1108              		.loc 1 1194 0
 1109 0028 A4B2     		uxth	r4, r4
 1110              	.LVL110:
 1111 002a 2146     		mov	r1, r4
 1112 002c 5220     		movs	r0, #82
 1113 002e FFF7FEFF 		bl	ili93xx_write_register_word
 1114              	.LVL111:
1195:../src/sam/components/display/ili93xx/ili93xx.c **** 				(uint16_t)ul_y);
1196:../src/sam/components/display/ili93xx/ili93xx.c **** 
1197:../src/sam/components/display/ili93xx/ili93xx.c **** 		/** Set Vertical Address End Position */
1198:../src/sam/components/display/ili93xx/ili93xx.c **** 		ili93xx_write_register_word(ILI9325_VERTICAL_ADDR_END,
 1115              		.loc 1 1198 0
 1116 0032 3444     		add	r4, r4, r6
 1117 0034 611E     		subs	r1, r4, #1
 1118 0036 89B2     		uxth	r1, r1
 1119 0038 5320     		movs	r0, #83
 1120 003a FFF7FEFF 		bl	ili93xx_write_register_word
 1121              	.LVL112:
 1122 003e 2BE0     		b	.L93
 1123              	.LVL113:
 1124              	.L94:
1199:../src/sam/components/display/ili93xx/ili93xx.c **** 				(uint16_t)(ul_y + ul_height - 1));
1200:../src/sam/components/display/ili93xx/ili93xx.c **** 	} else if (g_uc_device_type == DEVICE_TYPE_ILI9341) {
 1125              		.loc 1 1200 0
 1126 0040 022B     		cmp	r3, #2
 1127 0042 29D1     		bne	.L93
 1128              	.LBB28:
1201:../src/sam/components/display/ili93xx/ili93xx.c **** 		uint8_t paratable[4];
1202:../src/sam/components/display/ili93xx/ili93xx.c **** 
1203:../src/sam/components/display/ili93xx/ili93xx.c **** 		/** Set Column Address Position */
1204:../src/sam/components/display/ili93xx/ili93xx.c **** 		paratable[0] = (ul_x >> 8) & 0xFF;
 1129              		.loc 1 1204 0
 1130 0044 030A     		lsrs	r3, r0, #8
 1131 0046 8DF80430 		strb	r3, [sp, #4]
1205:../src/sam/components/display/ili93xx/ili93xx.c **** 		paratable[1] = ul_x & 0xFF;
 1132              		.loc 1 1205 0
 1133 004a C1B2     		uxtb	r1, r0
 1134              	.LVL114:
 1135 004c 8DF80510 		strb	r1, [sp, #5]
1206:../src/sam/components/display/ili93xx/ili93xx.c **** 		paratable[2] = ((ul_x + ul_width - 1) >> 8) & 0xFF;
 1136              		.loc 1 1206 0
 1137 0050 1044     		add	r0, r0, r2
 1138              	.LVL115:
 1139 0052 0138     		subs	r0, r0, #1
 1140 0054 000A     		lsrs	r0, r0, #8
 1141 0056 8DF80600 		strb	r0, [sp, #6]
1207:../src/sam/components/display/ili93xx/ili93xx.c **** 		paratable[3] = (ul_x + ul_width - 1) & 0xFF;
 1142              		.loc 1 1207 0
 1143 005a 8818     		adds	r0, r1, r2
 1144 005c 0138     		subs	r0, r0, #1
 1145 005e 8DF80700 		strb	r0, [sp, #7]
1208:../src/sam/components/display/ili93xx/ili93xx.c **** 		ili93xx_write_register_datas(ILI9341_CMD_COLUMN_ADDRESS_SET,
 1146              		.loc 1 1208 0
 1147 0062 0422     		movs	r2, #4
 1148              	.LVL116:
 1149 0064 0DEB0201 		add	r1, sp, r2
 1150 0068 2A20     		movs	r0, #42
 1151 006a FFF7FEFF 		bl	ili93xx_write_register_datas
 1152              	.LVL117:
1209:../src/sam/components/display/ili93xx/ili93xx.c **** 				paratable, 4);
1210:../src/sam/components/display/ili93xx/ili93xx.c **** 
1211:../src/sam/components/display/ili93xx/ili93xx.c **** 		/** Set Page Address Position */
1212:../src/sam/components/display/ili93xx/ili93xx.c **** 		paratable[0] = (ul_y >> 8) & 0xFF;
 1153              		.loc 1 1212 0
 1154 006e 230A     		lsrs	r3, r4, #8
 1155 0070 8DF80430 		strb	r3, [sp, #4]
1213:../src/sam/components/display/ili93xx/ili93xx.c **** 		paratable[1] = ul_y & 0xFF;
 1156              		.loc 1 1213 0
 1157 0074 E3B2     		uxtb	r3, r4
 1158 0076 8DF80530 		strb	r3, [sp, #5]
1214:../src/sam/components/display/ili93xx/ili93xx.c **** 		paratable[2] = ((ul_y + ul_height - 1) >> 8) & 0xFF;
 1159              		.loc 1 1214 0
 1160 007a 3444     		add	r4, r4, r6
 1161              	.LVL118:
 1162 007c 013C     		subs	r4, r4, #1
 1163 007e 240A     		lsrs	r4, r4, #8
 1164 0080 8DF80640 		strb	r4, [sp, #6]
1215:../src/sam/components/display/ili93xx/ili93xx.c **** 		paratable[3] = (ul_y + ul_height - 1) & 0xFF;
 1165              		.loc 1 1215 0
 1166 0084 1E44     		add	r6, r6, r3
 1167              	.LVL119:
 1168 0086 013E     		subs	r6, r6, #1
 1169 0088 8DF80760 		strb	r6, [sp, #7]
1216:../src/sam/components/display/ili93xx/ili93xx.c **** 		ili93xx_write_register_datas(ILI9341_CMD_PAGE_ADDRESS_SET,
 1170              		.loc 1 1216 0
 1171 008c 0422     		movs	r2, #4
 1172 008e 0DEB0201 		add	r1, sp, r2
 1173 0092 2B20     		movs	r0, #43
 1174 0094 FFF7FEFF 		bl	ili93xx_write_register_datas
 1175              	.LVL120:
 1176              	.L93:
 1177              	.LBE28:
1217:../src/sam/components/display/ili93xx/ili93xx.c **** 				       paratable, 4);
1218:../src/sam/components/display/ili93xx/ili93xx.c **** 	}
1219:../src/sam/components/display/ili93xx/ili93xx.c **** }
 1178              		.loc 1 1219 0
 1179 0098 03B0     		add	sp, sp, #12
 1180              		.cfi_def_cfa_offset 20
 1181              		@ sp needed
 1182 009a F0BD     		pop	{r4, r5, r6, r7, pc}
 1183              	.LVL121:
 1184              	.L98:
 1185              		.align	2
 1186              	.L97:
 1187 009c 00000000 		.word	.LANCHOR2
 1188              		.cfi_endproc
 1189              	.LFE197:
 1191              		.section	.text.ili93xx_init_w_spi,"ax",%progbits
 1192              		.align	2
 1193              		.global	ili93xx_init_w_spi
 1194              		.thumb
 1195              		.thumb_func
 1197              	ili93xx_init_w_spi:
 1198              	.LFB190:
 685:../src/sam/components/display/ili93xx/ili93xx.c ****   uint8_t paratable[6];
 1199              		.loc 1 685 0
 1200              		.cfi_startproc
 1201              		@ args = 0, pretend = 0, frame = 16
 1202              		@ frame_needed = 0, uses_anonymous_args = 0
 1203              	.LVL122:
 1204 0000 2DE9F043 		push	{r4, r5, r6, r7, r8, r9, lr}
 1205              		.cfi_def_cfa_offset 28
 1206              		.cfi_offset 4, -28
 1207              		.cfi_offset 5, -24
 1208              		.cfi_offset 6, -20
 1209              		.cfi_offset 7, -16
 1210              		.cfi_offset 8, -12
 1211              		.cfi_offset 9, -8
 1212              		.cfi_offset 14, -4
 1213 0004 87B0     		sub	sp, sp, #28
 1214              		.cfi_def_cfa_offset 56
 1215 0006 8146     		mov	r9, r0
 689:../src/sam/components/display/ili93xx/ili93xx.c **** 	// Board specific chip select configuration
 1216              		.loc 1 689 0
 1217 0008 0024     		movs	r4, #0
 1218 000a 0DF11808 		add	r8, sp, #24
 1219 000e 48F80C4D 		str	r4, [r8, #-12]!
 694:../src/sam/components/display/ili93xx/ili93xx.c **** 
 1220              		.loc 1 694 0
 1221 0012 0226     		movs	r6, #2
 1222 0014 6A4B     		ldr	r3, .L101
 1223 0016 1E70     		strb	r6, [r3]
 697:../src/sam/components/display/ili93xx/ili93xx.c ****     ili93xx_delay(2); /* wait for at least 2ms */
 1224              		.loc 1 697 0
 1225 0018 2046     		mov	r0, r4
 1226              	.LVL123:
 1227 001a FFF7FEFF 		bl	pio_set_pin_high
 1228              	.LVL124:
 698:../src/sam/components/display/ili93xx/ili93xx.c **** 
 1229              		.loc 1 698 0
 1230 001e 3046     		mov	r0, r6
 1231 0020 FFF7FEFF 		bl	ili93xx_delay
 1232              	.LVL125:
 700:../src/sam/components/display/ili93xx/ili93xx.c ****     ili93xx_delay(20); /* wait for at least 20ms */
 1233              		.loc 1 700 0
 1234 0024 2046     		mov	r0, r4
 1235 0026 FFF7FEFF 		bl	pio_set_pin_low
 1236              	.LVL126:
 701:../src/sam/components/display/ili93xx/ili93xx.c **** 
 1237              		.loc 1 701 0
 1238 002a 1420     		movs	r0, #20
 1239 002c FFF7FEFF 		bl	ili93xx_delay
 1240              	.LVL127:
 703:../src/sam/components/display/ili93xx/ili93xx.c ****     ili93xx_delay(50); /* wait for at least 50ms */
 1241              		.loc 1 703 0
 1242 0030 2046     		mov	r0, r4
 1243 0032 FFF7FEFF 		bl	pio_set_pin_high
 1244              	.LVL128:
 704:../src/sam/components/display/ili93xx/ili93xx.c **** 
 1245              		.loc 1 704 0
 1246 0036 3220     		movs	r0, #50
 1247 0038 FFF7FEFF 		bl	ili93xx_delay
 1248              	.LVL129:
 1249              	.LBB29:
 1250              	.LBB30:
 111:/home/bekeband/workspace/OLIMEX_Start/src/spi.h **** }
 112:/home/bekeband/workspace/OLIMEX_Start/src/spi.h **** 
 113:/home/bekeband/workspace/OLIMEX_Start/src/spi.h **** /**
 114:/home/bekeband/workspace/OLIMEX_Start/src/spi.h ****  * \brief Disable SPI.
 115:/home/bekeband/workspace/OLIMEX_Start/src/spi.h ****  *
 116:/home/bekeband/workspace/OLIMEX_Start/src/spi.h ****  * \note CS is de-asserted, which indicates that the last data is done, and user
 117:/home/bekeband/workspace/OLIMEX_Start/src/spi.h ****  * should check TX_EMPTY before disabling SPI.
 118:/home/bekeband/workspace/OLIMEX_Start/src/spi.h ****  *
 119:/home/bekeband/workspace/OLIMEX_Start/src/spi.h ****  * \param p_spi Pointer to an SPI instance.
 120:/home/bekeband/workspace/OLIMEX_Start/src/spi.h ****  */
 121:/home/bekeband/workspace/OLIMEX_Start/src/spi.h **** static inline void spi_disable(Spi *p_spi)
 122:/home/bekeband/workspace/OLIMEX_Start/src/spi.h **** {
 123:/home/bekeband/workspace/OLIMEX_Start/src/spi.h **** 	p_spi->SPI_CR = SPI_CR_SPIDIS;
 1251              		.loc 2 123 0
 1252 003c 614F     		ldr	r7, .L101+4
 1253 003e 3E60     		str	r6, [r7]
 1254              	.LVL130:
 1255              	.LBE30:
 1256              	.LBE29:
 1257              	.LBB31:
 1258              	.LBB32:
 100:/home/bekeband/workspace/OLIMEX_Start/src/spi.h **** }
 1259              		.loc 2 100 0
 1260 0040 8023     		movs	r3, #128
 1261 0042 3B60     		str	r3, [r7]
 1262              	.LVL131:
 1263              	.LBE32:
 1264              	.LBE31:
 1265              	.LBB33:
 1266              	.LBB34:
 124:/home/bekeband/workspace/OLIMEX_Start/src/spi.h **** }
 125:/home/bekeband/workspace/OLIMEX_Start/src/spi.h **** 
 126:/home/bekeband/workspace/OLIMEX_Start/src/spi.h **** /**
 127:/home/bekeband/workspace/OLIMEX_Start/src/spi.h ****  * \brief Issue a LASTXFER command.
 128:/home/bekeband/workspace/OLIMEX_Start/src/spi.h ****  *  The next transfer is the last transfer and after that CS is de-asserted.
 129:/home/bekeband/workspace/OLIMEX_Start/src/spi.h ****  *
 130:/home/bekeband/workspace/OLIMEX_Start/src/spi.h ****  * \param p_spi Pointer to an SPI instance.
 131:/home/bekeband/workspace/OLIMEX_Start/src/spi.h ****  */
 132:/home/bekeband/workspace/OLIMEX_Start/src/spi.h **** static inline void spi_set_lastxfer(Spi *p_spi)
 133:/home/bekeband/workspace/OLIMEX_Start/src/spi.h **** {
 134:/home/bekeband/workspace/OLIMEX_Start/src/spi.h **** 	p_spi->SPI_CR = SPI_CR_LASTXFER;
 1267              		.loc 2 134 0
 1268 0044 4FF08073 		mov	r3, #16777216
 1269 0048 3B60     		str	r3, [r7]
 1270              	.LVL132:
 1271              	.LBE34:
 1272              	.LBE33:
 1273              	.LBB35:
 1274              	.LBB36:
 1275              		.file 3 "/home/bekeband/workspace/OLIMEX_Start/src/core_cm3.h"
   1:/home/bekeband/workspace/OLIMEX_Start/src/core_cm3.h **** /**************************************************************************//**
   2:/home/bekeband/workspace/OLIMEX_Start/src/core_cm3.h ****  * @file     core_cm3.h
   3:/home/bekeband/workspace/OLIMEX_Start/src/core_cm3.h ****  * @brief    CMSIS Cortex-M3 Core Peripheral Access Layer Header File
   4:/home/bekeband/workspace/OLIMEX_Start/src/core_cm3.h ****  * @version  V4.00
   5:/home/bekeband/workspace/OLIMEX_Start/src/core_cm3.h ****  * @date     22. August 2014
   6:/home/bekeband/workspace/OLIMEX_Start/src/core_cm3.h ****  *
   7:/home/bekeband/workspace/OLIMEX_Start/src/core_cm3.h ****  * @note
   8:/home/bekeband/workspace/OLIMEX_Start/src/core_cm3.h ****  *
   9:/home/bekeband/workspace/OLIMEX_Start/src/core_cm3.h ****  ******************************************************************************/
  10:/home/bekeband/workspace/OLIMEX_Start/src/core_cm3.h **** /* Copyright (c) 2009 - 2014 ARM LIMITED
  11:/home/bekeband/workspace/OLIMEX_Start/src/core_cm3.h **** 
  12:/home/bekeband/workspace/OLIMEX_Start/src/core_cm3.h ****    All rights reserved.
  13:/home/bekeband/workspace/OLIMEX_Start/src/core_cm3.h ****    Redistribution and use in source and binary forms, with or without
  14:/home/bekeband/workspace/OLIMEX_Start/src/core_cm3.h ****    modification, are permitted provided that the following conditions are met:
  15:/home/bekeband/workspace/OLIMEX_Start/src/core_cm3.h ****    - Redistributions of source code must retain the above copyright
  16:/home/bekeband/workspace/OLIMEX_Start/src/core_cm3.h ****      notice, this list of conditions and the following disclaimer.
  17:/home/bekeband/workspace/OLIMEX_Start/src/core_cm3.h ****    - Redistributions in binary form must reproduce the above copyright
  18:/home/bekeband/workspace/OLIMEX_Start/src/core_cm3.h ****      notice, this list of conditions and the following disclaimer in the
  19:/home/bekeband/workspace/OLIMEX_Start/src/core_cm3.h ****      documentation and/or other materials provided with the distribution.
  20:/home/bekeband/workspace/OLIMEX_Start/src/core_cm3.h ****    - Neither the name of ARM nor the names of its contributors may be used
  21:/home/bekeband/workspace/OLIMEX_Start/src/core_cm3.h ****      to endorse or promote products derived from this software without
  22:/home/bekeband/workspace/OLIMEX_Start/src/core_cm3.h ****      specific prior written permission.
  23:/home/bekeband/workspace/OLIMEX_Start/src/core_cm3.h ****    *
  24:/home/bekeband/workspace/OLIMEX_Start/src/core_cm3.h ****    THIS SOFTWARE IS PROVIDED BY THE COPYRIGHT HOLDERS AND CONTRIBUTORS "AS IS"
  25:/home/bekeband/workspace/OLIMEX_Start/src/core_cm3.h ****    AND ANY EXPRESS OR IMPLIED WARRANTIES, INCLUDING, BUT NOT LIMITED TO, THE
  26:/home/bekeband/workspace/OLIMEX_Start/src/core_cm3.h ****    IMPLIED WARRANTIES OF MERCHANTABILITY AND FITNESS FOR A PARTICULAR PURPOSE
  27:/home/bekeband/workspace/OLIMEX_Start/src/core_cm3.h ****    ARE DISCLAIMED. IN NO EVENT SHALL COPYRIGHT HOLDERS AND CONTRIBUTORS BE
  28:/home/bekeband/workspace/OLIMEX_Start/src/core_cm3.h ****    LIABLE FOR ANY DIRECT, INDIRECT, INCIDENTAL, SPECIAL, EXEMPLARY, OR
  29:/home/bekeband/workspace/OLIMEX_Start/src/core_cm3.h ****    CONSEQUENTIAL DAMAGES (INCLUDING, BUT NOT LIMITED TO, PROCUREMENT OF
  30:/home/bekeband/workspace/OLIMEX_Start/src/core_cm3.h ****    SUBSTITUTE GOODS OR SERVICES; LOSS OF USE, DATA, OR PROFITS; OR BUSINESS
  31:/home/bekeband/workspace/OLIMEX_Start/src/core_cm3.h ****    INTERRUPTION) HOWEVER CAUSED AND ON ANY THEORY OF LIABILITY, WHETHER IN
  32:/home/bekeband/workspace/OLIMEX_Start/src/core_cm3.h ****    CONTRACT, STRICT LIABILITY, OR TORT (INCLUDING NEGLIGENCE OR OTHERWISE)
  33:/home/bekeband/workspace/OLIMEX_Start/src/core_cm3.h ****    ARISING IN ANY WAY OUT OF THE USE OF THIS SOFTWARE, EVEN IF ADVISED OF THE
  34:/home/bekeband/workspace/OLIMEX_Start/src/core_cm3.h ****    POSSIBILITY OF SUCH DAMAGE.
  35:/home/bekeband/workspace/OLIMEX_Start/src/core_cm3.h ****    ---------------------------------------------------------------------------*/
  36:/home/bekeband/workspace/OLIMEX_Start/src/core_cm3.h **** 
  37:/home/bekeband/workspace/OLIMEX_Start/src/core_cm3.h **** 
  38:/home/bekeband/workspace/OLIMEX_Start/src/core_cm3.h **** #if defined ( __ICCARM__ )
  39:/home/bekeband/workspace/OLIMEX_Start/src/core_cm3.h ****  #pragma system_include  /* treat file as system include file for MISRA check */
  40:/home/bekeband/workspace/OLIMEX_Start/src/core_cm3.h **** #endif
  41:/home/bekeband/workspace/OLIMEX_Start/src/core_cm3.h **** 
  42:/home/bekeband/workspace/OLIMEX_Start/src/core_cm3.h **** #ifndef __CORE_CM3_H_GENERIC
  43:/home/bekeband/workspace/OLIMEX_Start/src/core_cm3.h **** #define __CORE_CM3_H_GENERIC
  44:/home/bekeband/workspace/OLIMEX_Start/src/core_cm3.h **** 
  45:/home/bekeband/workspace/OLIMEX_Start/src/core_cm3.h **** #ifdef __cplusplus
  46:/home/bekeband/workspace/OLIMEX_Start/src/core_cm3.h ****  extern "C" {
  47:/home/bekeband/workspace/OLIMEX_Start/src/core_cm3.h **** #endif
  48:/home/bekeband/workspace/OLIMEX_Start/src/core_cm3.h **** 
  49:/home/bekeband/workspace/OLIMEX_Start/src/core_cm3.h **** /** \page CMSIS_MISRA_Exceptions  MISRA-C:2004 Compliance Exceptions
  50:/home/bekeband/workspace/OLIMEX_Start/src/core_cm3.h ****   CMSIS violates the following MISRA-C:2004 rules:
  51:/home/bekeband/workspace/OLIMEX_Start/src/core_cm3.h **** 
  52:/home/bekeband/workspace/OLIMEX_Start/src/core_cm3.h ****    \li Required Rule 8.5, object/function definition in header file.<br>
  53:/home/bekeband/workspace/OLIMEX_Start/src/core_cm3.h ****      Function definitions in header files are used to allow 'inlining'.
  54:/home/bekeband/workspace/OLIMEX_Start/src/core_cm3.h **** 
  55:/home/bekeband/workspace/OLIMEX_Start/src/core_cm3.h ****    \li Required Rule 18.4, declaration of union type or object of union type: '{...}'.<br>
  56:/home/bekeband/workspace/OLIMEX_Start/src/core_cm3.h ****      Unions are used for effective representation of core registers.
  57:/home/bekeband/workspace/OLIMEX_Start/src/core_cm3.h **** 
  58:/home/bekeband/workspace/OLIMEX_Start/src/core_cm3.h ****    \li Advisory Rule 19.7, Function-like macro defined.<br>
  59:/home/bekeband/workspace/OLIMEX_Start/src/core_cm3.h ****      Function-like macros are used to allow more efficient code.
  60:/home/bekeband/workspace/OLIMEX_Start/src/core_cm3.h ****  */
  61:/home/bekeband/workspace/OLIMEX_Start/src/core_cm3.h **** 
  62:/home/bekeband/workspace/OLIMEX_Start/src/core_cm3.h **** 
  63:/home/bekeband/workspace/OLIMEX_Start/src/core_cm3.h **** /*******************************************************************************
  64:/home/bekeband/workspace/OLIMEX_Start/src/core_cm3.h ****  *                 CMSIS definitions
  65:/home/bekeband/workspace/OLIMEX_Start/src/core_cm3.h ****  ******************************************************************************/
  66:/home/bekeband/workspace/OLIMEX_Start/src/core_cm3.h **** /** \ingroup Cortex_M3
  67:/home/bekeband/workspace/OLIMEX_Start/src/core_cm3.h ****   @{
  68:/home/bekeband/workspace/OLIMEX_Start/src/core_cm3.h ****  */
  69:/home/bekeband/workspace/OLIMEX_Start/src/core_cm3.h **** 
  70:/home/bekeband/workspace/OLIMEX_Start/src/core_cm3.h **** /*  CMSIS CM3 definitions */
  71:/home/bekeband/workspace/OLIMEX_Start/src/core_cm3.h **** #define __CM3_CMSIS_VERSION_MAIN  (0x04)                                   /*!< [31:16] CMSIS HAL m
  72:/home/bekeband/workspace/OLIMEX_Start/src/core_cm3.h **** #define __CM3_CMSIS_VERSION_SUB   (0x00)                                   /*!< [15:0]  CMSIS HAL s
  73:/home/bekeband/workspace/OLIMEX_Start/src/core_cm3.h **** #define __CM3_CMSIS_VERSION       ((__CM3_CMSIS_VERSION_MAIN << 16) | \
  74:/home/bekeband/workspace/OLIMEX_Start/src/core_cm3.h ****                                     __CM3_CMSIS_VERSION_SUB          )     /*!< CMSIS HAL version n
  75:/home/bekeband/workspace/OLIMEX_Start/src/core_cm3.h **** 
  76:/home/bekeband/workspace/OLIMEX_Start/src/core_cm3.h **** #define __CORTEX_M                (0x03)                                   /*!< Cortex-M Core      
  77:/home/bekeband/workspace/OLIMEX_Start/src/core_cm3.h **** 
  78:/home/bekeband/workspace/OLIMEX_Start/src/core_cm3.h **** 
  79:/home/bekeband/workspace/OLIMEX_Start/src/core_cm3.h **** #if   defined ( __CC_ARM )
  80:/home/bekeband/workspace/OLIMEX_Start/src/core_cm3.h ****   #define __ASM            __asm                                      /*!< asm keyword for ARM Comp
  81:/home/bekeband/workspace/OLIMEX_Start/src/core_cm3.h ****   #define __INLINE         __inline                                   /*!< inline keyword for ARM C
  82:/home/bekeband/workspace/OLIMEX_Start/src/core_cm3.h ****   #define __STATIC_INLINE  static __inline
  83:/home/bekeband/workspace/OLIMEX_Start/src/core_cm3.h **** 
  84:/home/bekeband/workspace/OLIMEX_Start/src/core_cm3.h **** #elif defined ( __GNUC__ )
  85:/home/bekeband/workspace/OLIMEX_Start/src/core_cm3.h ****   #define __ASM            __asm                                      /*!< asm keyword for GNU Comp
  86:/home/bekeband/workspace/OLIMEX_Start/src/core_cm3.h ****   #define __INLINE         inline                                     /*!< inline keyword for GNU C
  87:/home/bekeband/workspace/OLIMEX_Start/src/core_cm3.h ****   #define __STATIC_INLINE  static inline
  88:/home/bekeband/workspace/OLIMEX_Start/src/core_cm3.h **** 
  89:/home/bekeband/workspace/OLIMEX_Start/src/core_cm3.h **** #elif defined ( __ICCARM__ )
  90:/home/bekeband/workspace/OLIMEX_Start/src/core_cm3.h ****   #define __ASM            __asm                                      /*!< asm keyword for IAR Comp
  91:/home/bekeband/workspace/OLIMEX_Start/src/core_cm3.h ****   #define __INLINE         inline                                     /*!< inline keyword for IAR C
  92:/home/bekeband/workspace/OLIMEX_Start/src/core_cm3.h ****   #define __STATIC_INLINE  static inline
  93:/home/bekeband/workspace/OLIMEX_Start/src/core_cm3.h **** 
  94:/home/bekeband/workspace/OLIMEX_Start/src/core_cm3.h **** #elif defined ( __TMS470__ )
  95:/home/bekeband/workspace/OLIMEX_Start/src/core_cm3.h ****   #define __ASM            __asm                                      /*!< asm keyword for TI CCS C
  96:/home/bekeband/workspace/OLIMEX_Start/src/core_cm3.h ****   #define __STATIC_INLINE  static inline
  97:/home/bekeband/workspace/OLIMEX_Start/src/core_cm3.h **** 
  98:/home/bekeband/workspace/OLIMEX_Start/src/core_cm3.h **** #elif defined ( __TASKING__ )
  99:/home/bekeband/workspace/OLIMEX_Start/src/core_cm3.h ****   #define __ASM            __asm                                      /*!< asm keyword for TASKING 
 100:/home/bekeband/workspace/OLIMEX_Start/src/core_cm3.h ****   #define __INLINE         inline                                     /*!< inline keyword for TASKI
 101:/home/bekeband/workspace/OLIMEX_Start/src/core_cm3.h ****   #define __STATIC_INLINE  static inline
 102:/home/bekeband/workspace/OLIMEX_Start/src/core_cm3.h **** 
 103:/home/bekeband/workspace/OLIMEX_Start/src/core_cm3.h **** #elif defined ( __CSMC__ )
 104:/home/bekeband/workspace/OLIMEX_Start/src/core_cm3.h ****   #define __packed
 105:/home/bekeband/workspace/OLIMEX_Start/src/core_cm3.h ****   #define __ASM            _asm                                      /*!< asm keyword for COSMIC Co
 106:/home/bekeband/workspace/OLIMEX_Start/src/core_cm3.h ****   #define __INLINE         inline                                    /*use -pc99 on compile line !<
 107:/home/bekeband/workspace/OLIMEX_Start/src/core_cm3.h ****   #define __STATIC_INLINE  static inline
 108:/home/bekeband/workspace/OLIMEX_Start/src/core_cm3.h **** 
 109:/home/bekeband/workspace/OLIMEX_Start/src/core_cm3.h **** #endif
 110:/home/bekeband/workspace/OLIMEX_Start/src/core_cm3.h **** 
 111:/home/bekeband/workspace/OLIMEX_Start/src/core_cm3.h **** /** __FPU_USED indicates whether an FPU is used or not.
 112:/home/bekeband/workspace/OLIMEX_Start/src/core_cm3.h ****     This core does not support an FPU at all
 113:/home/bekeband/workspace/OLIMEX_Start/src/core_cm3.h **** */
 114:/home/bekeband/workspace/OLIMEX_Start/src/core_cm3.h **** #define __FPU_USED       0
 115:/home/bekeband/workspace/OLIMEX_Start/src/core_cm3.h **** 
 116:/home/bekeband/workspace/OLIMEX_Start/src/core_cm3.h **** #if defined ( __CC_ARM )
 117:/home/bekeband/workspace/OLIMEX_Start/src/core_cm3.h ****   #if defined __TARGET_FPU_VFP
 118:/home/bekeband/workspace/OLIMEX_Start/src/core_cm3.h ****     #warning "Compiler generates FPU instructions for a device without an FPU (check __FPU_PRESENT)
 119:/home/bekeband/workspace/OLIMEX_Start/src/core_cm3.h ****   #endif
 120:/home/bekeband/workspace/OLIMEX_Start/src/core_cm3.h **** 
 121:/home/bekeband/workspace/OLIMEX_Start/src/core_cm3.h **** #elif defined ( __GNUC__ )
 122:/home/bekeband/workspace/OLIMEX_Start/src/core_cm3.h ****   #if defined (__VFP_FP__) && !defined(__SOFTFP__)
 123:/home/bekeband/workspace/OLIMEX_Start/src/core_cm3.h ****     #warning "Compiler generates FPU instructions for a device without an FPU (check __FPU_PRESENT)
 124:/home/bekeband/workspace/OLIMEX_Start/src/core_cm3.h ****   #endif
 125:/home/bekeband/workspace/OLIMEX_Start/src/core_cm3.h **** 
 126:/home/bekeband/workspace/OLIMEX_Start/src/core_cm3.h **** #elif defined ( __ICCARM__ )
 127:/home/bekeband/workspace/OLIMEX_Start/src/core_cm3.h ****   #if defined __ARMVFP__
 128:/home/bekeband/workspace/OLIMEX_Start/src/core_cm3.h ****     #warning "Compiler generates FPU instructions for a device without an FPU (check __FPU_PRESENT)
 129:/home/bekeband/workspace/OLIMEX_Start/src/core_cm3.h ****   #endif
 130:/home/bekeband/workspace/OLIMEX_Start/src/core_cm3.h **** 
 131:/home/bekeband/workspace/OLIMEX_Start/src/core_cm3.h **** #elif defined ( __TMS470__ )
 132:/home/bekeband/workspace/OLIMEX_Start/src/core_cm3.h ****   #if defined __TI__VFP_SUPPORT____
 133:/home/bekeband/workspace/OLIMEX_Start/src/core_cm3.h ****     #warning "Compiler generates FPU instructions for a device without an FPU (check __FPU_PRESENT)
 134:/home/bekeband/workspace/OLIMEX_Start/src/core_cm3.h ****   #endif
 135:/home/bekeband/workspace/OLIMEX_Start/src/core_cm3.h **** 
 136:/home/bekeband/workspace/OLIMEX_Start/src/core_cm3.h **** #elif defined ( __TASKING__ )
 137:/home/bekeband/workspace/OLIMEX_Start/src/core_cm3.h ****   #if defined __FPU_VFP__
 138:/home/bekeband/workspace/OLIMEX_Start/src/core_cm3.h ****     #error "Compiler generates FPU instructions for a device without an FPU (check __FPU_PRESENT)"
 139:/home/bekeband/workspace/OLIMEX_Start/src/core_cm3.h ****   #endif
 140:/home/bekeband/workspace/OLIMEX_Start/src/core_cm3.h **** 
 141:/home/bekeband/workspace/OLIMEX_Start/src/core_cm3.h **** #elif defined ( __CSMC__ )		/* Cosmic */
 142:/home/bekeband/workspace/OLIMEX_Start/src/core_cm3.h ****   #if ( __CSMC__ & 0x400)		// FPU present for parser
 143:/home/bekeband/workspace/OLIMEX_Start/src/core_cm3.h ****     #error "Compiler generates FPU instructions for a device without an FPU (check __FPU_PRESENT)"
 144:/home/bekeband/workspace/OLIMEX_Start/src/core_cm3.h ****   #endif
 145:/home/bekeband/workspace/OLIMEX_Start/src/core_cm3.h **** #endif
 146:/home/bekeband/workspace/OLIMEX_Start/src/core_cm3.h **** 
 147:/home/bekeband/workspace/OLIMEX_Start/src/core_cm3.h **** #include <stdint.h>                      /* standard types definitions                      */
 148:/home/bekeband/workspace/OLIMEX_Start/src/core_cm3.h **** #include <core_cmInstr.h>                /* Core Instruction Access                         */
 149:/home/bekeband/workspace/OLIMEX_Start/src/core_cm3.h **** #include <core_cmFunc.h>                 /* Core Function Access                            */
 150:/home/bekeband/workspace/OLIMEX_Start/src/core_cm3.h **** 
 151:/home/bekeband/workspace/OLIMEX_Start/src/core_cm3.h **** #ifdef __cplusplus
 152:/home/bekeband/workspace/OLIMEX_Start/src/core_cm3.h **** }
 153:/home/bekeband/workspace/OLIMEX_Start/src/core_cm3.h **** #endif
 154:/home/bekeband/workspace/OLIMEX_Start/src/core_cm3.h **** 
 155:/home/bekeband/workspace/OLIMEX_Start/src/core_cm3.h **** #endif /* __CORE_CM3_H_GENERIC */
 156:/home/bekeband/workspace/OLIMEX_Start/src/core_cm3.h **** 
 157:/home/bekeband/workspace/OLIMEX_Start/src/core_cm3.h **** #ifndef __CMSIS_GENERIC
 158:/home/bekeband/workspace/OLIMEX_Start/src/core_cm3.h **** 
 159:/home/bekeband/workspace/OLIMEX_Start/src/core_cm3.h **** #ifndef __CORE_CM3_H_DEPENDANT
 160:/home/bekeband/workspace/OLIMEX_Start/src/core_cm3.h **** #define __CORE_CM3_H_DEPENDANT
 161:/home/bekeband/workspace/OLIMEX_Start/src/core_cm3.h **** 
 162:/home/bekeband/workspace/OLIMEX_Start/src/core_cm3.h **** #ifdef __cplusplus
 163:/home/bekeband/workspace/OLIMEX_Start/src/core_cm3.h ****  extern "C" {
 164:/home/bekeband/workspace/OLIMEX_Start/src/core_cm3.h **** #endif
 165:/home/bekeband/workspace/OLIMEX_Start/src/core_cm3.h **** 
 166:/home/bekeband/workspace/OLIMEX_Start/src/core_cm3.h **** /* check device defines and use defaults */
 167:/home/bekeband/workspace/OLIMEX_Start/src/core_cm3.h **** #if defined __CHECK_DEVICE_DEFINES
 168:/home/bekeband/workspace/OLIMEX_Start/src/core_cm3.h ****   #ifndef __CM3_REV
 169:/home/bekeband/workspace/OLIMEX_Start/src/core_cm3.h ****     #define __CM3_REV               0x0200
 170:/home/bekeband/workspace/OLIMEX_Start/src/core_cm3.h ****     #warning "__CM3_REV not defined in device header file; using default!"
 171:/home/bekeband/workspace/OLIMEX_Start/src/core_cm3.h ****   #endif
 172:/home/bekeband/workspace/OLIMEX_Start/src/core_cm3.h **** 
 173:/home/bekeband/workspace/OLIMEX_Start/src/core_cm3.h ****   #ifndef __MPU_PRESENT
 174:/home/bekeband/workspace/OLIMEX_Start/src/core_cm3.h ****     #define __MPU_PRESENT             0
 175:/home/bekeband/workspace/OLIMEX_Start/src/core_cm3.h ****     #warning "__MPU_PRESENT not defined in device header file; using default!"
 176:/home/bekeband/workspace/OLIMEX_Start/src/core_cm3.h ****   #endif
 177:/home/bekeband/workspace/OLIMEX_Start/src/core_cm3.h **** 
 178:/home/bekeband/workspace/OLIMEX_Start/src/core_cm3.h ****   #ifndef __NVIC_PRIO_BITS
 179:/home/bekeband/workspace/OLIMEX_Start/src/core_cm3.h ****     #define __NVIC_PRIO_BITS          4
 180:/home/bekeband/workspace/OLIMEX_Start/src/core_cm3.h ****     #warning "__NVIC_PRIO_BITS not defined in device header file; using default!"
 181:/home/bekeband/workspace/OLIMEX_Start/src/core_cm3.h ****   #endif
 182:/home/bekeband/workspace/OLIMEX_Start/src/core_cm3.h **** 
 183:/home/bekeband/workspace/OLIMEX_Start/src/core_cm3.h ****   #ifndef __Vendor_SysTickConfig
 184:/home/bekeband/workspace/OLIMEX_Start/src/core_cm3.h ****     #define __Vendor_SysTickConfig    0
 185:/home/bekeband/workspace/OLIMEX_Start/src/core_cm3.h ****     #warning "__Vendor_SysTickConfig not defined in device header file; using default!"
 186:/home/bekeband/workspace/OLIMEX_Start/src/core_cm3.h ****   #endif
 187:/home/bekeband/workspace/OLIMEX_Start/src/core_cm3.h **** #endif
 188:/home/bekeband/workspace/OLIMEX_Start/src/core_cm3.h **** 
 189:/home/bekeband/workspace/OLIMEX_Start/src/core_cm3.h **** /* IO definitions (access restrictions to peripheral registers) */
 190:/home/bekeband/workspace/OLIMEX_Start/src/core_cm3.h **** /**
 191:/home/bekeband/workspace/OLIMEX_Start/src/core_cm3.h ****     \defgroup CMSIS_glob_defs CMSIS Global Defines
 192:/home/bekeband/workspace/OLIMEX_Start/src/core_cm3.h **** 
 193:/home/bekeband/workspace/OLIMEX_Start/src/core_cm3.h ****     <strong>IO Type Qualifiers</strong> are used
 194:/home/bekeband/workspace/OLIMEX_Start/src/core_cm3.h ****     \li to specify the access to peripheral variables.
 195:/home/bekeband/workspace/OLIMEX_Start/src/core_cm3.h ****     \li for automatic generation of peripheral register debug information.
 196:/home/bekeband/workspace/OLIMEX_Start/src/core_cm3.h **** */
 197:/home/bekeband/workspace/OLIMEX_Start/src/core_cm3.h **** #ifdef __cplusplus
 198:/home/bekeband/workspace/OLIMEX_Start/src/core_cm3.h ****   #define   __I     volatile             /*!< Defines 'read only' permissions                 */
 199:/home/bekeband/workspace/OLIMEX_Start/src/core_cm3.h **** #else
 200:/home/bekeband/workspace/OLIMEX_Start/src/core_cm3.h ****   #define   __I     volatile const       /*!< Defines 'read only' permissions                 */
 201:/home/bekeband/workspace/OLIMEX_Start/src/core_cm3.h **** #endif
 202:/home/bekeband/workspace/OLIMEX_Start/src/core_cm3.h **** #define     __O     volatile             /*!< Defines 'write only' permissions                */
 203:/home/bekeband/workspace/OLIMEX_Start/src/core_cm3.h **** #define     __IO    volatile             /*!< Defines 'read / write' permissions              */
 204:/home/bekeband/workspace/OLIMEX_Start/src/core_cm3.h **** 
 205:/home/bekeband/workspace/OLIMEX_Start/src/core_cm3.h **** /*@} end of group Cortex_M3 */
 206:/home/bekeband/workspace/OLIMEX_Start/src/core_cm3.h **** 
 207:/home/bekeband/workspace/OLIMEX_Start/src/core_cm3.h **** 
 208:/home/bekeband/workspace/OLIMEX_Start/src/core_cm3.h **** 
 209:/home/bekeband/workspace/OLIMEX_Start/src/core_cm3.h **** /*******************************************************************************
 210:/home/bekeband/workspace/OLIMEX_Start/src/core_cm3.h ****  *                 Register Abstraction
 211:/home/bekeband/workspace/OLIMEX_Start/src/core_cm3.h ****   Core Register contain:
 212:/home/bekeband/workspace/OLIMEX_Start/src/core_cm3.h ****   - Core Register
 213:/home/bekeband/workspace/OLIMEX_Start/src/core_cm3.h ****   - Core NVIC Register
 214:/home/bekeband/workspace/OLIMEX_Start/src/core_cm3.h ****   - Core SCB Register
 215:/home/bekeband/workspace/OLIMEX_Start/src/core_cm3.h ****   - Core SysTick Register
 216:/home/bekeband/workspace/OLIMEX_Start/src/core_cm3.h ****   - Core Debug Register
 217:/home/bekeband/workspace/OLIMEX_Start/src/core_cm3.h ****   - Core MPU Register
 218:/home/bekeband/workspace/OLIMEX_Start/src/core_cm3.h ****  ******************************************************************************/
 219:/home/bekeband/workspace/OLIMEX_Start/src/core_cm3.h **** /** \defgroup CMSIS_core_register Defines and Type Definitions
 220:/home/bekeband/workspace/OLIMEX_Start/src/core_cm3.h ****     \brief Type definitions and defines for Cortex-M processor based devices.
 221:/home/bekeband/workspace/OLIMEX_Start/src/core_cm3.h **** */
 222:/home/bekeband/workspace/OLIMEX_Start/src/core_cm3.h **** 
 223:/home/bekeband/workspace/OLIMEX_Start/src/core_cm3.h **** /** \ingroup    CMSIS_core_register
 224:/home/bekeband/workspace/OLIMEX_Start/src/core_cm3.h ****     \defgroup   CMSIS_CORE  Status and Control Registers
 225:/home/bekeband/workspace/OLIMEX_Start/src/core_cm3.h ****     \brief  Core Register type definitions.
 226:/home/bekeband/workspace/OLIMEX_Start/src/core_cm3.h ****   @{
 227:/home/bekeband/workspace/OLIMEX_Start/src/core_cm3.h ****  */
 228:/home/bekeband/workspace/OLIMEX_Start/src/core_cm3.h **** 
 229:/home/bekeband/workspace/OLIMEX_Start/src/core_cm3.h **** /** \brief  Union type to access the Application Program Status Register (APSR).
 230:/home/bekeband/workspace/OLIMEX_Start/src/core_cm3.h ****  */
 231:/home/bekeband/workspace/OLIMEX_Start/src/core_cm3.h **** typedef union
 232:/home/bekeband/workspace/OLIMEX_Start/src/core_cm3.h **** {
 233:/home/bekeband/workspace/OLIMEX_Start/src/core_cm3.h ****   struct
 234:/home/bekeband/workspace/OLIMEX_Start/src/core_cm3.h ****   {
 235:/home/bekeband/workspace/OLIMEX_Start/src/core_cm3.h **** #if (__CORTEX_M != 0x04)
 236:/home/bekeband/workspace/OLIMEX_Start/src/core_cm3.h ****     uint32_t _reserved0:27;              /*!< bit:  0..26  Reserved                           */
 237:/home/bekeband/workspace/OLIMEX_Start/src/core_cm3.h **** #else
 238:/home/bekeband/workspace/OLIMEX_Start/src/core_cm3.h ****     uint32_t _reserved0:16;              /*!< bit:  0..15  Reserved                           */
 239:/home/bekeband/workspace/OLIMEX_Start/src/core_cm3.h ****     uint32_t GE:4;                       /*!< bit: 16..19  Greater than or Equal flags        */
 240:/home/bekeband/workspace/OLIMEX_Start/src/core_cm3.h ****     uint32_t _reserved1:7;               /*!< bit: 20..26  Reserved                           */
 241:/home/bekeband/workspace/OLIMEX_Start/src/core_cm3.h **** #endif
 242:/home/bekeband/workspace/OLIMEX_Start/src/core_cm3.h ****     uint32_t Q:1;                        /*!< bit:     27  Saturation condition flag          */
 243:/home/bekeband/workspace/OLIMEX_Start/src/core_cm3.h ****     uint32_t V:1;                        /*!< bit:     28  Overflow condition code flag       */
 244:/home/bekeband/workspace/OLIMEX_Start/src/core_cm3.h ****     uint32_t C:1;                        /*!< bit:     29  Carry condition code flag          */
 245:/home/bekeband/workspace/OLIMEX_Start/src/core_cm3.h ****     uint32_t Z:1;                        /*!< bit:     30  Zero condition code flag           */
 246:/home/bekeband/workspace/OLIMEX_Start/src/core_cm3.h ****     uint32_t N:1;                        /*!< bit:     31  Negative condition code flag       */
 247:/home/bekeband/workspace/OLIMEX_Start/src/core_cm3.h ****   } b;                                   /*!< Structure used for bit  access                  */
 248:/home/bekeband/workspace/OLIMEX_Start/src/core_cm3.h ****   uint32_t w;                            /*!< Type      used for word access                  */
 249:/home/bekeband/workspace/OLIMEX_Start/src/core_cm3.h **** } APSR_Type;
 250:/home/bekeband/workspace/OLIMEX_Start/src/core_cm3.h **** 
 251:/home/bekeband/workspace/OLIMEX_Start/src/core_cm3.h **** 
 252:/home/bekeband/workspace/OLIMEX_Start/src/core_cm3.h **** /** \brief  Union type to access the Interrupt Program Status Register (IPSR).
 253:/home/bekeband/workspace/OLIMEX_Start/src/core_cm3.h ****  */
 254:/home/bekeband/workspace/OLIMEX_Start/src/core_cm3.h **** typedef union
 255:/home/bekeband/workspace/OLIMEX_Start/src/core_cm3.h **** {
 256:/home/bekeband/workspace/OLIMEX_Start/src/core_cm3.h ****   struct
 257:/home/bekeband/workspace/OLIMEX_Start/src/core_cm3.h ****   {
 258:/home/bekeband/workspace/OLIMEX_Start/src/core_cm3.h ****     uint32_t ISR:9;                      /*!< bit:  0.. 8  Exception number                   */
 259:/home/bekeband/workspace/OLIMEX_Start/src/core_cm3.h ****     uint32_t _reserved0:23;              /*!< bit:  9..31  Reserved                           */
 260:/home/bekeband/workspace/OLIMEX_Start/src/core_cm3.h ****   } b;                                   /*!< Structure used for bit  access                  */
 261:/home/bekeband/workspace/OLIMEX_Start/src/core_cm3.h ****   uint32_t w;                            /*!< Type      used for word access                  */
 262:/home/bekeband/workspace/OLIMEX_Start/src/core_cm3.h **** } IPSR_Type;
 263:/home/bekeband/workspace/OLIMEX_Start/src/core_cm3.h **** 
 264:/home/bekeband/workspace/OLIMEX_Start/src/core_cm3.h **** 
 265:/home/bekeband/workspace/OLIMEX_Start/src/core_cm3.h **** /** \brief  Union type to access the Special-Purpose Program Status Registers (xPSR).
 266:/home/bekeband/workspace/OLIMEX_Start/src/core_cm3.h ****  */
 267:/home/bekeband/workspace/OLIMEX_Start/src/core_cm3.h **** typedef union
 268:/home/bekeband/workspace/OLIMEX_Start/src/core_cm3.h **** {
 269:/home/bekeband/workspace/OLIMEX_Start/src/core_cm3.h ****   struct
 270:/home/bekeband/workspace/OLIMEX_Start/src/core_cm3.h ****   {
 271:/home/bekeband/workspace/OLIMEX_Start/src/core_cm3.h ****     uint32_t ISR:9;                      /*!< bit:  0.. 8  Exception number                   */
 272:/home/bekeband/workspace/OLIMEX_Start/src/core_cm3.h **** #if (__CORTEX_M != 0x04)
 273:/home/bekeband/workspace/OLIMEX_Start/src/core_cm3.h ****     uint32_t _reserved0:15;              /*!< bit:  9..23  Reserved                           */
 274:/home/bekeband/workspace/OLIMEX_Start/src/core_cm3.h **** #else
 275:/home/bekeband/workspace/OLIMEX_Start/src/core_cm3.h ****     uint32_t _reserved0:7;               /*!< bit:  9..15  Reserved                           */
 276:/home/bekeband/workspace/OLIMEX_Start/src/core_cm3.h ****     uint32_t GE:4;                       /*!< bit: 16..19  Greater than or Equal flags        */
 277:/home/bekeband/workspace/OLIMEX_Start/src/core_cm3.h ****     uint32_t _reserved1:4;               /*!< bit: 20..23  Reserved                           */
 278:/home/bekeband/workspace/OLIMEX_Start/src/core_cm3.h **** #endif
 279:/home/bekeband/workspace/OLIMEX_Start/src/core_cm3.h ****     uint32_t T:1;                        /*!< bit:     24  Thumb bit        (read 0)          */
 280:/home/bekeband/workspace/OLIMEX_Start/src/core_cm3.h ****     uint32_t IT:2;                       /*!< bit: 25..26  saved IT state   (read 0)          */
 281:/home/bekeband/workspace/OLIMEX_Start/src/core_cm3.h ****     uint32_t Q:1;                        /*!< bit:     27  Saturation condition flag          */
 282:/home/bekeband/workspace/OLIMEX_Start/src/core_cm3.h ****     uint32_t V:1;                        /*!< bit:     28  Overflow condition code flag       */
 283:/home/bekeband/workspace/OLIMEX_Start/src/core_cm3.h ****     uint32_t C:1;                        /*!< bit:     29  Carry condition code flag          */
 284:/home/bekeband/workspace/OLIMEX_Start/src/core_cm3.h ****     uint32_t Z:1;                        /*!< bit:     30  Zero condition code flag           */
 285:/home/bekeband/workspace/OLIMEX_Start/src/core_cm3.h ****     uint32_t N:1;                        /*!< bit:     31  Negative condition code flag       */
 286:/home/bekeband/workspace/OLIMEX_Start/src/core_cm3.h ****   } b;                                   /*!< Structure used for bit  access                  */
 287:/home/bekeband/workspace/OLIMEX_Start/src/core_cm3.h ****   uint32_t w;                            /*!< Type      used for word access                  */
 288:/home/bekeband/workspace/OLIMEX_Start/src/core_cm3.h **** } xPSR_Type;
 289:/home/bekeband/workspace/OLIMEX_Start/src/core_cm3.h **** 
 290:/home/bekeband/workspace/OLIMEX_Start/src/core_cm3.h **** 
 291:/home/bekeband/workspace/OLIMEX_Start/src/core_cm3.h **** /** \brief  Union type to access the Control Registers (CONTROL).
 292:/home/bekeband/workspace/OLIMEX_Start/src/core_cm3.h ****  */
 293:/home/bekeband/workspace/OLIMEX_Start/src/core_cm3.h **** typedef union
 294:/home/bekeband/workspace/OLIMEX_Start/src/core_cm3.h **** {
 295:/home/bekeband/workspace/OLIMEX_Start/src/core_cm3.h ****   struct
 296:/home/bekeband/workspace/OLIMEX_Start/src/core_cm3.h ****   {
 297:/home/bekeband/workspace/OLIMEX_Start/src/core_cm3.h ****     uint32_t nPRIV:1;                    /*!< bit:      0  Execution privilege in Thread mode */
 298:/home/bekeband/workspace/OLIMEX_Start/src/core_cm3.h ****     uint32_t SPSEL:1;                    /*!< bit:      1  Stack to be used                   */
 299:/home/bekeband/workspace/OLIMEX_Start/src/core_cm3.h ****     uint32_t FPCA:1;                     /*!< bit:      2  FP extension active flag           */
 300:/home/bekeband/workspace/OLIMEX_Start/src/core_cm3.h ****     uint32_t _reserved0:29;              /*!< bit:  3..31  Reserved                           */
 301:/home/bekeband/workspace/OLIMEX_Start/src/core_cm3.h ****   } b;                                   /*!< Structure used for bit  access                  */
 302:/home/bekeband/workspace/OLIMEX_Start/src/core_cm3.h ****   uint32_t w;                            /*!< Type      used for word access                  */
 303:/home/bekeband/workspace/OLIMEX_Start/src/core_cm3.h **** } CONTROL_Type;
 304:/home/bekeband/workspace/OLIMEX_Start/src/core_cm3.h **** 
 305:/home/bekeband/workspace/OLIMEX_Start/src/core_cm3.h **** /*@} end of group CMSIS_CORE */
 306:/home/bekeband/workspace/OLIMEX_Start/src/core_cm3.h **** 
 307:/home/bekeband/workspace/OLIMEX_Start/src/core_cm3.h **** 
 308:/home/bekeband/workspace/OLIMEX_Start/src/core_cm3.h **** /** \ingroup    CMSIS_core_register
 309:/home/bekeband/workspace/OLIMEX_Start/src/core_cm3.h ****     \defgroup   CMSIS_NVIC  Nested Vectored Interrupt Controller (NVIC)
 310:/home/bekeband/workspace/OLIMEX_Start/src/core_cm3.h ****     \brief      Type definitions for the NVIC Registers
 311:/home/bekeband/workspace/OLIMEX_Start/src/core_cm3.h ****   @{
 312:/home/bekeband/workspace/OLIMEX_Start/src/core_cm3.h ****  */
 313:/home/bekeband/workspace/OLIMEX_Start/src/core_cm3.h **** 
 314:/home/bekeband/workspace/OLIMEX_Start/src/core_cm3.h **** /** \brief  Structure type to access the Nested Vectored Interrupt Controller (NVIC).
 315:/home/bekeband/workspace/OLIMEX_Start/src/core_cm3.h ****  */
 316:/home/bekeband/workspace/OLIMEX_Start/src/core_cm3.h **** typedef struct
 317:/home/bekeband/workspace/OLIMEX_Start/src/core_cm3.h **** {
 318:/home/bekeband/workspace/OLIMEX_Start/src/core_cm3.h ****   __IO uint32_t ISER[8];                 /*!< Offset: 0x000 (R/W)  Interrupt Set Enable Register   
 319:/home/bekeband/workspace/OLIMEX_Start/src/core_cm3.h ****        uint32_t RESERVED0[24];
 320:/home/bekeband/workspace/OLIMEX_Start/src/core_cm3.h ****   __IO uint32_t ICER[8];                 /*!< Offset: 0x080 (R/W)  Interrupt Clear Enable Register 
 321:/home/bekeband/workspace/OLIMEX_Start/src/core_cm3.h ****        uint32_t RSERVED1[24];
 322:/home/bekeband/workspace/OLIMEX_Start/src/core_cm3.h ****   __IO uint32_t ISPR[8];                 /*!< Offset: 0x100 (R/W)  Interrupt Set Pending Register  
 323:/home/bekeband/workspace/OLIMEX_Start/src/core_cm3.h ****        uint32_t RESERVED2[24];
 324:/home/bekeband/workspace/OLIMEX_Start/src/core_cm3.h ****   __IO uint32_t ICPR[8];                 /*!< Offset: 0x180 (R/W)  Interrupt Clear Pending Register
 325:/home/bekeband/workspace/OLIMEX_Start/src/core_cm3.h ****        uint32_t RESERVED3[24];
 326:/home/bekeband/workspace/OLIMEX_Start/src/core_cm3.h ****   __IO uint32_t IABR[8];                 /*!< Offset: 0x200 (R/W)  Interrupt Active bit Register   
 327:/home/bekeband/workspace/OLIMEX_Start/src/core_cm3.h ****        uint32_t RESERVED4[56];
 328:/home/bekeband/workspace/OLIMEX_Start/src/core_cm3.h ****   __IO uint8_t  IP[240];                 /*!< Offset: 0x300 (R/W)  Interrupt Priority Register (8Bi
 329:/home/bekeband/workspace/OLIMEX_Start/src/core_cm3.h ****        uint32_t RESERVED5[644];
 330:/home/bekeband/workspace/OLIMEX_Start/src/core_cm3.h ****   __O  uint32_t STIR;                    /*!< Offset: 0xE00 ( /W)  Software Trigger Interrupt Regis
 331:/home/bekeband/workspace/OLIMEX_Start/src/core_cm3.h **** }  NVIC_Type;
 332:/home/bekeband/workspace/OLIMEX_Start/src/core_cm3.h **** 
 333:/home/bekeband/workspace/OLIMEX_Start/src/core_cm3.h **** /* Software Triggered Interrupt Register Definitions */
 334:/home/bekeband/workspace/OLIMEX_Start/src/core_cm3.h **** #define NVIC_STIR_INTID_Pos                 0                                          /*!< STIR: I
 335:/home/bekeband/workspace/OLIMEX_Start/src/core_cm3.h **** #define NVIC_STIR_INTID_Msk                (0x1FFUL << NVIC_STIR_INTID_Pos)            /*!< STIR: I
 336:/home/bekeband/workspace/OLIMEX_Start/src/core_cm3.h **** 
 337:/home/bekeband/workspace/OLIMEX_Start/src/core_cm3.h **** /*@} end of group CMSIS_NVIC */
 338:/home/bekeband/workspace/OLIMEX_Start/src/core_cm3.h **** 
 339:/home/bekeband/workspace/OLIMEX_Start/src/core_cm3.h **** 
 340:/home/bekeband/workspace/OLIMEX_Start/src/core_cm3.h **** /** \ingroup  CMSIS_core_register
 341:/home/bekeband/workspace/OLIMEX_Start/src/core_cm3.h ****     \defgroup CMSIS_SCB     System Control Block (SCB)
 342:/home/bekeband/workspace/OLIMEX_Start/src/core_cm3.h ****     \brief      Type definitions for the System Control Block Registers
 343:/home/bekeband/workspace/OLIMEX_Start/src/core_cm3.h ****   @{
 344:/home/bekeband/workspace/OLIMEX_Start/src/core_cm3.h ****  */
 345:/home/bekeband/workspace/OLIMEX_Start/src/core_cm3.h **** 
 346:/home/bekeband/workspace/OLIMEX_Start/src/core_cm3.h **** /** \brief  Structure type to access the System Control Block (SCB).
 347:/home/bekeband/workspace/OLIMEX_Start/src/core_cm3.h ****  */
 348:/home/bekeband/workspace/OLIMEX_Start/src/core_cm3.h **** typedef struct
 349:/home/bekeband/workspace/OLIMEX_Start/src/core_cm3.h **** {
 350:/home/bekeband/workspace/OLIMEX_Start/src/core_cm3.h ****   __I  uint32_t CPUID;                   /*!< Offset: 0x000 (R/ )  CPUID Base Register             
 351:/home/bekeband/workspace/OLIMEX_Start/src/core_cm3.h ****   __IO uint32_t ICSR;                    /*!< Offset: 0x004 (R/W)  Interrupt Control and State Regi
 352:/home/bekeband/workspace/OLIMEX_Start/src/core_cm3.h ****   __IO uint32_t VTOR;                    /*!< Offset: 0x008 (R/W)  Vector Table Offset Register    
 353:/home/bekeband/workspace/OLIMEX_Start/src/core_cm3.h ****   __IO uint32_t AIRCR;                   /*!< Offset: 0x00C (R/W)  Application Interrupt and Reset 
 354:/home/bekeband/workspace/OLIMEX_Start/src/core_cm3.h ****   __IO uint32_t SCR;                     /*!< Offset: 0x010 (R/W)  System Control Register         
 355:/home/bekeband/workspace/OLIMEX_Start/src/core_cm3.h ****   __IO uint32_t CCR;                     /*!< Offset: 0x014 (R/W)  Configuration Control Register  
 356:/home/bekeband/workspace/OLIMEX_Start/src/core_cm3.h ****   __IO uint8_t  SHP[12];                 /*!< Offset: 0x018 (R/W)  System Handlers Priority Registe
 357:/home/bekeband/workspace/OLIMEX_Start/src/core_cm3.h ****   __IO uint32_t SHCSR;                   /*!< Offset: 0x024 (R/W)  System Handler Control and State
 358:/home/bekeband/workspace/OLIMEX_Start/src/core_cm3.h ****   __IO uint32_t CFSR;                    /*!< Offset: 0x028 (R/W)  Configurable Fault Status Regist
 359:/home/bekeband/workspace/OLIMEX_Start/src/core_cm3.h ****   __IO uint32_t HFSR;                    /*!< Offset: 0x02C (R/W)  HardFault Status Register       
 360:/home/bekeband/workspace/OLIMEX_Start/src/core_cm3.h ****   __IO uint32_t DFSR;                    /*!< Offset: 0x030 (R/W)  Debug Fault Status Register     
 361:/home/bekeband/workspace/OLIMEX_Start/src/core_cm3.h ****   __IO uint32_t MMFAR;                   /*!< Offset: 0x034 (R/W)  MemManage Fault Address Register
 362:/home/bekeband/workspace/OLIMEX_Start/src/core_cm3.h ****   __IO uint32_t BFAR;                    /*!< Offset: 0x038 (R/W)  BusFault Address Register       
 363:/home/bekeband/workspace/OLIMEX_Start/src/core_cm3.h ****   __IO uint32_t AFSR;                    /*!< Offset: 0x03C (R/W)  Auxiliary Fault Status Register 
 364:/home/bekeband/workspace/OLIMEX_Start/src/core_cm3.h ****   __I  uint32_t PFR[2];                  /*!< Offset: 0x040 (R/ )  Processor Feature Register      
 365:/home/bekeband/workspace/OLIMEX_Start/src/core_cm3.h ****   __I  uint32_t DFR;                     /*!< Offset: 0x048 (R/ )  Debug Feature Register          
 366:/home/bekeband/workspace/OLIMEX_Start/src/core_cm3.h ****   __I  uint32_t ADR;                     /*!< Offset: 0x04C (R/ )  Auxiliary Feature Register      
 367:/home/bekeband/workspace/OLIMEX_Start/src/core_cm3.h ****   __I  uint32_t MMFR[4];                 /*!< Offset: 0x050 (R/ )  Memory Model Feature Register   
 368:/home/bekeband/workspace/OLIMEX_Start/src/core_cm3.h ****   __I  uint32_t ISAR[5];                 /*!< Offset: 0x060 (R/ )  Instruction Set Attributes Regis
 369:/home/bekeband/workspace/OLIMEX_Start/src/core_cm3.h ****        uint32_t RESERVED0[5];
 370:/home/bekeband/workspace/OLIMEX_Start/src/core_cm3.h ****   __IO uint32_t CPACR;                   /*!< Offset: 0x088 (R/W)  Coprocessor Access Control Regis
 371:/home/bekeband/workspace/OLIMEX_Start/src/core_cm3.h **** } SCB_Type;
 372:/home/bekeband/workspace/OLIMEX_Start/src/core_cm3.h **** 
 373:/home/bekeband/workspace/OLIMEX_Start/src/core_cm3.h **** /* SCB CPUID Register Definitions */
 374:/home/bekeband/workspace/OLIMEX_Start/src/core_cm3.h **** #define SCB_CPUID_IMPLEMENTER_Pos          24                                             /*!< SCB 
 375:/home/bekeband/workspace/OLIMEX_Start/src/core_cm3.h **** #define SCB_CPUID_IMPLEMENTER_Msk          (0xFFUL << SCB_CPUID_IMPLEMENTER_Pos)          /*!< SCB 
 376:/home/bekeband/workspace/OLIMEX_Start/src/core_cm3.h **** 
 377:/home/bekeband/workspace/OLIMEX_Start/src/core_cm3.h **** #define SCB_CPUID_VARIANT_Pos              20                                             /*!< SCB 
 378:/home/bekeband/workspace/OLIMEX_Start/src/core_cm3.h **** #define SCB_CPUID_VARIANT_Msk              (0xFUL << SCB_CPUID_VARIANT_Pos)               /*!< SCB 
 379:/home/bekeband/workspace/OLIMEX_Start/src/core_cm3.h **** 
 380:/home/bekeband/workspace/OLIMEX_Start/src/core_cm3.h **** #define SCB_CPUID_ARCHITECTURE_Pos         16                                             /*!< SCB 
 381:/home/bekeband/workspace/OLIMEX_Start/src/core_cm3.h **** #define SCB_CPUID_ARCHITECTURE_Msk         (0xFUL << SCB_CPUID_ARCHITECTURE_Pos)          /*!< SCB 
 382:/home/bekeband/workspace/OLIMEX_Start/src/core_cm3.h **** 
 383:/home/bekeband/workspace/OLIMEX_Start/src/core_cm3.h **** #define SCB_CPUID_PARTNO_Pos                4                                             /*!< SCB 
 384:/home/bekeband/workspace/OLIMEX_Start/src/core_cm3.h **** #define SCB_CPUID_PARTNO_Msk               (0xFFFUL << SCB_CPUID_PARTNO_Pos)              /*!< SCB 
 385:/home/bekeband/workspace/OLIMEX_Start/src/core_cm3.h **** 
 386:/home/bekeband/workspace/OLIMEX_Start/src/core_cm3.h **** #define SCB_CPUID_REVISION_Pos              0                                             /*!< SCB 
 387:/home/bekeband/workspace/OLIMEX_Start/src/core_cm3.h **** #define SCB_CPUID_REVISION_Msk             (0xFUL << SCB_CPUID_REVISION_Pos)              /*!< SCB 
 388:/home/bekeband/workspace/OLIMEX_Start/src/core_cm3.h **** 
 389:/home/bekeband/workspace/OLIMEX_Start/src/core_cm3.h **** /* SCB Interrupt Control State Register Definitions */
 390:/home/bekeband/workspace/OLIMEX_Start/src/core_cm3.h **** #define SCB_ICSR_NMIPENDSET_Pos            31                                             /*!< SCB 
 391:/home/bekeband/workspace/OLIMEX_Start/src/core_cm3.h **** #define SCB_ICSR_NMIPENDSET_Msk            (1UL << SCB_ICSR_NMIPENDSET_Pos)               /*!< SCB 
 392:/home/bekeband/workspace/OLIMEX_Start/src/core_cm3.h **** 
 393:/home/bekeband/workspace/OLIMEX_Start/src/core_cm3.h **** #define SCB_ICSR_PENDSVSET_Pos             28                                             /*!< SCB 
 394:/home/bekeband/workspace/OLIMEX_Start/src/core_cm3.h **** #define SCB_ICSR_PENDSVSET_Msk             (1UL << SCB_ICSR_PENDSVSET_Pos)                /*!< SCB 
 395:/home/bekeband/workspace/OLIMEX_Start/src/core_cm3.h **** 
 396:/home/bekeband/workspace/OLIMEX_Start/src/core_cm3.h **** #define SCB_ICSR_PENDSVCLR_Pos             27                                             /*!< SCB 
 397:/home/bekeband/workspace/OLIMEX_Start/src/core_cm3.h **** #define SCB_ICSR_PENDSVCLR_Msk             (1UL << SCB_ICSR_PENDSVCLR_Pos)                /*!< SCB 
 398:/home/bekeband/workspace/OLIMEX_Start/src/core_cm3.h **** 
 399:/home/bekeband/workspace/OLIMEX_Start/src/core_cm3.h **** #define SCB_ICSR_PENDSTSET_Pos             26                                             /*!< SCB 
 400:/home/bekeband/workspace/OLIMEX_Start/src/core_cm3.h **** #define SCB_ICSR_PENDSTSET_Msk             (1UL << SCB_ICSR_PENDSTSET_Pos)                /*!< SCB 
 401:/home/bekeband/workspace/OLIMEX_Start/src/core_cm3.h **** 
 402:/home/bekeband/workspace/OLIMEX_Start/src/core_cm3.h **** #define SCB_ICSR_PENDSTCLR_Pos             25                                             /*!< SCB 
 403:/home/bekeband/workspace/OLIMEX_Start/src/core_cm3.h **** #define SCB_ICSR_PENDSTCLR_Msk             (1UL << SCB_ICSR_PENDSTCLR_Pos)                /*!< SCB 
 404:/home/bekeband/workspace/OLIMEX_Start/src/core_cm3.h **** 
 405:/home/bekeband/workspace/OLIMEX_Start/src/core_cm3.h **** #define SCB_ICSR_ISRPREEMPT_Pos            23                                             /*!< SCB 
 406:/home/bekeband/workspace/OLIMEX_Start/src/core_cm3.h **** #define SCB_ICSR_ISRPREEMPT_Msk            (1UL << SCB_ICSR_ISRPREEMPT_Pos)               /*!< SCB 
 407:/home/bekeband/workspace/OLIMEX_Start/src/core_cm3.h **** 
 408:/home/bekeband/workspace/OLIMEX_Start/src/core_cm3.h **** #define SCB_ICSR_ISRPENDING_Pos            22                                             /*!< SCB 
 409:/home/bekeband/workspace/OLIMEX_Start/src/core_cm3.h **** #define SCB_ICSR_ISRPENDING_Msk            (1UL << SCB_ICSR_ISRPENDING_Pos)               /*!< SCB 
 410:/home/bekeband/workspace/OLIMEX_Start/src/core_cm3.h **** 
 411:/home/bekeband/workspace/OLIMEX_Start/src/core_cm3.h **** #define SCB_ICSR_VECTPENDING_Pos           12                                             /*!< SCB 
 412:/home/bekeband/workspace/OLIMEX_Start/src/core_cm3.h **** #define SCB_ICSR_VECTPENDING_Msk           (0x1FFUL << SCB_ICSR_VECTPENDING_Pos)          /*!< SCB 
 413:/home/bekeband/workspace/OLIMEX_Start/src/core_cm3.h **** 
 414:/home/bekeband/workspace/OLIMEX_Start/src/core_cm3.h **** #define SCB_ICSR_RETTOBASE_Pos             11                                             /*!< SCB 
 415:/home/bekeband/workspace/OLIMEX_Start/src/core_cm3.h **** #define SCB_ICSR_RETTOBASE_Msk             (1UL << SCB_ICSR_RETTOBASE_Pos)                /*!< SCB 
 416:/home/bekeband/workspace/OLIMEX_Start/src/core_cm3.h **** 
 417:/home/bekeband/workspace/OLIMEX_Start/src/core_cm3.h **** #define SCB_ICSR_VECTACTIVE_Pos             0                                             /*!< SCB 
 418:/home/bekeband/workspace/OLIMEX_Start/src/core_cm3.h **** #define SCB_ICSR_VECTACTIVE_Msk            (0x1FFUL << SCB_ICSR_VECTACTIVE_Pos)           /*!< SCB 
 419:/home/bekeband/workspace/OLIMEX_Start/src/core_cm3.h **** 
 420:/home/bekeband/workspace/OLIMEX_Start/src/core_cm3.h **** /* SCB Vector Table Offset Register Definitions */
 421:/home/bekeband/workspace/OLIMEX_Start/src/core_cm3.h **** #if (__CM3_REV < 0x0201)                   /* core r2p1 */
 422:/home/bekeband/workspace/OLIMEX_Start/src/core_cm3.h **** #define SCB_VTOR_TBLBASE_Pos               29                                             /*!< SCB 
 423:/home/bekeband/workspace/OLIMEX_Start/src/core_cm3.h **** #define SCB_VTOR_TBLBASE_Msk               (1UL << SCB_VTOR_TBLBASE_Pos)                  /*!< SCB 
 424:/home/bekeband/workspace/OLIMEX_Start/src/core_cm3.h **** 
 425:/home/bekeband/workspace/OLIMEX_Start/src/core_cm3.h **** #define SCB_VTOR_TBLOFF_Pos                 7                                             /*!< SCB 
 426:/home/bekeband/workspace/OLIMEX_Start/src/core_cm3.h **** #define SCB_VTOR_TBLOFF_Msk                (0x3FFFFFUL << SCB_VTOR_TBLOFF_Pos)            /*!< SCB 
 427:/home/bekeband/workspace/OLIMEX_Start/src/core_cm3.h **** #else
 428:/home/bekeband/workspace/OLIMEX_Start/src/core_cm3.h **** #define SCB_VTOR_TBLOFF_Pos                 7                                             /*!< SCB 
 429:/home/bekeband/workspace/OLIMEX_Start/src/core_cm3.h **** #define SCB_VTOR_TBLOFF_Msk                (0x1FFFFFFUL << SCB_VTOR_TBLOFF_Pos)           /*!< SCB 
 430:/home/bekeband/workspace/OLIMEX_Start/src/core_cm3.h **** #endif
 431:/home/bekeband/workspace/OLIMEX_Start/src/core_cm3.h **** 
 432:/home/bekeband/workspace/OLIMEX_Start/src/core_cm3.h **** /* SCB Application Interrupt and Reset Control Register Definitions */
 433:/home/bekeband/workspace/OLIMEX_Start/src/core_cm3.h **** #define SCB_AIRCR_VECTKEY_Pos              16                                             /*!< SCB 
 434:/home/bekeband/workspace/OLIMEX_Start/src/core_cm3.h **** #define SCB_AIRCR_VECTKEY_Msk              (0xFFFFUL << SCB_AIRCR_VECTKEY_Pos)            /*!< SCB 
 435:/home/bekeband/workspace/OLIMEX_Start/src/core_cm3.h **** 
 436:/home/bekeband/workspace/OLIMEX_Start/src/core_cm3.h **** #define SCB_AIRCR_VECTKEYSTAT_Pos          16                                             /*!< SCB 
 437:/home/bekeband/workspace/OLIMEX_Start/src/core_cm3.h **** #define SCB_AIRCR_VECTKEYSTAT_Msk          (0xFFFFUL << SCB_AIRCR_VECTKEYSTAT_Pos)        /*!< SCB 
 438:/home/bekeband/workspace/OLIMEX_Start/src/core_cm3.h **** 
 439:/home/bekeband/workspace/OLIMEX_Start/src/core_cm3.h **** #define SCB_AIRCR_ENDIANESS_Pos            15                                             /*!< SCB 
 440:/home/bekeband/workspace/OLIMEX_Start/src/core_cm3.h **** #define SCB_AIRCR_ENDIANESS_Msk            (1UL << SCB_AIRCR_ENDIANESS_Pos)               /*!< SCB 
 441:/home/bekeband/workspace/OLIMEX_Start/src/core_cm3.h **** 
 442:/home/bekeband/workspace/OLIMEX_Start/src/core_cm3.h **** #define SCB_AIRCR_PRIGROUP_Pos              8                                             /*!< SCB 
 443:/home/bekeband/workspace/OLIMEX_Start/src/core_cm3.h **** #define SCB_AIRCR_PRIGROUP_Msk             (7UL << SCB_AIRCR_PRIGROUP_Pos)                /*!< SCB 
 444:/home/bekeband/workspace/OLIMEX_Start/src/core_cm3.h **** 
 445:/home/bekeband/workspace/OLIMEX_Start/src/core_cm3.h **** #define SCB_AIRCR_SYSRESETREQ_Pos           2                                             /*!< SCB 
 446:/home/bekeband/workspace/OLIMEX_Start/src/core_cm3.h **** #define SCB_AIRCR_SYSRESETREQ_Msk          (1UL << SCB_AIRCR_SYSRESETREQ_Pos)             /*!< SCB 
 447:/home/bekeband/workspace/OLIMEX_Start/src/core_cm3.h **** 
 448:/home/bekeband/workspace/OLIMEX_Start/src/core_cm3.h **** #define SCB_AIRCR_VECTCLRACTIVE_Pos         1                                             /*!< SCB 
 449:/home/bekeband/workspace/OLIMEX_Start/src/core_cm3.h **** #define SCB_AIRCR_VECTCLRACTIVE_Msk        (1UL << SCB_AIRCR_VECTCLRACTIVE_Pos)           /*!< SCB 
 450:/home/bekeband/workspace/OLIMEX_Start/src/core_cm3.h **** 
 451:/home/bekeband/workspace/OLIMEX_Start/src/core_cm3.h **** #define SCB_AIRCR_VECTRESET_Pos             0                                             /*!< SCB 
 452:/home/bekeband/workspace/OLIMEX_Start/src/core_cm3.h **** #define SCB_AIRCR_VECTRESET_Msk            (1UL << SCB_AIRCR_VECTRESET_Pos)               /*!< SCB 
 453:/home/bekeband/workspace/OLIMEX_Start/src/core_cm3.h **** 
 454:/home/bekeband/workspace/OLIMEX_Start/src/core_cm3.h **** /* SCB System Control Register Definitions */
 455:/home/bekeband/workspace/OLIMEX_Start/src/core_cm3.h **** #define SCB_SCR_SEVONPEND_Pos               4                                             /*!< SCB 
 456:/home/bekeband/workspace/OLIMEX_Start/src/core_cm3.h **** #define SCB_SCR_SEVONPEND_Msk              (1UL << SCB_SCR_SEVONPEND_Pos)                 /*!< SCB 
 457:/home/bekeband/workspace/OLIMEX_Start/src/core_cm3.h **** 
 458:/home/bekeband/workspace/OLIMEX_Start/src/core_cm3.h **** #define SCB_SCR_SLEEPDEEP_Pos               2                                             /*!< SCB 
 459:/home/bekeband/workspace/OLIMEX_Start/src/core_cm3.h **** #define SCB_SCR_SLEEPDEEP_Msk              (1UL << SCB_SCR_SLEEPDEEP_Pos)                 /*!< SCB 
 460:/home/bekeband/workspace/OLIMEX_Start/src/core_cm3.h **** 
 461:/home/bekeband/workspace/OLIMEX_Start/src/core_cm3.h **** #define SCB_SCR_SLEEPONEXIT_Pos             1                                             /*!< SCB 
 462:/home/bekeband/workspace/OLIMEX_Start/src/core_cm3.h **** #define SCB_SCR_SLEEPONEXIT_Msk            (1UL << SCB_SCR_SLEEPONEXIT_Pos)               /*!< SCB 
 463:/home/bekeband/workspace/OLIMEX_Start/src/core_cm3.h **** 
 464:/home/bekeband/workspace/OLIMEX_Start/src/core_cm3.h **** /* SCB Configuration Control Register Definitions */
 465:/home/bekeband/workspace/OLIMEX_Start/src/core_cm3.h **** #define SCB_CCR_STKALIGN_Pos                9                                             /*!< SCB 
 466:/home/bekeband/workspace/OLIMEX_Start/src/core_cm3.h **** #define SCB_CCR_STKALIGN_Msk               (1UL << SCB_CCR_STKALIGN_Pos)                  /*!< SCB 
 467:/home/bekeband/workspace/OLIMEX_Start/src/core_cm3.h **** 
 468:/home/bekeband/workspace/OLIMEX_Start/src/core_cm3.h **** #define SCB_CCR_BFHFNMIGN_Pos               8                                             /*!< SCB 
 469:/home/bekeband/workspace/OLIMEX_Start/src/core_cm3.h **** #define SCB_CCR_BFHFNMIGN_Msk              (1UL << SCB_CCR_BFHFNMIGN_Pos)                 /*!< SCB 
 470:/home/bekeband/workspace/OLIMEX_Start/src/core_cm3.h **** 
 471:/home/bekeband/workspace/OLIMEX_Start/src/core_cm3.h **** #define SCB_CCR_DIV_0_TRP_Pos               4                                             /*!< SCB 
 472:/home/bekeband/workspace/OLIMEX_Start/src/core_cm3.h **** #define SCB_CCR_DIV_0_TRP_Msk              (1UL << SCB_CCR_DIV_0_TRP_Pos)                 /*!< SCB 
 473:/home/bekeband/workspace/OLIMEX_Start/src/core_cm3.h **** 
 474:/home/bekeband/workspace/OLIMEX_Start/src/core_cm3.h **** #define SCB_CCR_UNALIGN_TRP_Pos             3                                             /*!< SCB 
 475:/home/bekeband/workspace/OLIMEX_Start/src/core_cm3.h **** #define SCB_CCR_UNALIGN_TRP_Msk            (1UL << SCB_CCR_UNALIGN_TRP_Pos)               /*!< SCB 
 476:/home/bekeband/workspace/OLIMEX_Start/src/core_cm3.h **** 
 477:/home/bekeband/workspace/OLIMEX_Start/src/core_cm3.h **** #define SCB_CCR_USERSETMPEND_Pos            1                                             /*!< SCB 
 478:/home/bekeband/workspace/OLIMEX_Start/src/core_cm3.h **** #define SCB_CCR_USERSETMPEND_Msk           (1UL << SCB_CCR_USERSETMPEND_Pos)              /*!< SCB 
 479:/home/bekeband/workspace/OLIMEX_Start/src/core_cm3.h **** 
 480:/home/bekeband/workspace/OLIMEX_Start/src/core_cm3.h **** #define SCB_CCR_NONBASETHRDENA_Pos          0                                             /*!< SCB 
 481:/home/bekeband/workspace/OLIMEX_Start/src/core_cm3.h **** #define SCB_CCR_NONBASETHRDENA_Msk         (1UL << SCB_CCR_NONBASETHRDENA_Pos)            /*!< SCB 
 482:/home/bekeband/workspace/OLIMEX_Start/src/core_cm3.h **** 
 483:/home/bekeband/workspace/OLIMEX_Start/src/core_cm3.h **** /* SCB System Handler Control and State Register Definitions */
 484:/home/bekeband/workspace/OLIMEX_Start/src/core_cm3.h **** #define SCB_SHCSR_USGFAULTENA_Pos          18                                             /*!< SCB 
 485:/home/bekeband/workspace/OLIMEX_Start/src/core_cm3.h **** #define SCB_SHCSR_USGFAULTENA_Msk          (1UL << SCB_SHCSR_USGFAULTENA_Pos)             /*!< SCB 
 486:/home/bekeband/workspace/OLIMEX_Start/src/core_cm3.h **** 
 487:/home/bekeband/workspace/OLIMEX_Start/src/core_cm3.h **** #define SCB_SHCSR_BUSFAULTENA_Pos          17                                             /*!< SCB 
 488:/home/bekeband/workspace/OLIMEX_Start/src/core_cm3.h **** #define SCB_SHCSR_BUSFAULTENA_Msk          (1UL << SCB_SHCSR_BUSFAULTENA_Pos)             /*!< SCB 
 489:/home/bekeband/workspace/OLIMEX_Start/src/core_cm3.h **** 
 490:/home/bekeband/workspace/OLIMEX_Start/src/core_cm3.h **** #define SCB_SHCSR_MEMFAULTENA_Pos          16                                             /*!< SCB 
 491:/home/bekeband/workspace/OLIMEX_Start/src/core_cm3.h **** #define SCB_SHCSR_MEMFAULTENA_Msk          (1UL << SCB_SHCSR_MEMFAULTENA_Pos)             /*!< SCB 
 492:/home/bekeband/workspace/OLIMEX_Start/src/core_cm3.h **** 
 493:/home/bekeband/workspace/OLIMEX_Start/src/core_cm3.h **** #define SCB_SHCSR_SVCALLPENDED_Pos         15                                             /*!< SCB 
 494:/home/bekeband/workspace/OLIMEX_Start/src/core_cm3.h **** #define SCB_SHCSR_SVCALLPENDED_Msk         (1UL << SCB_SHCSR_SVCALLPENDED_Pos)            /*!< SCB 
 495:/home/bekeband/workspace/OLIMEX_Start/src/core_cm3.h **** 
 496:/home/bekeband/workspace/OLIMEX_Start/src/core_cm3.h **** #define SCB_SHCSR_BUSFAULTPENDED_Pos       14                                             /*!< SCB 
 497:/home/bekeband/workspace/OLIMEX_Start/src/core_cm3.h **** #define SCB_SHCSR_BUSFAULTPENDED_Msk       (1UL << SCB_SHCSR_BUSFAULTPENDED_Pos)          /*!< SCB 
 498:/home/bekeband/workspace/OLIMEX_Start/src/core_cm3.h **** 
 499:/home/bekeband/workspace/OLIMEX_Start/src/core_cm3.h **** #define SCB_SHCSR_MEMFAULTPENDED_Pos       13                                             /*!< SCB 
 500:/home/bekeband/workspace/OLIMEX_Start/src/core_cm3.h **** #define SCB_SHCSR_MEMFAULTPENDED_Msk       (1UL << SCB_SHCSR_MEMFAULTPENDED_Pos)          /*!< SCB 
 501:/home/bekeband/workspace/OLIMEX_Start/src/core_cm3.h **** 
 502:/home/bekeband/workspace/OLIMEX_Start/src/core_cm3.h **** #define SCB_SHCSR_USGFAULTPENDED_Pos       12                                             /*!< SCB 
 503:/home/bekeband/workspace/OLIMEX_Start/src/core_cm3.h **** #define SCB_SHCSR_USGFAULTPENDED_Msk       (1UL << SCB_SHCSR_USGFAULTPENDED_Pos)          /*!< SCB 
 504:/home/bekeband/workspace/OLIMEX_Start/src/core_cm3.h **** 
 505:/home/bekeband/workspace/OLIMEX_Start/src/core_cm3.h **** #define SCB_SHCSR_SYSTICKACT_Pos           11                                             /*!< SCB 
 506:/home/bekeband/workspace/OLIMEX_Start/src/core_cm3.h **** #define SCB_SHCSR_SYSTICKACT_Msk           (1UL << SCB_SHCSR_SYSTICKACT_Pos)              /*!< SCB 
 507:/home/bekeband/workspace/OLIMEX_Start/src/core_cm3.h **** 
 508:/home/bekeband/workspace/OLIMEX_Start/src/core_cm3.h **** #define SCB_SHCSR_PENDSVACT_Pos            10                                             /*!< SCB 
 509:/home/bekeband/workspace/OLIMEX_Start/src/core_cm3.h **** #define SCB_SHCSR_PENDSVACT_Msk            (1UL << SCB_SHCSR_PENDSVACT_Pos)               /*!< SCB 
 510:/home/bekeband/workspace/OLIMEX_Start/src/core_cm3.h **** 
 511:/home/bekeband/workspace/OLIMEX_Start/src/core_cm3.h **** #define SCB_SHCSR_MONITORACT_Pos            8                                             /*!< SCB 
 512:/home/bekeband/workspace/OLIMEX_Start/src/core_cm3.h **** #define SCB_SHCSR_MONITORACT_Msk           (1UL << SCB_SHCSR_MONITORACT_Pos)              /*!< SCB 
 513:/home/bekeband/workspace/OLIMEX_Start/src/core_cm3.h **** 
 514:/home/bekeband/workspace/OLIMEX_Start/src/core_cm3.h **** #define SCB_SHCSR_SVCALLACT_Pos             7                                             /*!< SCB 
 515:/home/bekeband/workspace/OLIMEX_Start/src/core_cm3.h **** #define SCB_SHCSR_SVCALLACT_Msk            (1UL << SCB_SHCSR_SVCALLACT_Pos)               /*!< SCB 
 516:/home/bekeband/workspace/OLIMEX_Start/src/core_cm3.h **** 
 517:/home/bekeband/workspace/OLIMEX_Start/src/core_cm3.h **** #define SCB_SHCSR_USGFAULTACT_Pos           3                                             /*!< SCB 
 518:/home/bekeband/workspace/OLIMEX_Start/src/core_cm3.h **** #define SCB_SHCSR_USGFAULTACT_Msk          (1UL << SCB_SHCSR_USGFAULTACT_Pos)             /*!< SCB 
 519:/home/bekeband/workspace/OLIMEX_Start/src/core_cm3.h **** 
 520:/home/bekeband/workspace/OLIMEX_Start/src/core_cm3.h **** #define SCB_SHCSR_BUSFAULTACT_Pos           1                                             /*!< SCB 
 521:/home/bekeband/workspace/OLIMEX_Start/src/core_cm3.h **** #define SCB_SHCSR_BUSFAULTACT_Msk          (1UL << SCB_SHCSR_BUSFAULTACT_Pos)             /*!< SCB 
 522:/home/bekeband/workspace/OLIMEX_Start/src/core_cm3.h **** 
 523:/home/bekeband/workspace/OLIMEX_Start/src/core_cm3.h **** #define SCB_SHCSR_MEMFAULTACT_Pos           0                                             /*!< SCB 
 524:/home/bekeband/workspace/OLIMEX_Start/src/core_cm3.h **** #define SCB_SHCSR_MEMFAULTACT_Msk          (1UL << SCB_SHCSR_MEMFAULTACT_Pos)             /*!< SCB 
 525:/home/bekeband/workspace/OLIMEX_Start/src/core_cm3.h **** 
 526:/home/bekeband/workspace/OLIMEX_Start/src/core_cm3.h **** /* SCB Configurable Fault Status Registers Definitions */
 527:/home/bekeband/workspace/OLIMEX_Start/src/core_cm3.h **** #define SCB_CFSR_USGFAULTSR_Pos            16                                             /*!< SCB 
 528:/home/bekeband/workspace/OLIMEX_Start/src/core_cm3.h **** #define SCB_CFSR_USGFAULTSR_Msk            (0xFFFFUL << SCB_CFSR_USGFAULTSR_Pos)          /*!< SCB 
 529:/home/bekeband/workspace/OLIMEX_Start/src/core_cm3.h **** 
 530:/home/bekeband/workspace/OLIMEX_Start/src/core_cm3.h **** #define SCB_CFSR_BUSFAULTSR_Pos             8                                             /*!< SCB 
 531:/home/bekeband/workspace/OLIMEX_Start/src/core_cm3.h **** #define SCB_CFSR_BUSFAULTSR_Msk            (0xFFUL << SCB_CFSR_BUSFAULTSR_Pos)            /*!< SCB 
 532:/home/bekeband/workspace/OLIMEX_Start/src/core_cm3.h **** 
 533:/home/bekeband/workspace/OLIMEX_Start/src/core_cm3.h **** #define SCB_CFSR_MEMFAULTSR_Pos             0                                             /*!< SCB 
 534:/home/bekeband/workspace/OLIMEX_Start/src/core_cm3.h **** #define SCB_CFSR_MEMFAULTSR_Msk            (0xFFUL << SCB_CFSR_MEMFAULTSR_Pos)            /*!< SCB 
 535:/home/bekeband/workspace/OLIMEX_Start/src/core_cm3.h **** 
 536:/home/bekeband/workspace/OLIMEX_Start/src/core_cm3.h **** /* SCB Hard Fault Status Registers Definitions */
 537:/home/bekeband/workspace/OLIMEX_Start/src/core_cm3.h **** #define SCB_HFSR_DEBUGEVT_Pos              31                                             /*!< SCB 
 538:/home/bekeband/workspace/OLIMEX_Start/src/core_cm3.h **** #define SCB_HFSR_DEBUGEVT_Msk              (1UL << SCB_HFSR_DEBUGEVT_Pos)                 /*!< SCB 
 539:/home/bekeband/workspace/OLIMEX_Start/src/core_cm3.h **** 
 540:/home/bekeband/workspace/OLIMEX_Start/src/core_cm3.h **** #define SCB_HFSR_FORCED_Pos                30                                             /*!< SCB 
 541:/home/bekeband/workspace/OLIMEX_Start/src/core_cm3.h **** #define SCB_HFSR_FORCED_Msk                (1UL << SCB_HFSR_FORCED_Pos)                   /*!< SCB 
 542:/home/bekeband/workspace/OLIMEX_Start/src/core_cm3.h **** 
 543:/home/bekeband/workspace/OLIMEX_Start/src/core_cm3.h **** #define SCB_HFSR_VECTTBL_Pos                1                                             /*!< SCB 
 544:/home/bekeband/workspace/OLIMEX_Start/src/core_cm3.h **** #define SCB_HFSR_VECTTBL_Msk               (1UL << SCB_HFSR_VECTTBL_Pos)                  /*!< SCB 
 545:/home/bekeband/workspace/OLIMEX_Start/src/core_cm3.h **** 
 546:/home/bekeband/workspace/OLIMEX_Start/src/core_cm3.h **** /* SCB Debug Fault Status Register Definitions */
 547:/home/bekeband/workspace/OLIMEX_Start/src/core_cm3.h **** #define SCB_DFSR_EXTERNAL_Pos               4                                             /*!< SCB 
 548:/home/bekeband/workspace/OLIMEX_Start/src/core_cm3.h **** #define SCB_DFSR_EXTERNAL_Msk              (1UL << SCB_DFSR_EXTERNAL_Pos)                 /*!< SCB 
 549:/home/bekeband/workspace/OLIMEX_Start/src/core_cm3.h **** 
 550:/home/bekeband/workspace/OLIMEX_Start/src/core_cm3.h **** #define SCB_DFSR_VCATCH_Pos                 3                                             /*!< SCB 
 551:/home/bekeband/workspace/OLIMEX_Start/src/core_cm3.h **** #define SCB_DFSR_VCATCH_Msk                (1UL << SCB_DFSR_VCATCH_Pos)                   /*!< SCB 
 552:/home/bekeband/workspace/OLIMEX_Start/src/core_cm3.h **** 
 553:/home/bekeband/workspace/OLIMEX_Start/src/core_cm3.h **** #define SCB_DFSR_DWTTRAP_Pos                2                                             /*!< SCB 
 554:/home/bekeband/workspace/OLIMEX_Start/src/core_cm3.h **** #define SCB_DFSR_DWTTRAP_Msk               (1UL << SCB_DFSR_DWTTRAP_Pos)                  /*!< SCB 
 555:/home/bekeband/workspace/OLIMEX_Start/src/core_cm3.h **** 
 556:/home/bekeband/workspace/OLIMEX_Start/src/core_cm3.h **** #define SCB_DFSR_BKPT_Pos                   1                                             /*!< SCB 
 557:/home/bekeband/workspace/OLIMEX_Start/src/core_cm3.h **** #define SCB_DFSR_BKPT_Msk                  (1UL << SCB_DFSR_BKPT_Pos)                     /*!< SCB 
 558:/home/bekeband/workspace/OLIMEX_Start/src/core_cm3.h **** 
 559:/home/bekeband/workspace/OLIMEX_Start/src/core_cm3.h **** #define SCB_DFSR_HALTED_Pos                 0                                             /*!< SCB 
 560:/home/bekeband/workspace/OLIMEX_Start/src/core_cm3.h **** #define SCB_DFSR_HALTED_Msk                (1UL << SCB_DFSR_HALTED_Pos)                   /*!< SCB 
 561:/home/bekeband/workspace/OLIMEX_Start/src/core_cm3.h **** 
 562:/home/bekeband/workspace/OLIMEX_Start/src/core_cm3.h **** /*@} end of group CMSIS_SCB */
 563:/home/bekeband/workspace/OLIMEX_Start/src/core_cm3.h **** 
 564:/home/bekeband/workspace/OLIMEX_Start/src/core_cm3.h **** 
 565:/home/bekeband/workspace/OLIMEX_Start/src/core_cm3.h **** /** \ingroup  CMSIS_core_register
 566:/home/bekeband/workspace/OLIMEX_Start/src/core_cm3.h ****     \defgroup CMSIS_SCnSCB System Controls not in SCB (SCnSCB)
 567:/home/bekeband/workspace/OLIMEX_Start/src/core_cm3.h ****     \brief      Type definitions for the System Control and ID Register not in the SCB
 568:/home/bekeband/workspace/OLIMEX_Start/src/core_cm3.h ****   @{
 569:/home/bekeband/workspace/OLIMEX_Start/src/core_cm3.h ****  */
 570:/home/bekeband/workspace/OLIMEX_Start/src/core_cm3.h **** 
 571:/home/bekeband/workspace/OLIMEX_Start/src/core_cm3.h **** /** \brief  Structure type to access the System Control and ID Register not in the SCB.
 572:/home/bekeband/workspace/OLIMEX_Start/src/core_cm3.h ****  */
 573:/home/bekeband/workspace/OLIMEX_Start/src/core_cm3.h **** typedef struct
 574:/home/bekeband/workspace/OLIMEX_Start/src/core_cm3.h **** {
 575:/home/bekeband/workspace/OLIMEX_Start/src/core_cm3.h ****        uint32_t RESERVED0[1];
 576:/home/bekeband/workspace/OLIMEX_Start/src/core_cm3.h ****   __I  uint32_t ICTR;                    /*!< Offset: 0x004 (R/ )  Interrupt Controller Type Regist
 577:/home/bekeband/workspace/OLIMEX_Start/src/core_cm3.h **** #if ((defined __CM3_REV) && (__CM3_REV >= 0x200))
 578:/home/bekeband/workspace/OLIMEX_Start/src/core_cm3.h ****   __IO uint32_t ACTLR;                   /*!< Offset: 0x008 (R/W)  Auxiliary Control Register      
 579:/home/bekeband/workspace/OLIMEX_Start/src/core_cm3.h **** #else
 580:/home/bekeband/workspace/OLIMEX_Start/src/core_cm3.h ****        uint32_t RESERVED1[1];
 581:/home/bekeband/workspace/OLIMEX_Start/src/core_cm3.h **** #endif
 582:/home/bekeband/workspace/OLIMEX_Start/src/core_cm3.h **** } SCnSCB_Type;
 583:/home/bekeband/workspace/OLIMEX_Start/src/core_cm3.h **** 
 584:/home/bekeband/workspace/OLIMEX_Start/src/core_cm3.h **** /* Interrupt Controller Type Register Definitions */
 585:/home/bekeband/workspace/OLIMEX_Start/src/core_cm3.h **** #define SCnSCB_ICTR_INTLINESNUM_Pos         0                                          /*!< ICTR: I
 586:/home/bekeband/workspace/OLIMEX_Start/src/core_cm3.h **** #define SCnSCB_ICTR_INTLINESNUM_Msk        (0xFUL << SCnSCB_ICTR_INTLINESNUM_Pos)      /*!< ICTR: I
 587:/home/bekeband/workspace/OLIMEX_Start/src/core_cm3.h **** 
 588:/home/bekeband/workspace/OLIMEX_Start/src/core_cm3.h **** /* Auxiliary Control Register Definitions */
 589:/home/bekeband/workspace/OLIMEX_Start/src/core_cm3.h **** 
 590:/home/bekeband/workspace/OLIMEX_Start/src/core_cm3.h **** #define SCnSCB_ACTLR_DISFOLD_Pos            2                                          /*!< ACTLR: 
 591:/home/bekeband/workspace/OLIMEX_Start/src/core_cm3.h **** #define SCnSCB_ACTLR_DISFOLD_Msk           (1UL << SCnSCB_ACTLR_DISFOLD_Pos)           /*!< ACTLR: 
 592:/home/bekeband/workspace/OLIMEX_Start/src/core_cm3.h **** 
 593:/home/bekeband/workspace/OLIMEX_Start/src/core_cm3.h **** #define SCnSCB_ACTLR_DISDEFWBUF_Pos         1                                          /*!< ACTLR: 
 594:/home/bekeband/workspace/OLIMEX_Start/src/core_cm3.h **** #define SCnSCB_ACTLR_DISDEFWBUF_Msk        (1UL << SCnSCB_ACTLR_DISDEFWBUF_Pos)        /*!< ACTLR: 
 595:/home/bekeband/workspace/OLIMEX_Start/src/core_cm3.h **** 
 596:/home/bekeband/workspace/OLIMEX_Start/src/core_cm3.h **** #define SCnSCB_ACTLR_DISMCYCINT_Pos         0                                          /*!< ACTLR: 
 597:/home/bekeband/workspace/OLIMEX_Start/src/core_cm3.h **** #define SCnSCB_ACTLR_DISMCYCINT_Msk        (1UL << SCnSCB_ACTLR_DISMCYCINT_Pos)        /*!< ACTLR: 
 598:/home/bekeband/workspace/OLIMEX_Start/src/core_cm3.h **** 
 599:/home/bekeband/workspace/OLIMEX_Start/src/core_cm3.h **** /*@} end of group CMSIS_SCnotSCB */
 600:/home/bekeband/workspace/OLIMEX_Start/src/core_cm3.h **** 
 601:/home/bekeband/workspace/OLIMEX_Start/src/core_cm3.h **** 
 602:/home/bekeband/workspace/OLIMEX_Start/src/core_cm3.h **** /** \ingroup  CMSIS_core_register
 603:/home/bekeband/workspace/OLIMEX_Start/src/core_cm3.h ****     \defgroup CMSIS_SysTick     System Tick Timer (SysTick)
 604:/home/bekeband/workspace/OLIMEX_Start/src/core_cm3.h ****     \brief      Type definitions for the System Timer Registers.
 605:/home/bekeband/workspace/OLIMEX_Start/src/core_cm3.h ****   @{
 606:/home/bekeband/workspace/OLIMEX_Start/src/core_cm3.h ****  */
 607:/home/bekeband/workspace/OLIMEX_Start/src/core_cm3.h **** 
 608:/home/bekeband/workspace/OLIMEX_Start/src/core_cm3.h **** /** \brief  Structure type to access the System Timer (SysTick).
 609:/home/bekeband/workspace/OLIMEX_Start/src/core_cm3.h ****  */
 610:/home/bekeband/workspace/OLIMEX_Start/src/core_cm3.h **** typedef struct
 611:/home/bekeband/workspace/OLIMEX_Start/src/core_cm3.h **** {
 612:/home/bekeband/workspace/OLIMEX_Start/src/core_cm3.h ****   __IO uint32_t CTRL;                    /*!< Offset: 0x000 (R/W)  SysTick Control and Status Regis
 613:/home/bekeband/workspace/OLIMEX_Start/src/core_cm3.h ****   __IO uint32_t LOAD;                    /*!< Offset: 0x004 (R/W)  SysTick Reload Value Register   
 614:/home/bekeband/workspace/OLIMEX_Start/src/core_cm3.h ****   __IO uint32_t VAL;                     /*!< Offset: 0x008 (R/W)  SysTick Current Value Register  
 615:/home/bekeband/workspace/OLIMEX_Start/src/core_cm3.h ****   __I  uint32_t CALIB;                   /*!< Offset: 0x00C (R/ )  SysTick Calibration Register    
 616:/home/bekeband/workspace/OLIMEX_Start/src/core_cm3.h **** } SysTick_Type;
 617:/home/bekeband/workspace/OLIMEX_Start/src/core_cm3.h **** 
 618:/home/bekeband/workspace/OLIMEX_Start/src/core_cm3.h **** /* SysTick Control / Status Register Definitions */
 619:/home/bekeband/workspace/OLIMEX_Start/src/core_cm3.h **** #define SysTick_CTRL_COUNTFLAG_Pos         16                                             /*!< SysT
 620:/home/bekeband/workspace/OLIMEX_Start/src/core_cm3.h **** #define SysTick_CTRL_COUNTFLAG_Msk         (1UL << SysTick_CTRL_COUNTFLAG_Pos)            /*!< SysT
 621:/home/bekeband/workspace/OLIMEX_Start/src/core_cm3.h **** 
 622:/home/bekeband/workspace/OLIMEX_Start/src/core_cm3.h **** #define SysTick_CTRL_CLKSOURCE_Pos          2                                             /*!< SysT
 623:/home/bekeband/workspace/OLIMEX_Start/src/core_cm3.h **** #define SysTick_CTRL_CLKSOURCE_Msk         (1UL << SysTick_CTRL_CLKSOURCE_Pos)            /*!< SysT
 624:/home/bekeband/workspace/OLIMEX_Start/src/core_cm3.h **** 
 625:/home/bekeband/workspace/OLIMEX_Start/src/core_cm3.h **** #define SysTick_CTRL_TICKINT_Pos            1                                             /*!< SysT
 626:/home/bekeband/workspace/OLIMEX_Start/src/core_cm3.h **** #define SysTick_CTRL_TICKINT_Msk           (1UL << SysTick_CTRL_TICKINT_Pos)              /*!< SysT
 627:/home/bekeband/workspace/OLIMEX_Start/src/core_cm3.h **** 
 628:/home/bekeband/workspace/OLIMEX_Start/src/core_cm3.h **** #define SysTick_CTRL_ENABLE_Pos             0                                             /*!< SysT
 629:/home/bekeband/workspace/OLIMEX_Start/src/core_cm3.h **** #define SysTick_CTRL_ENABLE_Msk            (1UL << SysTick_CTRL_ENABLE_Pos)               /*!< SysT
 630:/home/bekeband/workspace/OLIMEX_Start/src/core_cm3.h **** 
 631:/home/bekeband/workspace/OLIMEX_Start/src/core_cm3.h **** /* SysTick Reload Register Definitions */
 632:/home/bekeband/workspace/OLIMEX_Start/src/core_cm3.h **** #define SysTick_LOAD_RELOAD_Pos             0                                             /*!< SysT
 633:/home/bekeband/workspace/OLIMEX_Start/src/core_cm3.h **** #define SysTick_LOAD_RELOAD_Msk            (0xFFFFFFUL << SysTick_LOAD_RELOAD_Pos)        /*!< SysT
 634:/home/bekeband/workspace/OLIMEX_Start/src/core_cm3.h **** 
 635:/home/bekeband/workspace/OLIMEX_Start/src/core_cm3.h **** /* SysTick Current Register Definitions */
 636:/home/bekeband/workspace/OLIMEX_Start/src/core_cm3.h **** #define SysTick_VAL_CURRENT_Pos             0                                             /*!< SysT
 637:/home/bekeband/workspace/OLIMEX_Start/src/core_cm3.h **** #define SysTick_VAL_CURRENT_Msk            (0xFFFFFFUL << SysTick_VAL_CURRENT_Pos)        /*!< SysT
 638:/home/bekeband/workspace/OLIMEX_Start/src/core_cm3.h **** 
 639:/home/bekeband/workspace/OLIMEX_Start/src/core_cm3.h **** /* SysTick Calibration Register Definitions */
 640:/home/bekeband/workspace/OLIMEX_Start/src/core_cm3.h **** #define SysTick_CALIB_NOREF_Pos            31                                             /*!< SysT
 641:/home/bekeband/workspace/OLIMEX_Start/src/core_cm3.h **** #define SysTick_CALIB_NOREF_Msk            (1UL << SysTick_CALIB_NOREF_Pos)               /*!< SysT
 642:/home/bekeband/workspace/OLIMEX_Start/src/core_cm3.h **** 
 643:/home/bekeband/workspace/OLIMEX_Start/src/core_cm3.h **** #define SysTick_CALIB_SKEW_Pos             30                                             /*!< SysT
 644:/home/bekeband/workspace/OLIMEX_Start/src/core_cm3.h **** #define SysTick_CALIB_SKEW_Msk             (1UL << SysTick_CALIB_SKEW_Pos)                /*!< SysT
 645:/home/bekeband/workspace/OLIMEX_Start/src/core_cm3.h **** 
 646:/home/bekeband/workspace/OLIMEX_Start/src/core_cm3.h **** #define SysTick_CALIB_TENMS_Pos             0                                             /*!< SysT
 647:/home/bekeband/workspace/OLIMEX_Start/src/core_cm3.h **** #define SysTick_CALIB_TENMS_Msk            (0xFFFFFFUL << SysTick_CALIB_TENMS_Pos)        /*!< SysT
 648:/home/bekeband/workspace/OLIMEX_Start/src/core_cm3.h **** 
 649:/home/bekeband/workspace/OLIMEX_Start/src/core_cm3.h **** /*@} end of group CMSIS_SysTick */
 650:/home/bekeband/workspace/OLIMEX_Start/src/core_cm3.h **** 
 651:/home/bekeband/workspace/OLIMEX_Start/src/core_cm3.h **** 
 652:/home/bekeband/workspace/OLIMEX_Start/src/core_cm3.h **** /** \ingroup  CMSIS_core_register
 653:/home/bekeband/workspace/OLIMEX_Start/src/core_cm3.h ****     \defgroup CMSIS_ITM     Instrumentation Trace Macrocell (ITM)
 654:/home/bekeband/workspace/OLIMEX_Start/src/core_cm3.h ****     \brief      Type definitions for the Instrumentation Trace Macrocell (ITM)
 655:/home/bekeband/workspace/OLIMEX_Start/src/core_cm3.h ****   @{
 656:/home/bekeband/workspace/OLIMEX_Start/src/core_cm3.h ****  */
 657:/home/bekeband/workspace/OLIMEX_Start/src/core_cm3.h **** 
 658:/home/bekeband/workspace/OLIMEX_Start/src/core_cm3.h **** /** \brief  Structure type to access the Instrumentation Trace Macrocell Register (ITM).
 659:/home/bekeband/workspace/OLIMEX_Start/src/core_cm3.h ****  */
 660:/home/bekeband/workspace/OLIMEX_Start/src/core_cm3.h **** typedef struct
 661:/home/bekeband/workspace/OLIMEX_Start/src/core_cm3.h **** {
 662:/home/bekeband/workspace/OLIMEX_Start/src/core_cm3.h ****   __O  union
 663:/home/bekeband/workspace/OLIMEX_Start/src/core_cm3.h ****   {
 664:/home/bekeband/workspace/OLIMEX_Start/src/core_cm3.h ****     __O  uint8_t    u8;                  /*!< Offset: 0x000 ( /W)  ITM Stimulus Port 8-bit         
 665:/home/bekeband/workspace/OLIMEX_Start/src/core_cm3.h ****     __O  uint16_t   u16;                 /*!< Offset: 0x000 ( /W)  ITM Stimulus Port 16-bit        
 666:/home/bekeband/workspace/OLIMEX_Start/src/core_cm3.h ****     __O  uint32_t   u32;                 /*!< Offset: 0x000 ( /W)  ITM Stimulus Port 32-bit        
 667:/home/bekeband/workspace/OLIMEX_Start/src/core_cm3.h ****   }  PORT [32];                          /*!< Offset: 0x000 ( /W)  ITM Stimulus Port Registers     
 668:/home/bekeband/workspace/OLIMEX_Start/src/core_cm3.h ****        uint32_t RESERVED0[864];
 669:/home/bekeband/workspace/OLIMEX_Start/src/core_cm3.h ****   __IO uint32_t TER;                     /*!< Offset: 0xE00 (R/W)  ITM Trace Enable Register       
 670:/home/bekeband/workspace/OLIMEX_Start/src/core_cm3.h ****        uint32_t RESERVED1[15];
 671:/home/bekeband/workspace/OLIMEX_Start/src/core_cm3.h ****   __IO uint32_t TPR;                     /*!< Offset: 0xE40 (R/W)  ITM Trace Privilege Register    
 672:/home/bekeband/workspace/OLIMEX_Start/src/core_cm3.h ****        uint32_t RESERVED2[15];
 673:/home/bekeband/workspace/OLIMEX_Start/src/core_cm3.h ****   __IO uint32_t TCR;                     /*!< Offset: 0xE80 (R/W)  ITM Trace Control Register      
 674:/home/bekeband/workspace/OLIMEX_Start/src/core_cm3.h ****        uint32_t RESERVED3[29];
 675:/home/bekeband/workspace/OLIMEX_Start/src/core_cm3.h ****   __O  uint32_t IWR;                     /*!< Offset: 0xEF8 ( /W)  ITM Integration Write Register  
 676:/home/bekeband/workspace/OLIMEX_Start/src/core_cm3.h ****   __I  uint32_t IRR;                     /*!< Offset: 0xEFC (R/ )  ITM Integration Read Register   
 677:/home/bekeband/workspace/OLIMEX_Start/src/core_cm3.h ****   __IO uint32_t IMCR;                    /*!< Offset: 0xF00 (R/W)  ITM Integration Mode Control Reg
 678:/home/bekeband/workspace/OLIMEX_Start/src/core_cm3.h ****        uint32_t RESERVED4[43];
 679:/home/bekeband/workspace/OLIMEX_Start/src/core_cm3.h ****   __O  uint32_t LAR;                     /*!< Offset: 0xFB0 ( /W)  ITM Lock Access Register        
 680:/home/bekeband/workspace/OLIMEX_Start/src/core_cm3.h ****   __I  uint32_t LSR;                     /*!< Offset: 0xFB4 (R/ )  ITM Lock Status Register        
 681:/home/bekeband/workspace/OLIMEX_Start/src/core_cm3.h ****        uint32_t RESERVED5[6];
 682:/home/bekeband/workspace/OLIMEX_Start/src/core_cm3.h ****   __I  uint32_t PID4;                    /*!< Offset: 0xFD0 (R/ )  ITM Peripheral Identification Re
 683:/home/bekeband/workspace/OLIMEX_Start/src/core_cm3.h ****   __I  uint32_t PID5;                    /*!< Offset: 0xFD4 (R/ )  ITM Peripheral Identification Re
 684:/home/bekeband/workspace/OLIMEX_Start/src/core_cm3.h ****   __I  uint32_t PID6;                    /*!< Offset: 0xFD8 (R/ )  ITM Peripheral Identification Re
 685:/home/bekeband/workspace/OLIMEX_Start/src/core_cm3.h ****   __I  uint32_t PID7;                    /*!< Offset: 0xFDC (R/ )  ITM Peripheral Identification Re
 686:/home/bekeband/workspace/OLIMEX_Start/src/core_cm3.h ****   __I  uint32_t PID0;                    /*!< Offset: 0xFE0 (R/ )  ITM Peripheral Identification Re
 687:/home/bekeband/workspace/OLIMEX_Start/src/core_cm3.h ****   __I  uint32_t PID1;                    /*!< Offset: 0xFE4 (R/ )  ITM Peripheral Identification Re
 688:/home/bekeband/workspace/OLIMEX_Start/src/core_cm3.h ****   __I  uint32_t PID2;                    /*!< Offset: 0xFE8 (R/ )  ITM Peripheral Identification Re
 689:/home/bekeband/workspace/OLIMEX_Start/src/core_cm3.h ****   __I  uint32_t PID3;                    /*!< Offset: 0xFEC (R/ )  ITM Peripheral Identification Re
 690:/home/bekeband/workspace/OLIMEX_Start/src/core_cm3.h ****   __I  uint32_t CID0;                    /*!< Offset: 0xFF0 (R/ )  ITM Component  Identification Re
 691:/home/bekeband/workspace/OLIMEX_Start/src/core_cm3.h ****   __I  uint32_t CID1;                    /*!< Offset: 0xFF4 (R/ )  ITM Component  Identification Re
 692:/home/bekeband/workspace/OLIMEX_Start/src/core_cm3.h ****   __I  uint32_t CID2;                    /*!< Offset: 0xFF8 (R/ )  ITM Component  Identification Re
 693:/home/bekeband/workspace/OLIMEX_Start/src/core_cm3.h ****   __I  uint32_t CID3;                    /*!< Offset: 0xFFC (R/ )  ITM Component  Identification Re
 694:/home/bekeband/workspace/OLIMEX_Start/src/core_cm3.h **** } ITM_Type;
 695:/home/bekeband/workspace/OLIMEX_Start/src/core_cm3.h **** 
 696:/home/bekeband/workspace/OLIMEX_Start/src/core_cm3.h **** /* ITM Trace Privilege Register Definitions */
 697:/home/bekeband/workspace/OLIMEX_Start/src/core_cm3.h **** #define ITM_TPR_PRIVMASK_Pos                0                                             /*!< ITM 
 698:/home/bekeband/workspace/OLIMEX_Start/src/core_cm3.h **** #define ITM_TPR_PRIVMASK_Msk               (0xFUL << ITM_TPR_PRIVMASK_Pos)                /*!< ITM 
 699:/home/bekeband/workspace/OLIMEX_Start/src/core_cm3.h **** 
 700:/home/bekeband/workspace/OLIMEX_Start/src/core_cm3.h **** /* ITM Trace Control Register Definitions */
 701:/home/bekeband/workspace/OLIMEX_Start/src/core_cm3.h **** #define ITM_TCR_BUSY_Pos                   23                                             /*!< ITM 
 702:/home/bekeband/workspace/OLIMEX_Start/src/core_cm3.h **** #define ITM_TCR_BUSY_Msk                   (1UL << ITM_TCR_BUSY_Pos)                      /*!< ITM 
 703:/home/bekeband/workspace/OLIMEX_Start/src/core_cm3.h **** 
 704:/home/bekeband/workspace/OLIMEX_Start/src/core_cm3.h **** #define ITM_TCR_TraceBusID_Pos             16                                             /*!< ITM 
 705:/home/bekeband/workspace/OLIMEX_Start/src/core_cm3.h **** #define ITM_TCR_TraceBusID_Msk             (0x7FUL << ITM_TCR_TraceBusID_Pos)             /*!< ITM 
 706:/home/bekeband/workspace/OLIMEX_Start/src/core_cm3.h **** 
 707:/home/bekeband/workspace/OLIMEX_Start/src/core_cm3.h **** #define ITM_TCR_GTSFREQ_Pos                10                                             /*!< ITM 
 708:/home/bekeband/workspace/OLIMEX_Start/src/core_cm3.h **** #define ITM_TCR_GTSFREQ_Msk                (3UL << ITM_TCR_GTSFREQ_Pos)                   /*!< ITM 
 709:/home/bekeband/workspace/OLIMEX_Start/src/core_cm3.h **** 
 710:/home/bekeband/workspace/OLIMEX_Start/src/core_cm3.h **** #define ITM_TCR_TSPrescale_Pos              8                                             /*!< ITM 
 711:/home/bekeband/workspace/OLIMEX_Start/src/core_cm3.h **** #define ITM_TCR_TSPrescale_Msk             (3UL << ITM_TCR_TSPrescale_Pos)                /*!< ITM 
 712:/home/bekeband/workspace/OLIMEX_Start/src/core_cm3.h **** 
 713:/home/bekeband/workspace/OLIMEX_Start/src/core_cm3.h **** #define ITM_TCR_SWOENA_Pos                  4                                             /*!< ITM 
 714:/home/bekeband/workspace/OLIMEX_Start/src/core_cm3.h **** #define ITM_TCR_SWOENA_Msk                 (1UL << ITM_TCR_SWOENA_Pos)                    /*!< ITM 
 715:/home/bekeband/workspace/OLIMEX_Start/src/core_cm3.h **** 
 716:/home/bekeband/workspace/OLIMEX_Start/src/core_cm3.h **** #define ITM_TCR_DWTENA_Pos                  3                                             /*!< ITM 
 717:/home/bekeband/workspace/OLIMEX_Start/src/core_cm3.h **** #define ITM_TCR_DWTENA_Msk                 (1UL << ITM_TCR_DWTENA_Pos)                    /*!< ITM 
 718:/home/bekeband/workspace/OLIMEX_Start/src/core_cm3.h **** 
 719:/home/bekeband/workspace/OLIMEX_Start/src/core_cm3.h **** #define ITM_TCR_SYNCENA_Pos                 2                                             /*!< ITM 
 720:/home/bekeband/workspace/OLIMEX_Start/src/core_cm3.h **** #define ITM_TCR_SYNCENA_Msk                (1UL << ITM_TCR_SYNCENA_Pos)                   /*!< ITM 
 721:/home/bekeband/workspace/OLIMEX_Start/src/core_cm3.h **** 
 722:/home/bekeband/workspace/OLIMEX_Start/src/core_cm3.h **** #define ITM_TCR_TSENA_Pos                   1                                             /*!< ITM 
 723:/home/bekeband/workspace/OLIMEX_Start/src/core_cm3.h **** #define ITM_TCR_TSENA_Msk                  (1UL << ITM_TCR_TSENA_Pos)                     /*!< ITM 
 724:/home/bekeband/workspace/OLIMEX_Start/src/core_cm3.h **** 
 725:/home/bekeband/workspace/OLIMEX_Start/src/core_cm3.h **** #define ITM_TCR_ITMENA_Pos                  0                                             /*!< ITM 
 726:/home/bekeband/workspace/OLIMEX_Start/src/core_cm3.h **** #define ITM_TCR_ITMENA_Msk                 (1UL << ITM_TCR_ITMENA_Pos)                    /*!< ITM 
 727:/home/bekeband/workspace/OLIMEX_Start/src/core_cm3.h **** 
 728:/home/bekeband/workspace/OLIMEX_Start/src/core_cm3.h **** /* ITM Integration Write Register Definitions */
 729:/home/bekeband/workspace/OLIMEX_Start/src/core_cm3.h **** #define ITM_IWR_ATVALIDM_Pos                0                                             /*!< ITM 
 730:/home/bekeband/workspace/OLIMEX_Start/src/core_cm3.h **** #define ITM_IWR_ATVALIDM_Msk               (1UL << ITM_IWR_ATVALIDM_Pos)                  /*!< ITM 
 731:/home/bekeband/workspace/OLIMEX_Start/src/core_cm3.h **** 
 732:/home/bekeband/workspace/OLIMEX_Start/src/core_cm3.h **** /* ITM Integration Read Register Definitions */
 733:/home/bekeband/workspace/OLIMEX_Start/src/core_cm3.h **** #define ITM_IRR_ATREADYM_Pos                0                                             /*!< ITM 
 734:/home/bekeband/workspace/OLIMEX_Start/src/core_cm3.h **** #define ITM_IRR_ATREADYM_Msk               (1UL << ITM_IRR_ATREADYM_Pos)                  /*!< ITM 
 735:/home/bekeband/workspace/OLIMEX_Start/src/core_cm3.h **** 
 736:/home/bekeband/workspace/OLIMEX_Start/src/core_cm3.h **** /* ITM Integration Mode Control Register Definitions */
 737:/home/bekeband/workspace/OLIMEX_Start/src/core_cm3.h **** #define ITM_IMCR_INTEGRATION_Pos            0                                             /*!< ITM 
 738:/home/bekeband/workspace/OLIMEX_Start/src/core_cm3.h **** #define ITM_IMCR_INTEGRATION_Msk           (1UL << ITM_IMCR_INTEGRATION_Pos)              /*!< ITM 
 739:/home/bekeband/workspace/OLIMEX_Start/src/core_cm3.h **** 
 740:/home/bekeband/workspace/OLIMEX_Start/src/core_cm3.h **** /* ITM Lock Status Register Definitions */
 741:/home/bekeband/workspace/OLIMEX_Start/src/core_cm3.h **** #define ITM_LSR_ByteAcc_Pos                 2                                             /*!< ITM 
 742:/home/bekeband/workspace/OLIMEX_Start/src/core_cm3.h **** #define ITM_LSR_ByteAcc_Msk                (1UL << ITM_LSR_ByteAcc_Pos)                   /*!< ITM 
 743:/home/bekeband/workspace/OLIMEX_Start/src/core_cm3.h **** 
 744:/home/bekeband/workspace/OLIMEX_Start/src/core_cm3.h **** #define ITM_LSR_Access_Pos                  1                                             /*!< ITM 
 745:/home/bekeband/workspace/OLIMEX_Start/src/core_cm3.h **** #define ITM_LSR_Access_Msk                 (1UL << ITM_LSR_Access_Pos)                    /*!< ITM 
 746:/home/bekeband/workspace/OLIMEX_Start/src/core_cm3.h **** 
 747:/home/bekeband/workspace/OLIMEX_Start/src/core_cm3.h **** #define ITM_LSR_Present_Pos                 0                                             /*!< ITM 
 748:/home/bekeband/workspace/OLIMEX_Start/src/core_cm3.h **** #define ITM_LSR_Present_Msk                (1UL << ITM_LSR_Present_Pos)                   /*!< ITM 
 749:/home/bekeband/workspace/OLIMEX_Start/src/core_cm3.h **** 
 750:/home/bekeband/workspace/OLIMEX_Start/src/core_cm3.h **** /*@}*/ /* end of group CMSIS_ITM */
 751:/home/bekeband/workspace/OLIMEX_Start/src/core_cm3.h **** 
 752:/home/bekeband/workspace/OLIMEX_Start/src/core_cm3.h **** 
 753:/home/bekeband/workspace/OLIMEX_Start/src/core_cm3.h **** /** \ingroup  CMSIS_core_register
 754:/home/bekeband/workspace/OLIMEX_Start/src/core_cm3.h ****     \defgroup CMSIS_DWT     Data Watchpoint and Trace (DWT)
 755:/home/bekeband/workspace/OLIMEX_Start/src/core_cm3.h ****     \brief      Type definitions for the Data Watchpoint and Trace (DWT)
 756:/home/bekeband/workspace/OLIMEX_Start/src/core_cm3.h ****   @{
 757:/home/bekeband/workspace/OLIMEX_Start/src/core_cm3.h ****  */
 758:/home/bekeband/workspace/OLIMEX_Start/src/core_cm3.h **** 
 759:/home/bekeband/workspace/OLIMEX_Start/src/core_cm3.h **** /** \brief  Structure type to access the Data Watchpoint and Trace Register (DWT).
 760:/home/bekeband/workspace/OLIMEX_Start/src/core_cm3.h ****  */
 761:/home/bekeband/workspace/OLIMEX_Start/src/core_cm3.h **** typedef struct
 762:/home/bekeband/workspace/OLIMEX_Start/src/core_cm3.h **** {
 763:/home/bekeband/workspace/OLIMEX_Start/src/core_cm3.h ****   __IO uint32_t CTRL;                    /*!< Offset: 0x000 (R/W)  Control Register                
 764:/home/bekeband/workspace/OLIMEX_Start/src/core_cm3.h ****   __IO uint32_t CYCCNT;                  /*!< Offset: 0x004 (R/W)  Cycle Count Register            
 765:/home/bekeband/workspace/OLIMEX_Start/src/core_cm3.h ****   __IO uint32_t CPICNT;                  /*!< Offset: 0x008 (R/W)  CPI Count Register              
 766:/home/bekeband/workspace/OLIMEX_Start/src/core_cm3.h ****   __IO uint32_t EXCCNT;                  /*!< Offset: 0x00C (R/W)  Exception Overhead Count Registe
 767:/home/bekeband/workspace/OLIMEX_Start/src/core_cm3.h ****   __IO uint32_t SLEEPCNT;                /*!< Offset: 0x010 (R/W)  Sleep Count Register            
 768:/home/bekeband/workspace/OLIMEX_Start/src/core_cm3.h ****   __IO uint32_t LSUCNT;                  /*!< Offset: 0x014 (R/W)  LSU Count Register              
 769:/home/bekeband/workspace/OLIMEX_Start/src/core_cm3.h ****   __IO uint32_t FOLDCNT;                 /*!< Offset: 0x018 (R/W)  Folded-instruction Count Registe
 770:/home/bekeband/workspace/OLIMEX_Start/src/core_cm3.h ****   __I  uint32_t PCSR;                    /*!< Offset: 0x01C (R/ )  Program Counter Sample Register 
 771:/home/bekeband/workspace/OLIMEX_Start/src/core_cm3.h ****   __IO uint32_t COMP0;                   /*!< Offset: 0x020 (R/W)  Comparator Register 0           
 772:/home/bekeband/workspace/OLIMEX_Start/src/core_cm3.h ****   __IO uint32_t MASK0;                   /*!< Offset: 0x024 (R/W)  Mask Register 0                 
 773:/home/bekeband/workspace/OLIMEX_Start/src/core_cm3.h ****   __IO uint32_t FUNCTION0;               /*!< Offset: 0x028 (R/W)  Function Register 0             
 774:/home/bekeband/workspace/OLIMEX_Start/src/core_cm3.h ****        uint32_t RESERVED0[1];
 775:/home/bekeband/workspace/OLIMEX_Start/src/core_cm3.h ****   __IO uint32_t COMP1;                   /*!< Offset: 0x030 (R/W)  Comparator Register 1           
 776:/home/bekeband/workspace/OLIMEX_Start/src/core_cm3.h ****   __IO uint32_t MASK1;                   /*!< Offset: 0x034 (R/W)  Mask Register 1                 
 777:/home/bekeband/workspace/OLIMEX_Start/src/core_cm3.h ****   __IO uint32_t FUNCTION1;               /*!< Offset: 0x038 (R/W)  Function Register 1             
 778:/home/bekeband/workspace/OLIMEX_Start/src/core_cm3.h ****        uint32_t RESERVED1[1];
 779:/home/bekeband/workspace/OLIMEX_Start/src/core_cm3.h ****   __IO uint32_t COMP2;                   /*!< Offset: 0x040 (R/W)  Comparator Register 2           
 780:/home/bekeband/workspace/OLIMEX_Start/src/core_cm3.h ****   __IO uint32_t MASK2;                   /*!< Offset: 0x044 (R/W)  Mask Register 2                 
 781:/home/bekeband/workspace/OLIMEX_Start/src/core_cm3.h ****   __IO uint32_t FUNCTION2;               /*!< Offset: 0x048 (R/W)  Function Register 2             
 782:/home/bekeband/workspace/OLIMEX_Start/src/core_cm3.h ****        uint32_t RESERVED2[1];
 783:/home/bekeband/workspace/OLIMEX_Start/src/core_cm3.h ****   __IO uint32_t COMP3;                   /*!< Offset: 0x050 (R/W)  Comparator Register 3           
 784:/home/bekeband/workspace/OLIMEX_Start/src/core_cm3.h ****   __IO uint32_t MASK3;                   /*!< Offset: 0x054 (R/W)  Mask Register 3                 
 785:/home/bekeband/workspace/OLIMEX_Start/src/core_cm3.h ****   __IO uint32_t FUNCTION3;               /*!< Offset: 0x058 (R/W)  Function Register 3             
 786:/home/bekeband/workspace/OLIMEX_Start/src/core_cm3.h **** } DWT_Type;
 787:/home/bekeband/workspace/OLIMEX_Start/src/core_cm3.h **** 
 788:/home/bekeband/workspace/OLIMEX_Start/src/core_cm3.h **** /* DWT Control Register Definitions */
 789:/home/bekeband/workspace/OLIMEX_Start/src/core_cm3.h **** #define DWT_CTRL_NUMCOMP_Pos               28                                          /*!< DWT CTR
 790:/home/bekeband/workspace/OLIMEX_Start/src/core_cm3.h **** #define DWT_CTRL_NUMCOMP_Msk               (0xFUL << DWT_CTRL_NUMCOMP_Pos)             /*!< DWT CTR
 791:/home/bekeband/workspace/OLIMEX_Start/src/core_cm3.h **** 
 792:/home/bekeband/workspace/OLIMEX_Start/src/core_cm3.h **** #define DWT_CTRL_NOTRCPKT_Pos              27                                          /*!< DWT CTR
 793:/home/bekeband/workspace/OLIMEX_Start/src/core_cm3.h **** #define DWT_CTRL_NOTRCPKT_Msk              (0x1UL << DWT_CTRL_NOTRCPKT_Pos)            /*!< DWT CTR
 794:/home/bekeband/workspace/OLIMEX_Start/src/core_cm3.h **** 
 795:/home/bekeband/workspace/OLIMEX_Start/src/core_cm3.h **** #define DWT_CTRL_NOEXTTRIG_Pos             26                                          /*!< DWT CTR
 796:/home/bekeband/workspace/OLIMEX_Start/src/core_cm3.h **** #define DWT_CTRL_NOEXTTRIG_Msk             (0x1UL << DWT_CTRL_NOEXTTRIG_Pos)           /*!< DWT CTR
 797:/home/bekeband/workspace/OLIMEX_Start/src/core_cm3.h **** 
 798:/home/bekeband/workspace/OLIMEX_Start/src/core_cm3.h **** #define DWT_CTRL_NOCYCCNT_Pos              25                                          /*!< DWT CTR
 799:/home/bekeband/workspace/OLIMEX_Start/src/core_cm3.h **** #define DWT_CTRL_NOCYCCNT_Msk              (0x1UL << DWT_CTRL_NOCYCCNT_Pos)            /*!< DWT CTR
 800:/home/bekeband/workspace/OLIMEX_Start/src/core_cm3.h **** 
 801:/home/bekeband/workspace/OLIMEX_Start/src/core_cm3.h **** #define DWT_CTRL_NOPRFCNT_Pos              24                                          /*!< DWT CTR
 802:/home/bekeband/workspace/OLIMEX_Start/src/core_cm3.h **** #define DWT_CTRL_NOPRFCNT_Msk              (0x1UL << DWT_CTRL_NOPRFCNT_Pos)            /*!< DWT CTR
 803:/home/bekeband/workspace/OLIMEX_Start/src/core_cm3.h **** 
 804:/home/bekeband/workspace/OLIMEX_Start/src/core_cm3.h **** #define DWT_CTRL_CYCEVTENA_Pos             22                                          /*!< DWT CTR
 805:/home/bekeband/workspace/OLIMEX_Start/src/core_cm3.h **** #define DWT_CTRL_CYCEVTENA_Msk             (0x1UL << DWT_CTRL_CYCEVTENA_Pos)           /*!< DWT CTR
 806:/home/bekeband/workspace/OLIMEX_Start/src/core_cm3.h **** 
 807:/home/bekeband/workspace/OLIMEX_Start/src/core_cm3.h **** #define DWT_CTRL_FOLDEVTENA_Pos            21                                          /*!< DWT CTR
 808:/home/bekeband/workspace/OLIMEX_Start/src/core_cm3.h **** #define DWT_CTRL_FOLDEVTENA_Msk            (0x1UL << DWT_CTRL_FOLDEVTENA_Pos)          /*!< DWT CTR
 809:/home/bekeband/workspace/OLIMEX_Start/src/core_cm3.h **** 
 810:/home/bekeband/workspace/OLIMEX_Start/src/core_cm3.h **** #define DWT_CTRL_LSUEVTENA_Pos             20                                          /*!< DWT CTR
 811:/home/bekeband/workspace/OLIMEX_Start/src/core_cm3.h **** #define DWT_CTRL_LSUEVTENA_Msk             (0x1UL << DWT_CTRL_LSUEVTENA_Pos)           /*!< DWT CTR
 812:/home/bekeband/workspace/OLIMEX_Start/src/core_cm3.h **** 
 813:/home/bekeband/workspace/OLIMEX_Start/src/core_cm3.h **** #define DWT_CTRL_SLEEPEVTENA_Pos           19                                          /*!< DWT CTR
 814:/home/bekeband/workspace/OLIMEX_Start/src/core_cm3.h **** #define DWT_CTRL_SLEEPEVTENA_Msk           (0x1UL << DWT_CTRL_SLEEPEVTENA_Pos)         /*!< DWT CTR
 815:/home/bekeband/workspace/OLIMEX_Start/src/core_cm3.h **** 
 816:/home/bekeband/workspace/OLIMEX_Start/src/core_cm3.h **** #define DWT_CTRL_EXCEVTENA_Pos             18                                          /*!< DWT CTR
 817:/home/bekeband/workspace/OLIMEX_Start/src/core_cm3.h **** #define DWT_CTRL_EXCEVTENA_Msk             (0x1UL << DWT_CTRL_EXCEVTENA_Pos)           /*!< DWT CTR
 818:/home/bekeband/workspace/OLIMEX_Start/src/core_cm3.h **** 
 819:/home/bekeband/workspace/OLIMEX_Start/src/core_cm3.h **** #define DWT_CTRL_CPIEVTENA_Pos             17                                          /*!< DWT CTR
 820:/home/bekeband/workspace/OLIMEX_Start/src/core_cm3.h **** #define DWT_CTRL_CPIEVTENA_Msk             (0x1UL << DWT_CTRL_CPIEVTENA_Pos)           /*!< DWT CTR
 821:/home/bekeband/workspace/OLIMEX_Start/src/core_cm3.h **** 
 822:/home/bekeband/workspace/OLIMEX_Start/src/core_cm3.h **** #define DWT_CTRL_EXCTRCENA_Pos             16                                          /*!< DWT CTR
 823:/home/bekeband/workspace/OLIMEX_Start/src/core_cm3.h **** #define DWT_CTRL_EXCTRCENA_Msk             (0x1UL << DWT_CTRL_EXCTRCENA_Pos)           /*!< DWT CTR
 824:/home/bekeband/workspace/OLIMEX_Start/src/core_cm3.h **** 
 825:/home/bekeband/workspace/OLIMEX_Start/src/core_cm3.h **** #define DWT_CTRL_PCSAMPLENA_Pos            12                                          /*!< DWT CTR
 826:/home/bekeband/workspace/OLIMEX_Start/src/core_cm3.h **** #define DWT_CTRL_PCSAMPLENA_Msk            (0x1UL << DWT_CTRL_PCSAMPLENA_Pos)          /*!< DWT CTR
 827:/home/bekeband/workspace/OLIMEX_Start/src/core_cm3.h **** 
 828:/home/bekeband/workspace/OLIMEX_Start/src/core_cm3.h **** #define DWT_CTRL_SYNCTAP_Pos               10                                          /*!< DWT CTR
 829:/home/bekeband/workspace/OLIMEX_Start/src/core_cm3.h **** #define DWT_CTRL_SYNCTAP_Msk               (0x3UL << DWT_CTRL_SYNCTAP_Pos)             /*!< DWT CTR
 830:/home/bekeband/workspace/OLIMEX_Start/src/core_cm3.h **** 
 831:/home/bekeband/workspace/OLIMEX_Start/src/core_cm3.h **** #define DWT_CTRL_CYCTAP_Pos                 9                                          /*!< DWT CTR
 832:/home/bekeband/workspace/OLIMEX_Start/src/core_cm3.h **** #define DWT_CTRL_CYCTAP_Msk                (0x1UL << DWT_CTRL_CYCTAP_Pos)              /*!< DWT CTR
 833:/home/bekeband/workspace/OLIMEX_Start/src/core_cm3.h **** 
 834:/home/bekeband/workspace/OLIMEX_Start/src/core_cm3.h **** #define DWT_CTRL_POSTINIT_Pos               5                                          /*!< DWT CTR
 835:/home/bekeband/workspace/OLIMEX_Start/src/core_cm3.h **** #define DWT_CTRL_POSTINIT_Msk              (0xFUL << DWT_CTRL_POSTINIT_Pos)            /*!< DWT CTR
 836:/home/bekeband/workspace/OLIMEX_Start/src/core_cm3.h **** 
 837:/home/bekeband/workspace/OLIMEX_Start/src/core_cm3.h **** #define DWT_CTRL_POSTPRESET_Pos             1                                          /*!< DWT CTR
 838:/home/bekeband/workspace/OLIMEX_Start/src/core_cm3.h **** #define DWT_CTRL_POSTPRESET_Msk            (0xFUL << DWT_CTRL_POSTPRESET_Pos)          /*!< DWT CTR
 839:/home/bekeband/workspace/OLIMEX_Start/src/core_cm3.h **** 
 840:/home/bekeband/workspace/OLIMEX_Start/src/core_cm3.h **** #define DWT_CTRL_CYCCNTENA_Pos              0                                          /*!< DWT CTR
 841:/home/bekeband/workspace/OLIMEX_Start/src/core_cm3.h **** #define DWT_CTRL_CYCCNTENA_Msk             (0x1UL << DWT_CTRL_CYCCNTENA_Pos)           /*!< DWT CTR
 842:/home/bekeband/workspace/OLIMEX_Start/src/core_cm3.h **** 
 843:/home/bekeband/workspace/OLIMEX_Start/src/core_cm3.h **** /* DWT CPI Count Register Definitions */
 844:/home/bekeband/workspace/OLIMEX_Start/src/core_cm3.h **** #define DWT_CPICNT_CPICNT_Pos               0                                          /*!< DWT CPI
 845:/home/bekeband/workspace/OLIMEX_Start/src/core_cm3.h **** #define DWT_CPICNT_CPICNT_Msk              (0xFFUL << DWT_CPICNT_CPICNT_Pos)           /*!< DWT CPI
 846:/home/bekeband/workspace/OLIMEX_Start/src/core_cm3.h **** 
 847:/home/bekeband/workspace/OLIMEX_Start/src/core_cm3.h **** /* DWT Exception Overhead Count Register Definitions */
 848:/home/bekeband/workspace/OLIMEX_Start/src/core_cm3.h **** #define DWT_EXCCNT_EXCCNT_Pos               0                                          /*!< DWT EXC
 849:/home/bekeband/workspace/OLIMEX_Start/src/core_cm3.h **** #define DWT_EXCCNT_EXCCNT_Msk              (0xFFUL << DWT_EXCCNT_EXCCNT_Pos)           /*!< DWT EXC
 850:/home/bekeband/workspace/OLIMEX_Start/src/core_cm3.h **** 
 851:/home/bekeband/workspace/OLIMEX_Start/src/core_cm3.h **** /* DWT Sleep Count Register Definitions */
 852:/home/bekeband/workspace/OLIMEX_Start/src/core_cm3.h **** #define DWT_SLEEPCNT_SLEEPCNT_Pos           0                                          /*!< DWT SLE
 853:/home/bekeband/workspace/OLIMEX_Start/src/core_cm3.h **** #define DWT_SLEEPCNT_SLEEPCNT_Msk          (0xFFUL << DWT_SLEEPCNT_SLEEPCNT_Pos)       /*!< DWT SLE
 854:/home/bekeband/workspace/OLIMEX_Start/src/core_cm3.h **** 
 855:/home/bekeband/workspace/OLIMEX_Start/src/core_cm3.h **** /* DWT LSU Count Register Definitions */
 856:/home/bekeband/workspace/OLIMEX_Start/src/core_cm3.h **** #define DWT_LSUCNT_LSUCNT_Pos               0                                          /*!< DWT LSU
 857:/home/bekeband/workspace/OLIMEX_Start/src/core_cm3.h **** #define DWT_LSUCNT_LSUCNT_Msk              (0xFFUL << DWT_LSUCNT_LSUCNT_Pos)           /*!< DWT LSU
 858:/home/bekeband/workspace/OLIMEX_Start/src/core_cm3.h **** 
 859:/home/bekeband/workspace/OLIMEX_Start/src/core_cm3.h **** /* DWT Folded-instruction Count Register Definitions */
 860:/home/bekeband/workspace/OLIMEX_Start/src/core_cm3.h **** #define DWT_FOLDCNT_FOLDCNT_Pos             0                                          /*!< DWT FOL
 861:/home/bekeband/workspace/OLIMEX_Start/src/core_cm3.h **** #define DWT_FOLDCNT_FOLDCNT_Msk            (0xFFUL << DWT_FOLDCNT_FOLDCNT_Pos)         /*!< DWT FOL
 862:/home/bekeband/workspace/OLIMEX_Start/src/core_cm3.h **** 
 863:/home/bekeband/workspace/OLIMEX_Start/src/core_cm3.h **** /* DWT Comparator Mask Register Definitions */
 864:/home/bekeband/workspace/OLIMEX_Start/src/core_cm3.h **** #define DWT_MASK_MASK_Pos                   0                                          /*!< DWT MAS
 865:/home/bekeband/workspace/OLIMEX_Start/src/core_cm3.h **** #define DWT_MASK_MASK_Msk                  (0x1FUL << DWT_MASK_MASK_Pos)               /*!< DWT MAS
 866:/home/bekeband/workspace/OLIMEX_Start/src/core_cm3.h **** 
 867:/home/bekeband/workspace/OLIMEX_Start/src/core_cm3.h **** /* DWT Comparator Function Register Definitions */
 868:/home/bekeband/workspace/OLIMEX_Start/src/core_cm3.h **** #define DWT_FUNCTION_MATCHED_Pos           24                                          /*!< DWT FUN
 869:/home/bekeband/workspace/OLIMEX_Start/src/core_cm3.h **** #define DWT_FUNCTION_MATCHED_Msk           (0x1UL << DWT_FUNCTION_MATCHED_Pos)         /*!< DWT FUN
 870:/home/bekeband/workspace/OLIMEX_Start/src/core_cm3.h **** 
 871:/home/bekeband/workspace/OLIMEX_Start/src/core_cm3.h **** #define DWT_FUNCTION_DATAVADDR1_Pos        16                                          /*!< DWT FUN
 872:/home/bekeband/workspace/OLIMEX_Start/src/core_cm3.h **** #define DWT_FUNCTION_DATAVADDR1_Msk        (0xFUL << DWT_FUNCTION_DATAVADDR1_Pos)      /*!< DWT FUN
 873:/home/bekeband/workspace/OLIMEX_Start/src/core_cm3.h **** 
 874:/home/bekeband/workspace/OLIMEX_Start/src/core_cm3.h **** #define DWT_FUNCTION_DATAVADDR0_Pos        12                                          /*!< DWT FUN
 875:/home/bekeband/workspace/OLIMEX_Start/src/core_cm3.h **** #define DWT_FUNCTION_DATAVADDR0_Msk        (0xFUL << DWT_FUNCTION_DATAVADDR0_Pos)      /*!< DWT FUN
 876:/home/bekeband/workspace/OLIMEX_Start/src/core_cm3.h **** 
 877:/home/bekeband/workspace/OLIMEX_Start/src/core_cm3.h **** #define DWT_FUNCTION_DATAVSIZE_Pos         10                                          /*!< DWT FUN
 878:/home/bekeband/workspace/OLIMEX_Start/src/core_cm3.h **** #define DWT_FUNCTION_DATAVSIZE_Msk         (0x3UL << DWT_FUNCTION_DATAVSIZE_Pos)       /*!< DWT FUN
 879:/home/bekeband/workspace/OLIMEX_Start/src/core_cm3.h **** 
 880:/home/bekeband/workspace/OLIMEX_Start/src/core_cm3.h **** #define DWT_FUNCTION_LNK1ENA_Pos            9                                          /*!< DWT FUN
 881:/home/bekeband/workspace/OLIMEX_Start/src/core_cm3.h **** #define DWT_FUNCTION_LNK1ENA_Msk           (0x1UL << DWT_FUNCTION_LNK1ENA_Pos)         /*!< DWT FUN
 882:/home/bekeband/workspace/OLIMEX_Start/src/core_cm3.h **** 
 883:/home/bekeband/workspace/OLIMEX_Start/src/core_cm3.h **** #define DWT_FUNCTION_DATAVMATCH_Pos         8                                          /*!< DWT FUN
 884:/home/bekeband/workspace/OLIMEX_Start/src/core_cm3.h **** #define DWT_FUNCTION_DATAVMATCH_Msk        (0x1UL << DWT_FUNCTION_DATAVMATCH_Pos)      /*!< DWT FUN
 885:/home/bekeband/workspace/OLIMEX_Start/src/core_cm3.h **** 
 886:/home/bekeband/workspace/OLIMEX_Start/src/core_cm3.h **** #define DWT_FUNCTION_CYCMATCH_Pos           7                                          /*!< DWT FUN
 887:/home/bekeband/workspace/OLIMEX_Start/src/core_cm3.h **** #define DWT_FUNCTION_CYCMATCH_Msk          (0x1UL << DWT_FUNCTION_CYCMATCH_Pos)        /*!< DWT FUN
 888:/home/bekeband/workspace/OLIMEX_Start/src/core_cm3.h **** 
 889:/home/bekeband/workspace/OLIMEX_Start/src/core_cm3.h **** #define DWT_FUNCTION_EMITRANGE_Pos          5                                          /*!< DWT FUN
 890:/home/bekeband/workspace/OLIMEX_Start/src/core_cm3.h **** #define DWT_FUNCTION_EMITRANGE_Msk         (0x1UL << DWT_FUNCTION_EMITRANGE_Pos)       /*!< DWT FUN
 891:/home/bekeband/workspace/OLIMEX_Start/src/core_cm3.h **** 
 892:/home/bekeband/workspace/OLIMEX_Start/src/core_cm3.h **** #define DWT_FUNCTION_FUNCTION_Pos           0                                          /*!< DWT FUN
 893:/home/bekeband/workspace/OLIMEX_Start/src/core_cm3.h **** #define DWT_FUNCTION_FUNCTION_Msk          (0xFUL << DWT_FUNCTION_FUNCTION_Pos)        /*!< DWT FUN
 894:/home/bekeband/workspace/OLIMEX_Start/src/core_cm3.h **** 
 895:/home/bekeband/workspace/OLIMEX_Start/src/core_cm3.h **** /*@}*/ /* end of group CMSIS_DWT */
 896:/home/bekeband/workspace/OLIMEX_Start/src/core_cm3.h **** 
 897:/home/bekeband/workspace/OLIMEX_Start/src/core_cm3.h **** 
 898:/home/bekeband/workspace/OLIMEX_Start/src/core_cm3.h **** /** \ingroup  CMSIS_core_register
 899:/home/bekeband/workspace/OLIMEX_Start/src/core_cm3.h ****     \defgroup CMSIS_TPI     Trace Port Interface (TPI)
 900:/home/bekeband/workspace/OLIMEX_Start/src/core_cm3.h ****     \brief      Type definitions for the Trace Port Interface (TPI)
 901:/home/bekeband/workspace/OLIMEX_Start/src/core_cm3.h ****   @{
 902:/home/bekeband/workspace/OLIMEX_Start/src/core_cm3.h ****  */
 903:/home/bekeband/workspace/OLIMEX_Start/src/core_cm3.h **** 
 904:/home/bekeband/workspace/OLIMEX_Start/src/core_cm3.h **** /** \brief  Structure type to access the Trace Port Interface Register (TPI).
 905:/home/bekeband/workspace/OLIMEX_Start/src/core_cm3.h ****  */
 906:/home/bekeband/workspace/OLIMEX_Start/src/core_cm3.h **** typedef struct
 907:/home/bekeband/workspace/OLIMEX_Start/src/core_cm3.h **** {
 908:/home/bekeband/workspace/OLIMEX_Start/src/core_cm3.h ****   __IO uint32_t SSPSR;                   /*!< Offset: 0x000 (R/ )  Supported Parallel Port Size Reg
 909:/home/bekeband/workspace/OLIMEX_Start/src/core_cm3.h ****   __IO uint32_t CSPSR;                   /*!< Offset: 0x004 (R/W)  Current Parallel Port Size Regis
 910:/home/bekeband/workspace/OLIMEX_Start/src/core_cm3.h ****        uint32_t RESERVED0[2];
 911:/home/bekeband/workspace/OLIMEX_Start/src/core_cm3.h ****   __IO uint32_t ACPR;                    /*!< Offset: 0x010 (R/W)  Asynchronous Clock Prescaler Reg
 912:/home/bekeband/workspace/OLIMEX_Start/src/core_cm3.h ****        uint32_t RESERVED1[55];
 913:/home/bekeband/workspace/OLIMEX_Start/src/core_cm3.h ****   __IO uint32_t SPPR;                    /*!< Offset: 0x0F0 (R/W)  Selected Pin Protocol Register *
 914:/home/bekeband/workspace/OLIMEX_Start/src/core_cm3.h ****        uint32_t RESERVED2[131];
 915:/home/bekeband/workspace/OLIMEX_Start/src/core_cm3.h ****   __I  uint32_t FFSR;                    /*!< Offset: 0x300 (R/ )  Formatter and Flush Status Regis
 916:/home/bekeband/workspace/OLIMEX_Start/src/core_cm3.h ****   __IO uint32_t FFCR;                    /*!< Offset: 0x304 (R/W)  Formatter and Flush Control Regi
 917:/home/bekeband/workspace/OLIMEX_Start/src/core_cm3.h ****   __I  uint32_t FSCR;                    /*!< Offset: 0x308 (R/ )  Formatter Synchronization Counte
 918:/home/bekeband/workspace/OLIMEX_Start/src/core_cm3.h ****        uint32_t RESERVED3[759];
 919:/home/bekeband/workspace/OLIMEX_Start/src/core_cm3.h ****   __I  uint32_t TRIGGER;                 /*!< Offset: 0xEE8 (R/ )  TRIGGER */
 920:/home/bekeband/workspace/OLIMEX_Start/src/core_cm3.h ****   __I  uint32_t FIFO0;                   /*!< Offset: 0xEEC (R/ )  Integration ETM Data */
 921:/home/bekeband/workspace/OLIMEX_Start/src/core_cm3.h ****   __I  uint32_t ITATBCTR2;               /*!< Offset: 0xEF0 (R/ )  ITATBCTR2 */
 922:/home/bekeband/workspace/OLIMEX_Start/src/core_cm3.h ****        uint32_t RESERVED4[1];
 923:/home/bekeband/workspace/OLIMEX_Start/src/core_cm3.h ****   __I  uint32_t ITATBCTR0;               /*!< Offset: 0xEF8 (R/ )  ITATBCTR0 */
 924:/home/bekeband/workspace/OLIMEX_Start/src/core_cm3.h ****   __I  uint32_t FIFO1;                   /*!< Offset: 0xEFC (R/ )  Integration ITM Data */
 925:/home/bekeband/workspace/OLIMEX_Start/src/core_cm3.h ****   __IO uint32_t ITCTRL;                  /*!< Offset: 0xF00 (R/W)  Integration Mode Control */
 926:/home/bekeband/workspace/OLIMEX_Start/src/core_cm3.h ****        uint32_t RESERVED5[39];
 927:/home/bekeband/workspace/OLIMEX_Start/src/core_cm3.h ****   __IO uint32_t CLAIMSET;                /*!< Offset: 0xFA0 (R/W)  Claim tag set */
 928:/home/bekeband/workspace/OLIMEX_Start/src/core_cm3.h ****   __IO uint32_t CLAIMCLR;                /*!< Offset: 0xFA4 (R/W)  Claim tag clear */
 929:/home/bekeband/workspace/OLIMEX_Start/src/core_cm3.h ****        uint32_t RESERVED7[8];
 930:/home/bekeband/workspace/OLIMEX_Start/src/core_cm3.h ****   __I  uint32_t DEVID;                   /*!< Offset: 0xFC8 (R/ )  TPIU_DEVID */
 931:/home/bekeband/workspace/OLIMEX_Start/src/core_cm3.h ****   __I  uint32_t DEVTYPE;                 /*!< Offset: 0xFCC (R/ )  TPIU_DEVTYPE */
 932:/home/bekeband/workspace/OLIMEX_Start/src/core_cm3.h **** } TPI_Type;
 933:/home/bekeband/workspace/OLIMEX_Start/src/core_cm3.h **** 
 934:/home/bekeband/workspace/OLIMEX_Start/src/core_cm3.h **** /* TPI Asynchronous Clock Prescaler Register Definitions */
 935:/home/bekeband/workspace/OLIMEX_Start/src/core_cm3.h **** #define TPI_ACPR_PRESCALER_Pos              0                                          /*!< TPI ACP
 936:/home/bekeband/workspace/OLIMEX_Start/src/core_cm3.h **** #define TPI_ACPR_PRESCALER_Msk             (0x1FFFUL << TPI_ACPR_PRESCALER_Pos)        /*!< TPI ACP
 937:/home/bekeband/workspace/OLIMEX_Start/src/core_cm3.h **** 
 938:/home/bekeband/workspace/OLIMEX_Start/src/core_cm3.h **** /* TPI Selected Pin Protocol Register Definitions */
 939:/home/bekeband/workspace/OLIMEX_Start/src/core_cm3.h **** #define TPI_SPPR_TXMODE_Pos                 0                                          /*!< TPI SPP
 940:/home/bekeband/workspace/OLIMEX_Start/src/core_cm3.h **** #define TPI_SPPR_TXMODE_Msk                (0x3UL << TPI_SPPR_TXMODE_Pos)              /*!< TPI SPP
 941:/home/bekeband/workspace/OLIMEX_Start/src/core_cm3.h **** 
 942:/home/bekeband/workspace/OLIMEX_Start/src/core_cm3.h **** /* TPI Formatter and Flush Status Register Definitions */
 943:/home/bekeband/workspace/OLIMEX_Start/src/core_cm3.h **** #define TPI_FFSR_FtNonStop_Pos              3                                          /*!< TPI FFS
 944:/home/bekeband/workspace/OLIMEX_Start/src/core_cm3.h **** #define TPI_FFSR_FtNonStop_Msk             (0x1UL << TPI_FFSR_FtNonStop_Pos)           /*!< TPI FFS
 945:/home/bekeband/workspace/OLIMEX_Start/src/core_cm3.h **** 
 946:/home/bekeband/workspace/OLIMEX_Start/src/core_cm3.h **** #define TPI_FFSR_TCPresent_Pos              2                                          /*!< TPI FFS
 947:/home/bekeband/workspace/OLIMEX_Start/src/core_cm3.h **** #define TPI_FFSR_TCPresent_Msk             (0x1UL << TPI_FFSR_TCPresent_Pos)           /*!< TPI FFS
 948:/home/bekeband/workspace/OLIMEX_Start/src/core_cm3.h **** 
 949:/home/bekeband/workspace/OLIMEX_Start/src/core_cm3.h **** #define TPI_FFSR_FtStopped_Pos              1                                          /*!< TPI FFS
 950:/home/bekeband/workspace/OLIMEX_Start/src/core_cm3.h **** #define TPI_FFSR_FtStopped_Msk             (0x1UL << TPI_FFSR_FtStopped_Pos)           /*!< TPI FFS
 951:/home/bekeband/workspace/OLIMEX_Start/src/core_cm3.h **** 
 952:/home/bekeband/workspace/OLIMEX_Start/src/core_cm3.h **** #define TPI_FFSR_FlInProg_Pos               0                                          /*!< TPI FFS
 953:/home/bekeband/workspace/OLIMEX_Start/src/core_cm3.h **** #define TPI_FFSR_FlInProg_Msk              (0x1UL << TPI_FFSR_FlInProg_Pos)            /*!< TPI FFS
 954:/home/bekeband/workspace/OLIMEX_Start/src/core_cm3.h **** 
 955:/home/bekeband/workspace/OLIMEX_Start/src/core_cm3.h **** /* TPI Formatter and Flush Control Register Definitions */
 956:/home/bekeband/workspace/OLIMEX_Start/src/core_cm3.h **** #define TPI_FFCR_TrigIn_Pos                 8                                          /*!< TPI FFC
 957:/home/bekeband/workspace/OLIMEX_Start/src/core_cm3.h **** #define TPI_FFCR_TrigIn_Msk                (0x1UL << TPI_FFCR_TrigIn_Pos)              /*!< TPI FFC
 958:/home/bekeband/workspace/OLIMEX_Start/src/core_cm3.h **** 
 959:/home/bekeband/workspace/OLIMEX_Start/src/core_cm3.h **** #define TPI_FFCR_EnFCont_Pos                1                                          /*!< TPI FFC
 960:/home/bekeband/workspace/OLIMEX_Start/src/core_cm3.h **** #define TPI_FFCR_EnFCont_Msk               (0x1UL << TPI_FFCR_EnFCont_Pos)             /*!< TPI FFC
 961:/home/bekeband/workspace/OLIMEX_Start/src/core_cm3.h **** 
 962:/home/bekeband/workspace/OLIMEX_Start/src/core_cm3.h **** /* TPI TRIGGER Register Definitions */
 963:/home/bekeband/workspace/OLIMEX_Start/src/core_cm3.h **** #define TPI_TRIGGER_TRIGGER_Pos             0                                          /*!< TPI TRI
 964:/home/bekeband/workspace/OLIMEX_Start/src/core_cm3.h **** #define TPI_TRIGGER_TRIGGER_Msk            (0x1UL << TPI_TRIGGER_TRIGGER_Pos)          /*!< TPI TRI
 965:/home/bekeband/workspace/OLIMEX_Start/src/core_cm3.h **** 
 966:/home/bekeband/workspace/OLIMEX_Start/src/core_cm3.h **** /* TPI Integration ETM Data Register Definitions (FIFO0) */
 967:/home/bekeband/workspace/OLIMEX_Start/src/core_cm3.h **** #define TPI_FIFO0_ITM_ATVALID_Pos          29                                          /*!< TPI FIF
 968:/home/bekeband/workspace/OLIMEX_Start/src/core_cm3.h **** #define TPI_FIFO0_ITM_ATVALID_Msk          (0x3UL << TPI_FIFO0_ITM_ATVALID_Pos)        /*!< TPI FIF
 969:/home/bekeband/workspace/OLIMEX_Start/src/core_cm3.h **** 
 970:/home/bekeband/workspace/OLIMEX_Start/src/core_cm3.h **** #define TPI_FIFO0_ITM_bytecount_Pos        27                                          /*!< TPI FIF
 971:/home/bekeband/workspace/OLIMEX_Start/src/core_cm3.h **** #define TPI_FIFO0_ITM_bytecount_Msk        (0x3UL << TPI_FIFO0_ITM_bytecount_Pos)      /*!< TPI FIF
 972:/home/bekeband/workspace/OLIMEX_Start/src/core_cm3.h **** 
 973:/home/bekeband/workspace/OLIMEX_Start/src/core_cm3.h **** #define TPI_FIFO0_ETM_ATVALID_Pos          26                                          /*!< TPI FIF
 974:/home/bekeband/workspace/OLIMEX_Start/src/core_cm3.h **** #define TPI_FIFO0_ETM_ATVALID_Msk          (0x3UL << TPI_FIFO0_ETM_ATVALID_Pos)        /*!< TPI FIF
 975:/home/bekeband/workspace/OLIMEX_Start/src/core_cm3.h **** 
 976:/home/bekeband/workspace/OLIMEX_Start/src/core_cm3.h **** #define TPI_FIFO0_ETM_bytecount_Pos        24                                          /*!< TPI FIF
 977:/home/bekeband/workspace/OLIMEX_Start/src/core_cm3.h **** #define TPI_FIFO0_ETM_bytecount_Msk        (0x3UL << TPI_FIFO0_ETM_bytecount_Pos)      /*!< TPI FIF
 978:/home/bekeband/workspace/OLIMEX_Start/src/core_cm3.h **** 
 979:/home/bekeband/workspace/OLIMEX_Start/src/core_cm3.h **** #define TPI_FIFO0_ETM2_Pos                 16                                          /*!< TPI FIF
 980:/home/bekeband/workspace/OLIMEX_Start/src/core_cm3.h **** #define TPI_FIFO0_ETM2_Msk                 (0xFFUL << TPI_FIFO0_ETM2_Pos)              /*!< TPI FIF
 981:/home/bekeband/workspace/OLIMEX_Start/src/core_cm3.h **** 
 982:/home/bekeband/workspace/OLIMEX_Start/src/core_cm3.h **** #define TPI_FIFO0_ETM1_Pos                  8                                          /*!< TPI FIF
 983:/home/bekeband/workspace/OLIMEX_Start/src/core_cm3.h **** #define TPI_FIFO0_ETM1_Msk                 (0xFFUL << TPI_FIFO0_ETM1_Pos)              /*!< TPI FIF
 984:/home/bekeband/workspace/OLIMEX_Start/src/core_cm3.h **** 
 985:/home/bekeband/workspace/OLIMEX_Start/src/core_cm3.h **** #define TPI_FIFO0_ETM0_Pos                  0                                          /*!< TPI FIF
 986:/home/bekeband/workspace/OLIMEX_Start/src/core_cm3.h **** #define TPI_FIFO0_ETM0_Msk                 (0xFFUL << TPI_FIFO0_ETM0_Pos)              /*!< TPI FIF
 987:/home/bekeband/workspace/OLIMEX_Start/src/core_cm3.h **** 
 988:/home/bekeband/workspace/OLIMEX_Start/src/core_cm3.h **** /* TPI ITATBCTR2 Register Definitions */
 989:/home/bekeband/workspace/OLIMEX_Start/src/core_cm3.h **** #define TPI_ITATBCTR2_ATREADY_Pos           0                                          /*!< TPI ITA
 990:/home/bekeband/workspace/OLIMEX_Start/src/core_cm3.h **** #define TPI_ITATBCTR2_ATREADY_Msk          (0x1UL << TPI_ITATBCTR2_ATREADY_Pos)        /*!< TPI ITA
 991:/home/bekeband/workspace/OLIMEX_Start/src/core_cm3.h **** 
 992:/home/bekeband/workspace/OLIMEX_Start/src/core_cm3.h **** /* TPI Integration ITM Data Register Definitions (FIFO1) */
 993:/home/bekeband/workspace/OLIMEX_Start/src/core_cm3.h **** #define TPI_FIFO1_ITM_ATVALID_Pos          29                                          /*!< TPI FIF
 994:/home/bekeband/workspace/OLIMEX_Start/src/core_cm3.h **** #define TPI_FIFO1_ITM_ATVALID_Msk          (0x3UL << TPI_FIFO1_ITM_ATVALID_Pos)        /*!< TPI FIF
 995:/home/bekeband/workspace/OLIMEX_Start/src/core_cm3.h **** 
 996:/home/bekeband/workspace/OLIMEX_Start/src/core_cm3.h **** #define TPI_FIFO1_ITM_bytecount_Pos        27                                          /*!< TPI FIF
 997:/home/bekeband/workspace/OLIMEX_Start/src/core_cm3.h **** #define TPI_FIFO1_ITM_bytecount_Msk        (0x3UL << TPI_FIFO1_ITM_bytecount_Pos)      /*!< TPI FIF
 998:/home/bekeband/workspace/OLIMEX_Start/src/core_cm3.h **** 
 999:/home/bekeband/workspace/OLIMEX_Start/src/core_cm3.h **** #define TPI_FIFO1_ETM_ATVALID_Pos          26                                          /*!< TPI FIF
1000:/home/bekeband/workspace/OLIMEX_Start/src/core_cm3.h **** #define TPI_FIFO1_ETM_ATVALID_Msk          (0x3UL << TPI_FIFO1_ETM_ATVALID_Pos)        /*!< TPI FIF
1001:/home/bekeband/workspace/OLIMEX_Start/src/core_cm3.h **** 
1002:/home/bekeband/workspace/OLIMEX_Start/src/core_cm3.h **** #define TPI_FIFO1_ETM_bytecount_Pos        24                                          /*!< TPI FIF
1003:/home/bekeband/workspace/OLIMEX_Start/src/core_cm3.h **** #define TPI_FIFO1_ETM_bytecount_Msk        (0x3UL << TPI_FIFO1_ETM_bytecount_Pos)      /*!< TPI FIF
1004:/home/bekeband/workspace/OLIMEX_Start/src/core_cm3.h **** 
1005:/home/bekeband/workspace/OLIMEX_Start/src/core_cm3.h **** #define TPI_FIFO1_ITM2_Pos                 16                                          /*!< TPI FIF
1006:/home/bekeband/workspace/OLIMEX_Start/src/core_cm3.h **** #define TPI_FIFO1_ITM2_Msk                 (0xFFUL << TPI_FIFO1_ITM2_Pos)              /*!< TPI FIF
1007:/home/bekeband/workspace/OLIMEX_Start/src/core_cm3.h **** 
1008:/home/bekeband/workspace/OLIMEX_Start/src/core_cm3.h **** #define TPI_FIFO1_ITM1_Pos                  8                                          /*!< TPI FIF
1009:/home/bekeband/workspace/OLIMEX_Start/src/core_cm3.h **** #define TPI_FIFO1_ITM1_Msk                 (0xFFUL << TPI_FIFO1_ITM1_Pos)              /*!< TPI FIF
1010:/home/bekeband/workspace/OLIMEX_Start/src/core_cm3.h **** 
1011:/home/bekeband/workspace/OLIMEX_Start/src/core_cm3.h **** #define TPI_FIFO1_ITM0_Pos                  0                                          /*!< TPI FIF
1012:/home/bekeband/workspace/OLIMEX_Start/src/core_cm3.h **** #define TPI_FIFO1_ITM0_Msk                 (0xFFUL << TPI_FIFO1_ITM0_Pos)              /*!< TPI FIF
1013:/home/bekeband/workspace/OLIMEX_Start/src/core_cm3.h **** 
1014:/home/bekeband/workspace/OLIMEX_Start/src/core_cm3.h **** /* TPI ITATBCTR0 Register Definitions */
1015:/home/bekeband/workspace/OLIMEX_Start/src/core_cm3.h **** #define TPI_ITATBCTR0_ATREADY_Pos           0                                          /*!< TPI ITA
1016:/home/bekeband/workspace/OLIMEX_Start/src/core_cm3.h **** #define TPI_ITATBCTR0_ATREADY_Msk          (0x1UL << TPI_ITATBCTR0_ATREADY_Pos)        /*!< TPI ITA
1017:/home/bekeband/workspace/OLIMEX_Start/src/core_cm3.h **** 
1018:/home/bekeband/workspace/OLIMEX_Start/src/core_cm3.h **** /* TPI Integration Mode Control Register Definitions */
1019:/home/bekeband/workspace/OLIMEX_Start/src/core_cm3.h **** #define TPI_ITCTRL_Mode_Pos                 0                                          /*!< TPI ITC
1020:/home/bekeband/workspace/OLIMEX_Start/src/core_cm3.h **** #define TPI_ITCTRL_Mode_Msk                (0x1UL << TPI_ITCTRL_Mode_Pos)              /*!< TPI ITC
1021:/home/bekeband/workspace/OLIMEX_Start/src/core_cm3.h **** 
1022:/home/bekeband/workspace/OLIMEX_Start/src/core_cm3.h **** /* TPI DEVID Register Definitions */
1023:/home/bekeband/workspace/OLIMEX_Start/src/core_cm3.h **** #define TPI_DEVID_NRZVALID_Pos             11                                          /*!< TPI DEV
1024:/home/bekeband/workspace/OLIMEX_Start/src/core_cm3.h **** #define TPI_DEVID_NRZVALID_Msk             (0x1UL << TPI_DEVID_NRZVALID_Pos)           /*!< TPI DEV
1025:/home/bekeband/workspace/OLIMEX_Start/src/core_cm3.h **** 
1026:/home/bekeband/workspace/OLIMEX_Start/src/core_cm3.h **** #define TPI_DEVID_MANCVALID_Pos            10                                          /*!< TPI DEV
1027:/home/bekeband/workspace/OLIMEX_Start/src/core_cm3.h **** #define TPI_DEVID_MANCVALID_Msk            (0x1UL << TPI_DEVID_MANCVALID_Pos)          /*!< TPI DEV
1028:/home/bekeband/workspace/OLIMEX_Start/src/core_cm3.h **** 
1029:/home/bekeband/workspace/OLIMEX_Start/src/core_cm3.h **** #define TPI_DEVID_PTINVALID_Pos             9                                          /*!< TPI DEV
1030:/home/bekeband/workspace/OLIMEX_Start/src/core_cm3.h **** #define TPI_DEVID_PTINVALID_Msk            (0x1UL << TPI_DEVID_PTINVALID_Pos)          /*!< TPI DEV
1031:/home/bekeband/workspace/OLIMEX_Start/src/core_cm3.h **** 
1032:/home/bekeband/workspace/OLIMEX_Start/src/core_cm3.h **** #define TPI_DEVID_MinBufSz_Pos              6                                          /*!< TPI DEV
1033:/home/bekeband/workspace/OLIMEX_Start/src/core_cm3.h **** #define TPI_DEVID_MinBufSz_Msk             (0x7UL << TPI_DEVID_MinBufSz_Pos)           /*!< TPI DEV
1034:/home/bekeband/workspace/OLIMEX_Start/src/core_cm3.h **** 
1035:/home/bekeband/workspace/OLIMEX_Start/src/core_cm3.h **** #define TPI_DEVID_AsynClkIn_Pos             5                                          /*!< TPI DEV
1036:/home/bekeband/workspace/OLIMEX_Start/src/core_cm3.h **** #define TPI_DEVID_AsynClkIn_Msk            (0x1UL << TPI_DEVID_AsynClkIn_Pos)          /*!< TPI DEV
1037:/home/bekeband/workspace/OLIMEX_Start/src/core_cm3.h **** 
1038:/home/bekeband/workspace/OLIMEX_Start/src/core_cm3.h **** #define TPI_DEVID_NrTraceInput_Pos          0                                          /*!< TPI DEV
1039:/home/bekeband/workspace/OLIMEX_Start/src/core_cm3.h **** #define TPI_DEVID_NrTraceInput_Msk         (0x1FUL << TPI_DEVID_NrTraceInput_Pos)      /*!< TPI DEV
1040:/home/bekeband/workspace/OLIMEX_Start/src/core_cm3.h **** 
1041:/home/bekeband/workspace/OLIMEX_Start/src/core_cm3.h **** /* TPI DEVTYPE Register Definitions */
1042:/home/bekeband/workspace/OLIMEX_Start/src/core_cm3.h **** #define TPI_DEVTYPE_SubType_Pos             0                                          /*!< TPI DEV
1043:/home/bekeband/workspace/OLIMEX_Start/src/core_cm3.h **** #define TPI_DEVTYPE_SubType_Msk            (0xFUL << TPI_DEVTYPE_SubType_Pos)          /*!< TPI DEV
1044:/home/bekeband/workspace/OLIMEX_Start/src/core_cm3.h **** 
1045:/home/bekeband/workspace/OLIMEX_Start/src/core_cm3.h **** #define TPI_DEVTYPE_MajorType_Pos           4                                          /*!< TPI DEV
1046:/home/bekeband/workspace/OLIMEX_Start/src/core_cm3.h **** #define TPI_DEVTYPE_MajorType_Msk          (0xFUL << TPI_DEVTYPE_MajorType_Pos)        /*!< TPI DEV
1047:/home/bekeband/workspace/OLIMEX_Start/src/core_cm3.h **** 
1048:/home/bekeband/workspace/OLIMEX_Start/src/core_cm3.h **** /*@}*/ /* end of group CMSIS_TPI */
1049:/home/bekeband/workspace/OLIMEX_Start/src/core_cm3.h **** 
1050:/home/bekeband/workspace/OLIMEX_Start/src/core_cm3.h **** 
1051:/home/bekeband/workspace/OLIMEX_Start/src/core_cm3.h **** #if (__MPU_PRESENT == 1)
1052:/home/bekeband/workspace/OLIMEX_Start/src/core_cm3.h **** /** \ingroup  CMSIS_core_register
1053:/home/bekeband/workspace/OLIMEX_Start/src/core_cm3.h ****     \defgroup CMSIS_MPU     Memory Protection Unit (MPU)
1054:/home/bekeband/workspace/OLIMEX_Start/src/core_cm3.h ****     \brief      Type definitions for the Memory Protection Unit (MPU)
1055:/home/bekeband/workspace/OLIMEX_Start/src/core_cm3.h ****   @{
1056:/home/bekeband/workspace/OLIMEX_Start/src/core_cm3.h ****  */
1057:/home/bekeband/workspace/OLIMEX_Start/src/core_cm3.h **** 
1058:/home/bekeband/workspace/OLIMEX_Start/src/core_cm3.h **** /** \brief  Structure type to access the Memory Protection Unit (MPU).
1059:/home/bekeband/workspace/OLIMEX_Start/src/core_cm3.h ****  */
1060:/home/bekeband/workspace/OLIMEX_Start/src/core_cm3.h **** typedef struct
1061:/home/bekeband/workspace/OLIMEX_Start/src/core_cm3.h **** {
1062:/home/bekeband/workspace/OLIMEX_Start/src/core_cm3.h ****   __I  uint32_t TYPE;                    /*!< Offset: 0x000 (R/ )  MPU Type Register               
1063:/home/bekeband/workspace/OLIMEX_Start/src/core_cm3.h ****   __IO uint32_t CTRL;                    /*!< Offset: 0x004 (R/W)  MPU Control Register            
1064:/home/bekeband/workspace/OLIMEX_Start/src/core_cm3.h ****   __IO uint32_t RNR;                     /*!< Offset: 0x008 (R/W)  MPU Region RNRber Register      
1065:/home/bekeband/workspace/OLIMEX_Start/src/core_cm3.h ****   __IO uint32_t RBAR;                    /*!< Offset: 0x00C (R/W)  MPU Region Base Address Register
1066:/home/bekeband/workspace/OLIMEX_Start/src/core_cm3.h ****   __IO uint32_t RASR;                    /*!< Offset: 0x010 (R/W)  MPU Region Attribute and Size Re
1067:/home/bekeband/workspace/OLIMEX_Start/src/core_cm3.h ****   __IO uint32_t RBAR_A1;                 /*!< Offset: 0x014 (R/W)  MPU Alias 1 Region Base Address 
1068:/home/bekeband/workspace/OLIMEX_Start/src/core_cm3.h ****   __IO uint32_t RASR_A1;                 /*!< Offset: 0x018 (R/W)  MPU Alias 1 Region Attribute and
1069:/home/bekeband/workspace/OLIMEX_Start/src/core_cm3.h ****   __IO uint32_t RBAR_A2;                 /*!< Offset: 0x01C (R/W)  MPU Alias 2 Region Base Address 
1070:/home/bekeband/workspace/OLIMEX_Start/src/core_cm3.h ****   __IO uint32_t RASR_A2;                 /*!< Offset: 0x020 (R/W)  MPU Alias 2 Region Attribute and
1071:/home/bekeband/workspace/OLIMEX_Start/src/core_cm3.h ****   __IO uint32_t RBAR_A3;                 /*!< Offset: 0x024 (R/W)  MPU Alias 3 Region Base Address 
1072:/home/bekeband/workspace/OLIMEX_Start/src/core_cm3.h ****   __IO uint32_t RASR_A3;                 /*!< Offset: 0x028 (R/W)  MPU Alias 3 Region Attribute and
1073:/home/bekeband/workspace/OLIMEX_Start/src/core_cm3.h **** } MPU_Type;
1074:/home/bekeband/workspace/OLIMEX_Start/src/core_cm3.h **** 
1075:/home/bekeband/workspace/OLIMEX_Start/src/core_cm3.h **** /* MPU Type Register */
1076:/home/bekeband/workspace/OLIMEX_Start/src/core_cm3.h **** #define MPU_TYPE_IREGION_Pos               16                                             /*!< MPU 
1077:/home/bekeband/workspace/OLIMEX_Start/src/core_cm3.h **** #define MPU_TYPE_IREGION_Msk               (0xFFUL << MPU_TYPE_IREGION_Pos)               /*!< MPU 
1078:/home/bekeband/workspace/OLIMEX_Start/src/core_cm3.h **** 
1079:/home/bekeband/workspace/OLIMEX_Start/src/core_cm3.h **** #define MPU_TYPE_DREGION_Pos                8                                             /*!< MPU 
1080:/home/bekeband/workspace/OLIMEX_Start/src/core_cm3.h **** #define MPU_TYPE_DREGION_Msk               (0xFFUL << MPU_TYPE_DREGION_Pos)               /*!< MPU 
1081:/home/bekeband/workspace/OLIMEX_Start/src/core_cm3.h **** 
1082:/home/bekeband/workspace/OLIMEX_Start/src/core_cm3.h **** #define MPU_TYPE_SEPARATE_Pos               0                                             /*!< MPU 
1083:/home/bekeband/workspace/OLIMEX_Start/src/core_cm3.h **** #define MPU_TYPE_SEPARATE_Msk              (1UL << MPU_TYPE_SEPARATE_Pos)                 /*!< MPU 
1084:/home/bekeband/workspace/OLIMEX_Start/src/core_cm3.h **** 
1085:/home/bekeband/workspace/OLIMEX_Start/src/core_cm3.h **** /* MPU Control Register */
1086:/home/bekeband/workspace/OLIMEX_Start/src/core_cm3.h **** #define MPU_CTRL_PRIVDEFENA_Pos             2                                             /*!< MPU 
1087:/home/bekeband/workspace/OLIMEX_Start/src/core_cm3.h **** #define MPU_CTRL_PRIVDEFENA_Msk            (1UL << MPU_CTRL_PRIVDEFENA_Pos)               /*!< MPU 
1088:/home/bekeband/workspace/OLIMEX_Start/src/core_cm3.h **** 
1089:/home/bekeband/workspace/OLIMEX_Start/src/core_cm3.h **** #define MPU_CTRL_HFNMIENA_Pos               1                                             /*!< MPU 
1090:/home/bekeband/workspace/OLIMEX_Start/src/core_cm3.h **** #define MPU_CTRL_HFNMIENA_Msk              (1UL << MPU_CTRL_HFNMIENA_Pos)                 /*!< MPU 
1091:/home/bekeband/workspace/OLIMEX_Start/src/core_cm3.h **** 
1092:/home/bekeband/workspace/OLIMEX_Start/src/core_cm3.h **** #define MPU_CTRL_ENABLE_Pos                 0                                             /*!< MPU 
1093:/home/bekeband/workspace/OLIMEX_Start/src/core_cm3.h **** #define MPU_CTRL_ENABLE_Msk                (1UL << MPU_CTRL_ENABLE_Pos)                   /*!< MPU 
1094:/home/bekeband/workspace/OLIMEX_Start/src/core_cm3.h **** 
1095:/home/bekeband/workspace/OLIMEX_Start/src/core_cm3.h **** /* MPU Region Number Register */
1096:/home/bekeband/workspace/OLIMEX_Start/src/core_cm3.h **** #define MPU_RNR_REGION_Pos                  0                                             /*!< MPU 
1097:/home/bekeband/workspace/OLIMEX_Start/src/core_cm3.h **** #define MPU_RNR_REGION_Msk                 (0xFFUL << MPU_RNR_REGION_Pos)                 /*!< MPU 
1098:/home/bekeband/workspace/OLIMEX_Start/src/core_cm3.h **** 
1099:/home/bekeband/workspace/OLIMEX_Start/src/core_cm3.h **** /* MPU Region Base Address Register */
1100:/home/bekeband/workspace/OLIMEX_Start/src/core_cm3.h **** #define MPU_RBAR_ADDR_Pos                   5                                             /*!< MPU 
1101:/home/bekeband/workspace/OLIMEX_Start/src/core_cm3.h **** #define MPU_RBAR_ADDR_Msk                  (0x7FFFFFFUL << MPU_RBAR_ADDR_Pos)             /*!< MPU 
1102:/home/bekeband/workspace/OLIMEX_Start/src/core_cm3.h **** 
1103:/home/bekeband/workspace/OLIMEX_Start/src/core_cm3.h **** #define MPU_RBAR_VALID_Pos                  4                                             /*!< MPU 
1104:/home/bekeband/workspace/OLIMEX_Start/src/core_cm3.h **** #define MPU_RBAR_VALID_Msk                 (1UL << MPU_RBAR_VALID_Pos)                    /*!< MPU 
1105:/home/bekeband/workspace/OLIMEX_Start/src/core_cm3.h **** 
1106:/home/bekeband/workspace/OLIMEX_Start/src/core_cm3.h **** #define MPU_RBAR_REGION_Pos                 0                                             /*!< MPU 
1107:/home/bekeband/workspace/OLIMEX_Start/src/core_cm3.h **** #define MPU_RBAR_REGION_Msk                (0xFUL << MPU_RBAR_REGION_Pos)                 /*!< MPU 
1108:/home/bekeband/workspace/OLIMEX_Start/src/core_cm3.h **** 
1109:/home/bekeband/workspace/OLIMEX_Start/src/core_cm3.h **** /* MPU Region Attribute and Size Register */
1110:/home/bekeband/workspace/OLIMEX_Start/src/core_cm3.h **** #define MPU_RASR_ATTRS_Pos                 16                                             /*!< MPU 
1111:/home/bekeband/workspace/OLIMEX_Start/src/core_cm3.h **** #define MPU_RASR_ATTRS_Msk                 (0xFFFFUL << MPU_RASR_ATTRS_Pos)               /*!< MPU 
1112:/home/bekeband/workspace/OLIMEX_Start/src/core_cm3.h **** 
1113:/home/bekeband/workspace/OLIMEX_Start/src/core_cm3.h **** #define MPU_RASR_XN_Pos                    28                                             /*!< MPU 
1114:/home/bekeband/workspace/OLIMEX_Start/src/core_cm3.h **** #define MPU_RASR_XN_Msk                    (1UL << MPU_RASR_XN_Pos)                       /*!< MPU 
1115:/home/bekeband/workspace/OLIMEX_Start/src/core_cm3.h **** 
1116:/home/bekeband/workspace/OLIMEX_Start/src/core_cm3.h **** #define MPU_RASR_AP_Pos                    24                                             /*!< MPU 
1117:/home/bekeband/workspace/OLIMEX_Start/src/core_cm3.h **** #define MPU_RASR_AP_Msk                    (0x7UL << MPU_RASR_AP_Pos)                     /*!< MPU 
1118:/home/bekeband/workspace/OLIMEX_Start/src/core_cm3.h **** 
1119:/home/bekeband/workspace/OLIMEX_Start/src/core_cm3.h **** #define MPU_RASR_TEX_Pos                   19                                             /*!< MPU 
1120:/home/bekeband/workspace/OLIMEX_Start/src/core_cm3.h **** #define MPU_RASR_TEX_Msk                   (0x7UL << MPU_RASR_TEX_Pos)                    /*!< MPU 
1121:/home/bekeband/workspace/OLIMEX_Start/src/core_cm3.h **** 
1122:/home/bekeband/workspace/OLIMEX_Start/src/core_cm3.h **** #define MPU_RASR_S_Pos                     18                                             /*!< MPU 
1123:/home/bekeband/workspace/OLIMEX_Start/src/core_cm3.h **** #define MPU_RASR_S_Msk                     (1UL << MPU_RASR_S_Pos)                        /*!< MPU 
1124:/home/bekeband/workspace/OLIMEX_Start/src/core_cm3.h **** 
1125:/home/bekeband/workspace/OLIMEX_Start/src/core_cm3.h **** #define MPU_RASR_C_Pos                     17                                             /*!< MPU 
1126:/home/bekeband/workspace/OLIMEX_Start/src/core_cm3.h **** #define MPU_RASR_C_Msk                     (1UL << MPU_RASR_C_Pos)                        /*!< MPU 
1127:/home/bekeband/workspace/OLIMEX_Start/src/core_cm3.h **** 
1128:/home/bekeband/workspace/OLIMEX_Start/src/core_cm3.h **** #define MPU_RASR_B_Pos                     16                                             /*!< MPU 
1129:/home/bekeband/workspace/OLIMEX_Start/src/core_cm3.h **** #define MPU_RASR_B_Msk                     (1UL << MPU_RASR_B_Pos)                        /*!< MPU 
1130:/home/bekeband/workspace/OLIMEX_Start/src/core_cm3.h **** 
1131:/home/bekeband/workspace/OLIMEX_Start/src/core_cm3.h **** #define MPU_RASR_SRD_Pos                    8                                             /*!< MPU 
1132:/home/bekeband/workspace/OLIMEX_Start/src/core_cm3.h **** #define MPU_RASR_SRD_Msk                   (0xFFUL << MPU_RASR_SRD_Pos)                   /*!< MPU 
1133:/home/bekeband/workspace/OLIMEX_Start/src/core_cm3.h **** 
1134:/home/bekeband/workspace/OLIMEX_Start/src/core_cm3.h **** #define MPU_RASR_SIZE_Pos                   1                                             /*!< MPU 
1135:/home/bekeband/workspace/OLIMEX_Start/src/core_cm3.h **** #define MPU_RASR_SIZE_Msk                  (0x1FUL << MPU_RASR_SIZE_Pos)                  /*!< MPU 
1136:/home/bekeband/workspace/OLIMEX_Start/src/core_cm3.h **** 
1137:/home/bekeband/workspace/OLIMEX_Start/src/core_cm3.h **** #define MPU_RASR_ENABLE_Pos                 0                                             /*!< MPU 
1138:/home/bekeband/workspace/OLIMEX_Start/src/core_cm3.h **** #define MPU_RASR_ENABLE_Msk                (1UL << MPU_RASR_ENABLE_Pos)                   /*!< MPU 
1139:/home/bekeband/workspace/OLIMEX_Start/src/core_cm3.h **** 
1140:/home/bekeband/workspace/OLIMEX_Start/src/core_cm3.h **** /*@} end of group CMSIS_MPU */
1141:/home/bekeband/workspace/OLIMEX_Start/src/core_cm3.h **** #endif
1142:/home/bekeband/workspace/OLIMEX_Start/src/core_cm3.h **** 
1143:/home/bekeband/workspace/OLIMEX_Start/src/core_cm3.h **** 
1144:/home/bekeband/workspace/OLIMEX_Start/src/core_cm3.h **** /** \ingroup  CMSIS_core_register
1145:/home/bekeband/workspace/OLIMEX_Start/src/core_cm3.h ****     \defgroup CMSIS_CoreDebug       Core Debug Registers (CoreDebug)
1146:/home/bekeband/workspace/OLIMEX_Start/src/core_cm3.h ****     \brief      Type definitions for the Core Debug Registers
1147:/home/bekeband/workspace/OLIMEX_Start/src/core_cm3.h ****   @{
1148:/home/bekeband/workspace/OLIMEX_Start/src/core_cm3.h ****  */
1149:/home/bekeband/workspace/OLIMEX_Start/src/core_cm3.h **** 
1150:/home/bekeband/workspace/OLIMEX_Start/src/core_cm3.h **** /** \brief  Structure type to access the Core Debug Register (CoreDebug).
1151:/home/bekeband/workspace/OLIMEX_Start/src/core_cm3.h ****  */
1152:/home/bekeband/workspace/OLIMEX_Start/src/core_cm3.h **** typedef struct
1153:/home/bekeband/workspace/OLIMEX_Start/src/core_cm3.h **** {
1154:/home/bekeband/workspace/OLIMEX_Start/src/core_cm3.h ****   __IO uint32_t DHCSR;                   /*!< Offset: 0x000 (R/W)  Debug Halting Control and Status
1155:/home/bekeband/workspace/OLIMEX_Start/src/core_cm3.h ****   __O  uint32_t DCRSR;                   /*!< Offset: 0x004 ( /W)  Debug Core Register Selector Reg
1156:/home/bekeband/workspace/OLIMEX_Start/src/core_cm3.h ****   __IO uint32_t DCRDR;                   /*!< Offset: 0x008 (R/W)  Debug Core Register Data Registe
1157:/home/bekeband/workspace/OLIMEX_Start/src/core_cm3.h ****   __IO uint32_t DEMCR;                   /*!< Offset: 0x00C (R/W)  Debug Exception and Monitor Cont
1158:/home/bekeband/workspace/OLIMEX_Start/src/core_cm3.h **** } CoreDebug_Type;
1159:/home/bekeband/workspace/OLIMEX_Start/src/core_cm3.h **** 
1160:/home/bekeband/workspace/OLIMEX_Start/src/core_cm3.h **** /* Debug Halting Control and Status Register */
1161:/home/bekeband/workspace/OLIMEX_Start/src/core_cm3.h **** #define CoreDebug_DHCSR_DBGKEY_Pos         16                                             /*!< Core
1162:/home/bekeband/workspace/OLIMEX_Start/src/core_cm3.h **** #define CoreDebug_DHCSR_DBGKEY_Msk         (0xFFFFUL << CoreDebug_DHCSR_DBGKEY_Pos)       /*!< Core
1163:/home/bekeband/workspace/OLIMEX_Start/src/core_cm3.h **** 
1164:/home/bekeband/workspace/OLIMEX_Start/src/core_cm3.h **** #define CoreDebug_DHCSR_S_RESET_ST_Pos     25                                             /*!< Core
1165:/home/bekeband/workspace/OLIMEX_Start/src/core_cm3.h **** #define CoreDebug_DHCSR_S_RESET_ST_Msk     (1UL << CoreDebug_DHCSR_S_RESET_ST_Pos)        /*!< Core
1166:/home/bekeband/workspace/OLIMEX_Start/src/core_cm3.h **** 
1167:/home/bekeband/workspace/OLIMEX_Start/src/core_cm3.h **** #define CoreDebug_DHCSR_S_RETIRE_ST_Pos    24                                             /*!< Core
1168:/home/bekeband/workspace/OLIMEX_Start/src/core_cm3.h **** #define CoreDebug_DHCSR_S_RETIRE_ST_Msk    (1UL << CoreDebug_DHCSR_S_RETIRE_ST_Pos)       /*!< Core
1169:/home/bekeband/workspace/OLIMEX_Start/src/core_cm3.h **** 
1170:/home/bekeband/workspace/OLIMEX_Start/src/core_cm3.h **** #define CoreDebug_DHCSR_S_LOCKUP_Pos       19                                             /*!< Core
1171:/home/bekeband/workspace/OLIMEX_Start/src/core_cm3.h **** #define CoreDebug_DHCSR_S_LOCKUP_Msk       (1UL << CoreDebug_DHCSR_S_LOCKUP_Pos)          /*!< Core
1172:/home/bekeband/workspace/OLIMEX_Start/src/core_cm3.h **** 
1173:/home/bekeband/workspace/OLIMEX_Start/src/core_cm3.h **** #define CoreDebug_DHCSR_S_SLEEP_Pos        18                                             /*!< Core
1174:/home/bekeband/workspace/OLIMEX_Start/src/core_cm3.h **** #define CoreDebug_DHCSR_S_SLEEP_Msk        (1UL << CoreDebug_DHCSR_S_SLEEP_Pos)           /*!< Core
1175:/home/bekeband/workspace/OLIMEX_Start/src/core_cm3.h **** 
1176:/home/bekeband/workspace/OLIMEX_Start/src/core_cm3.h **** #define CoreDebug_DHCSR_S_HALT_Pos         17                                             /*!< Core
1177:/home/bekeband/workspace/OLIMEX_Start/src/core_cm3.h **** #define CoreDebug_DHCSR_S_HALT_Msk         (1UL << CoreDebug_DHCSR_S_HALT_Pos)            /*!< Core
1178:/home/bekeband/workspace/OLIMEX_Start/src/core_cm3.h **** 
1179:/home/bekeband/workspace/OLIMEX_Start/src/core_cm3.h **** #define CoreDebug_DHCSR_S_REGRDY_Pos       16                                             /*!< Core
1180:/home/bekeband/workspace/OLIMEX_Start/src/core_cm3.h **** #define CoreDebug_DHCSR_S_REGRDY_Msk       (1UL << CoreDebug_DHCSR_S_REGRDY_Pos)          /*!< Core
1181:/home/bekeband/workspace/OLIMEX_Start/src/core_cm3.h **** 
1182:/home/bekeband/workspace/OLIMEX_Start/src/core_cm3.h **** #define CoreDebug_DHCSR_C_SNAPSTALL_Pos     5                                             /*!< Core
1183:/home/bekeband/workspace/OLIMEX_Start/src/core_cm3.h **** #define CoreDebug_DHCSR_C_SNAPSTALL_Msk    (1UL << CoreDebug_DHCSR_C_SNAPSTALL_Pos)       /*!< Core
1184:/home/bekeband/workspace/OLIMEX_Start/src/core_cm3.h **** 
1185:/home/bekeband/workspace/OLIMEX_Start/src/core_cm3.h **** #define CoreDebug_DHCSR_C_MASKINTS_Pos      3                                             /*!< Core
1186:/home/bekeband/workspace/OLIMEX_Start/src/core_cm3.h **** #define CoreDebug_DHCSR_C_MASKINTS_Msk     (1UL << CoreDebug_DHCSR_C_MASKINTS_Pos)        /*!< Core
1187:/home/bekeband/workspace/OLIMEX_Start/src/core_cm3.h **** 
1188:/home/bekeband/workspace/OLIMEX_Start/src/core_cm3.h **** #define CoreDebug_DHCSR_C_STEP_Pos          2                                             /*!< Core
1189:/home/bekeband/workspace/OLIMEX_Start/src/core_cm3.h **** #define CoreDebug_DHCSR_C_STEP_Msk         (1UL << CoreDebug_DHCSR_C_STEP_Pos)            /*!< Core
1190:/home/bekeband/workspace/OLIMEX_Start/src/core_cm3.h **** 
1191:/home/bekeband/workspace/OLIMEX_Start/src/core_cm3.h **** #define CoreDebug_DHCSR_C_HALT_Pos          1                                             /*!< Core
1192:/home/bekeband/workspace/OLIMEX_Start/src/core_cm3.h **** #define CoreDebug_DHCSR_C_HALT_Msk         (1UL << CoreDebug_DHCSR_C_HALT_Pos)            /*!< Core
1193:/home/bekeband/workspace/OLIMEX_Start/src/core_cm3.h **** 
1194:/home/bekeband/workspace/OLIMEX_Start/src/core_cm3.h **** #define CoreDebug_DHCSR_C_DEBUGEN_Pos       0                                             /*!< Core
1195:/home/bekeband/workspace/OLIMEX_Start/src/core_cm3.h **** #define CoreDebug_DHCSR_C_DEBUGEN_Msk      (1UL << CoreDebug_DHCSR_C_DEBUGEN_Pos)         /*!< Core
1196:/home/bekeband/workspace/OLIMEX_Start/src/core_cm3.h **** 
1197:/home/bekeband/workspace/OLIMEX_Start/src/core_cm3.h **** /* Debug Core Register Selector Register */
1198:/home/bekeband/workspace/OLIMEX_Start/src/core_cm3.h **** #define CoreDebug_DCRSR_REGWnR_Pos         16                                             /*!< Core
1199:/home/bekeband/workspace/OLIMEX_Start/src/core_cm3.h **** #define CoreDebug_DCRSR_REGWnR_Msk         (1UL << CoreDebug_DCRSR_REGWnR_Pos)            /*!< Core
1200:/home/bekeband/workspace/OLIMEX_Start/src/core_cm3.h **** 
1201:/home/bekeband/workspace/OLIMEX_Start/src/core_cm3.h **** #define CoreDebug_DCRSR_REGSEL_Pos          0                                             /*!< Core
1202:/home/bekeband/workspace/OLIMEX_Start/src/core_cm3.h **** #define CoreDebug_DCRSR_REGSEL_Msk         (0x1FUL << CoreDebug_DCRSR_REGSEL_Pos)         /*!< Core
1203:/home/bekeband/workspace/OLIMEX_Start/src/core_cm3.h **** 
1204:/home/bekeband/workspace/OLIMEX_Start/src/core_cm3.h **** /* Debug Exception and Monitor Control Register */
1205:/home/bekeband/workspace/OLIMEX_Start/src/core_cm3.h **** #define CoreDebug_DEMCR_TRCENA_Pos         24                                             /*!< Core
1206:/home/bekeband/workspace/OLIMEX_Start/src/core_cm3.h **** #define CoreDebug_DEMCR_TRCENA_Msk         (1UL << CoreDebug_DEMCR_TRCENA_Pos)            /*!< Core
1207:/home/bekeband/workspace/OLIMEX_Start/src/core_cm3.h **** 
1208:/home/bekeband/workspace/OLIMEX_Start/src/core_cm3.h **** #define CoreDebug_DEMCR_MON_REQ_Pos        19                                             /*!< Core
1209:/home/bekeband/workspace/OLIMEX_Start/src/core_cm3.h **** #define CoreDebug_DEMCR_MON_REQ_Msk        (1UL << CoreDebug_DEMCR_MON_REQ_Pos)           /*!< Core
1210:/home/bekeband/workspace/OLIMEX_Start/src/core_cm3.h **** 
1211:/home/bekeband/workspace/OLIMEX_Start/src/core_cm3.h **** #define CoreDebug_DEMCR_MON_STEP_Pos       18                                             /*!< Core
1212:/home/bekeband/workspace/OLIMEX_Start/src/core_cm3.h **** #define CoreDebug_DEMCR_MON_STEP_Msk       (1UL << CoreDebug_DEMCR_MON_STEP_Pos)          /*!< Core
1213:/home/bekeband/workspace/OLIMEX_Start/src/core_cm3.h **** 
1214:/home/bekeband/workspace/OLIMEX_Start/src/core_cm3.h **** #define CoreDebug_DEMCR_MON_PEND_Pos       17                                             /*!< Core
1215:/home/bekeband/workspace/OLIMEX_Start/src/core_cm3.h **** #define CoreDebug_DEMCR_MON_PEND_Msk       (1UL << CoreDebug_DEMCR_MON_PEND_Pos)          /*!< Core
1216:/home/bekeband/workspace/OLIMEX_Start/src/core_cm3.h **** 
1217:/home/bekeband/workspace/OLIMEX_Start/src/core_cm3.h **** #define CoreDebug_DEMCR_MON_EN_Pos         16                                             /*!< Core
1218:/home/bekeband/workspace/OLIMEX_Start/src/core_cm3.h **** #define CoreDebug_DEMCR_MON_EN_Msk         (1UL << CoreDebug_DEMCR_MON_EN_Pos)            /*!< Core
1219:/home/bekeband/workspace/OLIMEX_Start/src/core_cm3.h **** 
1220:/home/bekeband/workspace/OLIMEX_Start/src/core_cm3.h **** #define CoreDebug_DEMCR_VC_HARDERR_Pos     10                                             /*!< Core
1221:/home/bekeband/workspace/OLIMEX_Start/src/core_cm3.h **** #define CoreDebug_DEMCR_VC_HARDERR_Msk     (1UL << CoreDebug_DEMCR_VC_HARDERR_Pos)        /*!< Core
1222:/home/bekeband/workspace/OLIMEX_Start/src/core_cm3.h **** 
1223:/home/bekeband/workspace/OLIMEX_Start/src/core_cm3.h **** #define CoreDebug_DEMCR_VC_INTERR_Pos       9                                             /*!< Core
1224:/home/bekeband/workspace/OLIMEX_Start/src/core_cm3.h **** #define CoreDebug_DEMCR_VC_INTERR_Msk      (1UL << CoreDebug_DEMCR_VC_INTERR_Pos)         /*!< Core
1225:/home/bekeband/workspace/OLIMEX_Start/src/core_cm3.h **** 
1226:/home/bekeband/workspace/OLIMEX_Start/src/core_cm3.h **** #define CoreDebug_DEMCR_VC_BUSERR_Pos       8                                             /*!< Core
1227:/home/bekeband/workspace/OLIMEX_Start/src/core_cm3.h **** #define CoreDebug_DEMCR_VC_BUSERR_Msk      (1UL << CoreDebug_DEMCR_VC_BUSERR_Pos)         /*!< Core
1228:/home/bekeband/workspace/OLIMEX_Start/src/core_cm3.h **** 
1229:/home/bekeband/workspace/OLIMEX_Start/src/core_cm3.h **** #define CoreDebug_DEMCR_VC_STATERR_Pos      7                                             /*!< Core
1230:/home/bekeband/workspace/OLIMEX_Start/src/core_cm3.h **** #define CoreDebug_DEMCR_VC_STATERR_Msk     (1UL << CoreDebug_DEMCR_VC_STATERR_Pos)        /*!< Core
1231:/home/bekeband/workspace/OLIMEX_Start/src/core_cm3.h **** 
1232:/home/bekeband/workspace/OLIMEX_Start/src/core_cm3.h **** #define CoreDebug_DEMCR_VC_CHKERR_Pos       6                                             /*!< Core
1233:/home/bekeband/workspace/OLIMEX_Start/src/core_cm3.h **** #define CoreDebug_DEMCR_VC_CHKERR_Msk      (1UL << CoreDebug_DEMCR_VC_CHKERR_Pos)         /*!< Core
1234:/home/bekeband/workspace/OLIMEX_Start/src/core_cm3.h **** 
1235:/home/bekeband/workspace/OLIMEX_Start/src/core_cm3.h **** #define CoreDebug_DEMCR_VC_NOCPERR_Pos      5                                             /*!< Core
1236:/home/bekeband/workspace/OLIMEX_Start/src/core_cm3.h **** #define CoreDebug_DEMCR_VC_NOCPERR_Msk     (1UL << CoreDebug_DEMCR_VC_NOCPERR_Pos)        /*!< Core
1237:/home/bekeband/workspace/OLIMEX_Start/src/core_cm3.h **** 
1238:/home/bekeband/workspace/OLIMEX_Start/src/core_cm3.h **** #define CoreDebug_DEMCR_VC_MMERR_Pos        4                                             /*!< Core
1239:/home/bekeband/workspace/OLIMEX_Start/src/core_cm3.h **** #define CoreDebug_DEMCR_VC_MMERR_Msk       (1UL << CoreDebug_DEMCR_VC_MMERR_Pos)          /*!< Core
1240:/home/bekeband/workspace/OLIMEX_Start/src/core_cm3.h **** 
1241:/home/bekeband/workspace/OLIMEX_Start/src/core_cm3.h **** #define CoreDebug_DEMCR_VC_CORERESET_Pos    0                                             /*!< Core
1242:/home/bekeband/workspace/OLIMEX_Start/src/core_cm3.h **** #define CoreDebug_DEMCR_VC_CORERESET_Msk   (1UL << CoreDebug_DEMCR_VC_CORERESET_Pos)      /*!< Core
1243:/home/bekeband/workspace/OLIMEX_Start/src/core_cm3.h **** 
1244:/home/bekeband/workspace/OLIMEX_Start/src/core_cm3.h **** /*@} end of group CMSIS_CoreDebug */
1245:/home/bekeband/workspace/OLIMEX_Start/src/core_cm3.h **** 
1246:/home/bekeband/workspace/OLIMEX_Start/src/core_cm3.h **** 
1247:/home/bekeband/workspace/OLIMEX_Start/src/core_cm3.h **** /** \ingroup    CMSIS_core_register
1248:/home/bekeband/workspace/OLIMEX_Start/src/core_cm3.h ****     \defgroup   CMSIS_core_base     Core Definitions
1249:/home/bekeband/workspace/OLIMEX_Start/src/core_cm3.h ****     \brief      Definitions for base addresses, unions, and structures.
1250:/home/bekeband/workspace/OLIMEX_Start/src/core_cm3.h ****   @{
1251:/home/bekeband/workspace/OLIMEX_Start/src/core_cm3.h ****  */
1252:/home/bekeband/workspace/OLIMEX_Start/src/core_cm3.h **** 
1253:/home/bekeband/workspace/OLIMEX_Start/src/core_cm3.h **** /* Memory mapping of Cortex-M3 Hardware */
1254:/home/bekeband/workspace/OLIMEX_Start/src/core_cm3.h **** #define SCS_BASE            (0xE000E000UL)                            /*!< System Control Space Bas
1255:/home/bekeband/workspace/OLIMEX_Start/src/core_cm3.h **** #define ITM_BASE            (0xE0000000UL)                            /*!< ITM Base Address        
1256:/home/bekeband/workspace/OLIMEX_Start/src/core_cm3.h **** #define DWT_BASE            (0xE0001000UL)                            /*!< DWT Base Address        
1257:/home/bekeband/workspace/OLIMEX_Start/src/core_cm3.h **** #define TPI_BASE            (0xE0040000UL)                            /*!< TPI Base Address        
1258:/home/bekeband/workspace/OLIMEX_Start/src/core_cm3.h **** #define CoreDebug_BASE      (0xE000EDF0UL)                            /*!< Core Debug Base Address 
1259:/home/bekeband/workspace/OLIMEX_Start/src/core_cm3.h **** #define SysTick_BASE        (SCS_BASE +  0x0010UL)                    /*!< SysTick Base Address    
1260:/home/bekeband/workspace/OLIMEX_Start/src/core_cm3.h **** #define NVIC_BASE           (SCS_BASE +  0x0100UL)                    /*!< NVIC Base Address       
1261:/home/bekeband/workspace/OLIMEX_Start/src/core_cm3.h **** #define SCB_BASE            (SCS_BASE +  0x0D00UL)                    /*!< System Control Block Bas
1262:/home/bekeband/workspace/OLIMEX_Start/src/core_cm3.h **** 
1263:/home/bekeband/workspace/OLIMEX_Start/src/core_cm3.h **** #define SCnSCB              ((SCnSCB_Type    *)     SCS_BASE      )   /*!< System control Register 
1264:/home/bekeband/workspace/OLIMEX_Start/src/core_cm3.h **** #define SCB                 ((SCB_Type       *)     SCB_BASE      )   /*!< SCB configuration struct
1265:/home/bekeband/workspace/OLIMEX_Start/src/core_cm3.h **** #define SysTick             ((SysTick_Type   *)     SysTick_BASE  )   /*!< SysTick configuration st
1266:/home/bekeband/workspace/OLIMEX_Start/src/core_cm3.h **** #define NVIC                ((NVIC_Type      *)     NVIC_BASE     )   /*!< NVIC configuration struc
1267:/home/bekeband/workspace/OLIMEX_Start/src/core_cm3.h **** #define ITM                 ((ITM_Type       *)     ITM_BASE      )   /*!< ITM configuration struct
1268:/home/bekeband/workspace/OLIMEX_Start/src/core_cm3.h **** #define DWT                 ((DWT_Type       *)     DWT_BASE      )   /*!< DWT configuration struct
1269:/home/bekeband/workspace/OLIMEX_Start/src/core_cm3.h **** #define TPI                 ((TPI_Type       *)     TPI_BASE      )   /*!< TPI configuration struct
1270:/home/bekeband/workspace/OLIMEX_Start/src/core_cm3.h **** #define CoreDebug           ((CoreDebug_Type *)     CoreDebug_BASE)   /*!< Core Debug configuration
1271:/home/bekeband/workspace/OLIMEX_Start/src/core_cm3.h **** 
1272:/home/bekeband/workspace/OLIMEX_Start/src/core_cm3.h **** #if (__MPU_PRESENT == 1)
1273:/home/bekeband/workspace/OLIMEX_Start/src/core_cm3.h ****   #define MPU_BASE          (SCS_BASE +  0x0D90UL)                    /*!< Memory Protection Unit  
1274:/home/bekeband/workspace/OLIMEX_Start/src/core_cm3.h ****   #define MPU               ((MPU_Type       *)     MPU_BASE      )   /*!< Memory Protection Unit  
1275:/home/bekeband/workspace/OLIMEX_Start/src/core_cm3.h **** #endif
1276:/home/bekeband/workspace/OLIMEX_Start/src/core_cm3.h **** 
1277:/home/bekeband/workspace/OLIMEX_Start/src/core_cm3.h **** /*@} */
1278:/home/bekeband/workspace/OLIMEX_Start/src/core_cm3.h **** 
1279:/home/bekeband/workspace/OLIMEX_Start/src/core_cm3.h **** 
1280:/home/bekeband/workspace/OLIMEX_Start/src/core_cm3.h **** 
1281:/home/bekeband/workspace/OLIMEX_Start/src/core_cm3.h **** /*******************************************************************************
1282:/home/bekeband/workspace/OLIMEX_Start/src/core_cm3.h ****  *                Hardware Abstraction Layer
1283:/home/bekeband/workspace/OLIMEX_Start/src/core_cm3.h ****   Core Function Interface contains:
1284:/home/bekeband/workspace/OLIMEX_Start/src/core_cm3.h ****   - Core NVIC Functions
1285:/home/bekeband/workspace/OLIMEX_Start/src/core_cm3.h ****   - Core SysTick Functions
1286:/home/bekeband/workspace/OLIMEX_Start/src/core_cm3.h ****   - Core Debug Functions
1287:/home/bekeband/workspace/OLIMEX_Start/src/core_cm3.h ****   - Core Register Access Functions
1288:/home/bekeband/workspace/OLIMEX_Start/src/core_cm3.h ****  ******************************************************************************/
1289:/home/bekeband/workspace/OLIMEX_Start/src/core_cm3.h **** /** \defgroup CMSIS_Core_FunctionInterface Functions and Instructions Reference
1290:/home/bekeband/workspace/OLIMEX_Start/src/core_cm3.h **** */
1291:/home/bekeband/workspace/OLIMEX_Start/src/core_cm3.h **** 
1292:/home/bekeband/workspace/OLIMEX_Start/src/core_cm3.h **** 
1293:/home/bekeband/workspace/OLIMEX_Start/src/core_cm3.h **** 
1294:/home/bekeband/workspace/OLIMEX_Start/src/core_cm3.h **** /* ##########################   NVIC functions  #################################### */
1295:/home/bekeband/workspace/OLIMEX_Start/src/core_cm3.h **** /** \ingroup  CMSIS_Core_FunctionInterface
1296:/home/bekeband/workspace/OLIMEX_Start/src/core_cm3.h ****     \defgroup CMSIS_Core_NVICFunctions NVIC Functions
1297:/home/bekeband/workspace/OLIMEX_Start/src/core_cm3.h ****     \brief      Functions that manage interrupts and exceptions via the NVIC.
1298:/home/bekeband/workspace/OLIMEX_Start/src/core_cm3.h ****     @{
1299:/home/bekeband/workspace/OLIMEX_Start/src/core_cm3.h ****  */
1300:/home/bekeband/workspace/OLIMEX_Start/src/core_cm3.h **** 
1301:/home/bekeband/workspace/OLIMEX_Start/src/core_cm3.h **** /** \brief  Set Priority Grouping
1302:/home/bekeband/workspace/OLIMEX_Start/src/core_cm3.h **** 
1303:/home/bekeband/workspace/OLIMEX_Start/src/core_cm3.h ****   The function sets the priority grouping field using the required unlock sequence.
1304:/home/bekeband/workspace/OLIMEX_Start/src/core_cm3.h ****   The parameter PriorityGroup is assigned to the field SCB->AIRCR [10:8] PRIGROUP field.
1305:/home/bekeband/workspace/OLIMEX_Start/src/core_cm3.h ****   Only values from 0..7 are used.
1306:/home/bekeband/workspace/OLIMEX_Start/src/core_cm3.h ****   In case of a conflict between priority grouping and available
1307:/home/bekeband/workspace/OLIMEX_Start/src/core_cm3.h ****   priority bits (__NVIC_PRIO_BITS), the smallest possible priority group is set.
1308:/home/bekeband/workspace/OLIMEX_Start/src/core_cm3.h **** 
1309:/home/bekeband/workspace/OLIMEX_Start/src/core_cm3.h ****     \param [in]      PriorityGroup  Priority grouping field.
1310:/home/bekeband/workspace/OLIMEX_Start/src/core_cm3.h ****  */
1311:/home/bekeband/workspace/OLIMEX_Start/src/core_cm3.h **** __STATIC_INLINE void NVIC_SetPriorityGrouping(uint32_t PriorityGroup)
1312:/home/bekeband/workspace/OLIMEX_Start/src/core_cm3.h **** {
1313:/home/bekeband/workspace/OLIMEX_Start/src/core_cm3.h ****   uint32_t reg_value;
1314:/home/bekeband/workspace/OLIMEX_Start/src/core_cm3.h ****   uint32_t PriorityGroupTmp = (PriorityGroup & (uint32_t)0x07);               /* only values 0..7 a
1315:/home/bekeband/workspace/OLIMEX_Start/src/core_cm3.h **** 
1316:/home/bekeband/workspace/OLIMEX_Start/src/core_cm3.h ****   reg_value  =  SCB->AIRCR;                                                   /* read old register 
1317:/home/bekeband/workspace/OLIMEX_Start/src/core_cm3.h ****   reg_value &= ~(SCB_AIRCR_VECTKEY_Msk | SCB_AIRCR_PRIGROUP_Msk);             /* clear bits to chan
1318:/home/bekeband/workspace/OLIMEX_Start/src/core_cm3.h ****   reg_value  =  (reg_value                                 |
1319:/home/bekeband/workspace/OLIMEX_Start/src/core_cm3.h ****                 ((uint32_t)0x5FA << SCB_AIRCR_VECTKEY_Pos) |
1320:/home/bekeband/workspace/OLIMEX_Start/src/core_cm3.h ****                 (PriorityGroupTmp << 8));                                     /* Insert write key a
1321:/home/bekeband/workspace/OLIMEX_Start/src/core_cm3.h ****   SCB->AIRCR =  reg_value;
1322:/home/bekeband/workspace/OLIMEX_Start/src/core_cm3.h **** }
1323:/home/bekeband/workspace/OLIMEX_Start/src/core_cm3.h **** 
1324:/home/bekeband/workspace/OLIMEX_Start/src/core_cm3.h **** 
1325:/home/bekeband/workspace/OLIMEX_Start/src/core_cm3.h **** /** \brief  Get Priority Grouping
1326:/home/bekeband/workspace/OLIMEX_Start/src/core_cm3.h **** 
1327:/home/bekeband/workspace/OLIMEX_Start/src/core_cm3.h ****   The function reads the priority grouping field from the NVIC Interrupt Controller.
1328:/home/bekeband/workspace/OLIMEX_Start/src/core_cm3.h **** 
1329:/home/bekeband/workspace/OLIMEX_Start/src/core_cm3.h ****     \return                Priority grouping field (SCB->AIRCR [10:8] PRIGROUP field).
1330:/home/bekeband/workspace/OLIMEX_Start/src/core_cm3.h ****  */
1331:/home/bekeband/workspace/OLIMEX_Start/src/core_cm3.h **** __STATIC_INLINE uint32_t NVIC_GetPriorityGrouping(void)
1332:/home/bekeband/workspace/OLIMEX_Start/src/core_cm3.h **** {
1333:/home/bekeband/workspace/OLIMEX_Start/src/core_cm3.h ****   return ((SCB->AIRCR & SCB_AIRCR_PRIGROUP_Msk) >> SCB_AIRCR_PRIGROUP_Pos);   /* read priority grou
1334:/home/bekeband/workspace/OLIMEX_Start/src/core_cm3.h **** }
1335:/home/bekeband/workspace/OLIMEX_Start/src/core_cm3.h **** 
1336:/home/bekeband/workspace/OLIMEX_Start/src/core_cm3.h **** 
1337:/home/bekeband/workspace/OLIMEX_Start/src/core_cm3.h **** /** \brief  Enable External Interrupt
1338:/home/bekeband/workspace/OLIMEX_Start/src/core_cm3.h **** 
1339:/home/bekeband/workspace/OLIMEX_Start/src/core_cm3.h ****     The function enables a device-specific interrupt in the NVIC interrupt controller.
1340:/home/bekeband/workspace/OLIMEX_Start/src/core_cm3.h **** 
1341:/home/bekeband/workspace/OLIMEX_Start/src/core_cm3.h ****     \param [in]      IRQn  External interrupt number. Value cannot be negative.
1342:/home/bekeband/workspace/OLIMEX_Start/src/core_cm3.h ****  */
1343:/home/bekeband/workspace/OLIMEX_Start/src/core_cm3.h **** __STATIC_INLINE void NVIC_EnableIRQ(IRQn_Type IRQn)
1344:/home/bekeband/workspace/OLIMEX_Start/src/core_cm3.h **** {
1345:/home/bekeband/workspace/OLIMEX_Start/src/core_cm3.h ****   NVIC->ISER[((uint32_t)(IRQn) >> 5)] = (1 << ((uint32_t)(IRQn) & 0x1F)); /* enable interrupt */
1346:/home/bekeband/workspace/OLIMEX_Start/src/core_cm3.h **** }
1347:/home/bekeband/workspace/OLIMEX_Start/src/core_cm3.h **** 
1348:/home/bekeband/workspace/OLIMEX_Start/src/core_cm3.h **** 
1349:/home/bekeband/workspace/OLIMEX_Start/src/core_cm3.h **** /** \brief  Disable External Interrupt
1350:/home/bekeband/workspace/OLIMEX_Start/src/core_cm3.h **** 
1351:/home/bekeband/workspace/OLIMEX_Start/src/core_cm3.h ****     The function disables a device-specific interrupt in the NVIC interrupt controller.
1352:/home/bekeband/workspace/OLIMEX_Start/src/core_cm3.h **** 
1353:/home/bekeband/workspace/OLIMEX_Start/src/core_cm3.h ****     \param [in]      IRQn  External interrupt number. Value cannot be negative.
1354:/home/bekeband/workspace/OLIMEX_Start/src/core_cm3.h ****  */
1355:/home/bekeband/workspace/OLIMEX_Start/src/core_cm3.h **** __STATIC_INLINE void NVIC_DisableIRQ(IRQn_Type IRQn)
1356:/home/bekeband/workspace/OLIMEX_Start/src/core_cm3.h **** {
1357:/home/bekeband/workspace/OLIMEX_Start/src/core_cm3.h ****   NVIC->ICER[((uint32_t)(IRQn) >> 5)] = (1 << ((uint32_t)(IRQn) & 0x1F)); /* disable interrupt */
 1276              		.loc 3 1357 0
 1277 004a 5F4B     		ldr	r3, .L101+8
 1278 004c 0125     		movs	r5, #1
 1279 004e C3F88050 		str	r5, [r3, #128]
 1280              	.LVL133:
 1281              	.LBE36:
 1282              	.LBE35:
 1283              	.LBB37:
 1284              	.LBB38:
1358:/home/bekeband/workspace/OLIMEX_Start/src/core_cm3.h **** }
1359:/home/bekeband/workspace/OLIMEX_Start/src/core_cm3.h **** 
1360:/home/bekeband/workspace/OLIMEX_Start/src/core_cm3.h **** 
1361:/home/bekeband/workspace/OLIMEX_Start/src/core_cm3.h **** /** \brief  Get Pending Interrupt
1362:/home/bekeband/workspace/OLIMEX_Start/src/core_cm3.h **** 
1363:/home/bekeband/workspace/OLIMEX_Start/src/core_cm3.h ****     The function reads the pending register in the NVIC and returns the pending bit
1364:/home/bekeband/workspace/OLIMEX_Start/src/core_cm3.h ****     for the specified interrupt.
1365:/home/bekeband/workspace/OLIMEX_Start/src/core_cm3.h **** 
1366:/home/bekeband/workspace/OLIMEX_Start/src/core_cm3.h ****     \param [in]      IRQn  Interrupt number.
1367:/home/bekeband/workspace/OLIMEX_Start/src/core_cm3.h **** 
1368:/home/bekeband/workspace/OLIMEX_Start/src/core_cm3.h ****     \return             0  Interrupt status is not pending.
1369:/home/bekeband/workspace/OLIMEX_Start/src/core_cm3.h ****     \return             1  Interrupt status is pending.
1370:/home/bekeband/workspace/OLIMEX_Start/src/core_cm3.h ****  */
1371:/home/bekeband/workspace/OLIMEX_Start/src/core_cm3.h **** __STATIC_INLINE uint32_t NVIC_GetPendingIRQ(IRQn_Type IRQn)
1372:/home/bekeband/workspace/OLIMEX_Start/src/core_cm3.h **** {
1373:/home/bekeband/workspace/OLIMEX_Start/src/core_cm3.h ****   return((uint32_t) ((NVIC->ISPR[(uint32_t)(IRQn) >> 5] & (1 << ((uint32_t)(IRQn) & 0x1F)))?1:0)); 
1374:/home/bekeband/workspace/OLIMEX_Start/src/core_cm3.h **** }
1375:/home/bekeband/workspace/OLIMEX_Start/src/core_cm3.h **** 
1376:/home/bekeband/workspace/OLIMEX_Start/src/core_cm3.h **** 
1377:/home/bekeband/workspace/OLIMEX_Start/src/core_cm3.h **** /** \brief  Set Pending Interrupt
1378:/home/bekeband/workspace/OLIMEX_Start/src/core_cm3.h **** 
1379:/home/bekeband/workspace/OLIMEX_Start/src/core_cm3.h ****     The function sets the pending bit of an external interrupt.
1380:/home/bekeband/workspace/OLIMEX_Start/src/core_cm3.h **** 
1381:/home/bekeband/workspace/OLIMEX_Start/src/core_cm3.h ****     \param [in]      IRQn  Interrupt number. Value cannot be negative.
1382:/home/bekeband/workspace/OLIMEX_Start/src/core_cm3.h ****  */
1383:/home/bekeband/workspace/OLIMEX_Start/src/core_cm3.h **** __STATIC_INLINE void NVIC_SetPendingIRQ(IRQn_Type IRQn)
1384:/home/bekeband/workspace/OLIMEX_Start/src/core_cm3.h **** {
1385:/home/bekeband/workspace/OLIMEX_Start/src/core_cm3.h ****   NVIC->ISPR[((uint32_t)(IRQn) >> 5)] = (1 << ((uint32_t)(IRQn) & 0x1F)); /* set interrupt pending 
1386:/home/bekeband/workspace/OLIMEX_Start/src/core_cm3.h **** }
1387:/home/bekeband/workspace/OLIMEX_Start/src/core_cm3.h **** 
1388:/home/bekeband/workspace/OLIMEX_Start/src/core_cm3.h **** 
1389:/home/bekeband/workspace/OLIMEX_Start/src/core_cm3.h **** /** \brief  Clear Pending Interrupt
1390:/home/bekeband/workspace/OLIMEX_Start/src/core_cm3.h **** 
1391:/home/bekeband/workspace/OLIMEX_Start/src/core_cm3.h ****     The function clears the pending bit of an external interrupt.
1392:/home/bekeband/workspace/OLIMEX_Start/src/core_cm3.h **** 
1393:/home/bekeband/workspace/OLIMEX_Start/src/core_cm3.h ****     \param [in]      IRQn  External interrupt number. Value cannot be negative.
1394:/home/bekeband/workspace/OLIMEX_Start/src/core_cm3.h ****  */
1395:/home/bekeband/workspace/OLIMEX_Start/src/core_cm3.h **** __STATIC_INLINE void NVIC_ClearPendingIRQ(IRQn_Type IRQn)
1396:/home/bekeband/workspace/OLIMEX_Start/src/core_cm3.h **** {
1397:/home/bekeband/workspace/OLIMEX_Start/src/core_cm3.h ****   NVIC->ICPR[((uint32_t)(IRQn) >> 5)] = (1 << ((uint32_t)(IRQn) & 0x1F)); /* Clear pending interrup
 1285              		.loc 3 1397 0
 1286 0052 C3F88051 		str	r5, [r3, #384]
 1287              	.LVL134:
 1288              	.LBE38:
 1289              	.LBE37:
 1290              	.LBB39:
 1291              	.LBB40:
1398:/home/bekeband/workspace/OLIMEX_Start/src/core_cm3.h **** }
1399:/home/bekeband/workspace/OLIMEX_Start/src/core_cm3.h **** 
1400:/home/bekeband/workspace/OLIMEX_Start/src/core_cm3.h **** 
1401:/home/bekeband/workspace/OLIMEX_Start/src/core_cm3.h **** /** \brief  Get Active Interrupt
1402:/home/bekeband/workspace/OLIMEX_Start/src/core_cm3.h **** 
1403:/home/bekeband/workspace/OLIMEX_Start/src/core_cm3.h ****     The function reads the active register in NVIC and returns the active bit.
1404:/home/bekeband/workspace/OLIMEX_Start/src/core_cm3.h **** 
1405:/home/bekeband/workspace/OLIMEX_Start/src/core_cm3.h ****     \param [in]      IRQn  Interrupt number.
1406:/home/bekeband/workspace/OLIMEX_Start/src/core_cm3.h **** 
1407:/home/bekeband/workspace/OLIMEX_Start/src/core_cm3.h ****     \return             0  Interrupt status is not active.
1408:/home/bekeband/workspace/OLIMEX_Start/src/core_cm3.h ****     \return             1  Interrupt status is active.
1409:/home/bekeband/workspace/OLIMEX_Start/src/core_cm3.h ****  */
1410:/home/bekeband/workspace/OLIMEX_Start/src/core_cm3.h **** __STATIC_INLINE uint32_t NVIC_GetActive(IRQn_Type IRQn)
1411:/home/bekeband/workspace/OLIMEX_Start/src/core_cm3.h **** {
1412:/home/bekeband/workspace/OLIMEX_Start/src/core_cm3.h ****   return((uint32_t)((NVIC->IABR[(uint32_t)(IRQn) >> 5] & (1 << ((uint32_t)(IRQn) & 0x1F)))?1:0)); /
1413:/home/bekeband/workspace/OLIMEX_Start/src/core_cm3.h **** }
1414:/home/bekeband/workspace/OLIMEX_Start/src/core_cm3.h **** 
1415:/home/bekeband/workspace/OLIMEX_Start/src/core_cm3.h **** 
1416:/home/bekeband/workspace/OLIMEX_Start/src/core_cm3.h **** /** \brief  Set Interrupt Priority
1417:/home/bekeband/workspace/OLIMEX_Start/src/core_cm3.h **** 
1418:/home/bekeband/workspace/OLIMEX_Start/src/core_cm3.h ****     The function sets the priority of an interrupt.
1419:/home/bekeband/workspace/OLIMEX_Start/src/core_cm3.h **** 
1420:/home/bekeband/workspace/OLIMEX_Start/src/core_cm3.h ****     \note The priority cannot be set for every core interrupt.
1421:/home/bekeband/workspace/OLIMEX_Start/src/core_cm3.h **** 
1422:/home/bekeband/workspace/OLIMEX_Start/src/core_cm3.h ****     \param [in]      IRQn  Interrupt number.
1423:/home/bekeband/workspace/OLIMEX_Start/src/core_cm3.h ****     \param [in]  priority  Priority to set.
1424:/home/bekeband/workspace/OLIMEX_Start/src/core_cm3.h ****  */
1425:/home/bekeband/workspace/OLIMEX_Start/src/core_cm3.h **** __STATIC_INLINE void NVIC_SetPriority(IRQn_Type IRQn, uint32_t priority)
1426:/home/bekeband/workspace/OLIMEX_Start/src/core_cm3.h **** {
1427:/home/bekeband/workspace/OLIMEX_Start/src/core_cm3.h ****   if(IRQn < 0) {
1428:/home/bekeband/workspace/OLIMEX_Start/src/core_cm3.h ****     SCB->SHP[((uint32_t)(IRQn) & 0xF)-4] = ((priority << (8 - __NVIC_PRIO_BITS)) & 0xff); } /* set 
1429:/home/bekeband/workspace/OLIMEX_Start/src/core_cm3.h ****   else {
1430:/home/bekeband/workspace/OLIMEX_Start/src/core_cm3.h ****     NVIC->IP[(uint32_t)(IRQn)] = ((priority << (8 - __NVIC_PRIO_BITS)) & 0xff);    }        /* set 
 1292              		.loc 3 1430 0
 1293 0056 83F80043 		strb	r4, [r3, #768]
 1294              	.LVL135:
 1295              	.LBE40:
 1296              	.LBE39:
 1297              	.LBB41:
 1298              	.LBB42:
1345:/home/bekeband/workspace/OLIMEX_Start/src/core_cm3.h **** }
 1299              		.loc 3 1345 0
 1300 005a 1D60     		str	r5, [r3]
 1301              	.LVL136:
 1302              	.LBE42:
 1303              	.LBE41:
 719:../src/sam/components/display/ili93xx/ili93xx.c ****     spi_master_setup_device(BOARD_ILI9341_SPI, &ILI9341_SPI_DEVICE, SPI_MODE_0, ILI9341_SPI_BAUDRAT
 1304              		.loc 1 719 0
 1305 005c 3846     		mov	r0, r7
 1306 005e FFF7FEFF 		bl	spi_master_init
 1307              	.LVL137:
 720:../src/sam/components/display/ili93xx/ili93xx.c ****     spi_select_device(BOARD_ILI9341_SPI, &ILI9341_SPI_DEVICE);
 1308              		.loc 1 720 0
 1309 0062 0094     		str	r4, [sp]
 1310 0064 594B     		ldr	r3, .L101+12
 1311 0066 2246     		mov	r2, r4
 1312 0068 4146     		mov	r1, r8
 1313 006a 3846     		mov	r0, r7
 1314 006c FFF7FEFF 		bl	spi_master_setup_device
 1315              	.LVL138:
 721:../src/sam/components/display/ili93xx/ili93xx.c **** 
 1316              		.loc 1 721 0
 1317 0070 4146     		mov	r1, r8
 1318 0072 3846     		mov	r0, r7
 1319 0074 FFF7FEFF 		bl	spi_select_device
 1320              	.LVL139:
 1321              	.LBB43:
 1322              	.LBB44:
 110:/home/bekeband/workspace/OLIMEX_Start/src/spi.h **** }
 1323              		.loc 2 110 0
 1324 0078 3D60     		str	r5, [r7]
 1325              	.LVL140:
 1326              	.LBE44:
 1327              	.LBE43:
 727:../src/sam/components/display/ili93xx/ili93xx.c ****     g_ul_lcd_y_length = ILI93XX_LCD_HEIGHT;
 1328              		.loc 1 727 0
 1329 007a F022     		movs	r2, #240
 1330 007c 544B     		ldr	r3, .L101+16
 1331 007e 1A60     		str	r2, [r3]
 728:../src/sam/components/display/ili93xx/ili93xx.c **** 
 1332              		.loc 1 728 0
 1333 0080 4FF4A072 		mov	r2, #320
 1334 0084 534B     		ldr	r3, .L101+20
 1335 0086 1A60     		str	r2, [r3]
 738:../src/sam/components/display/ili93xx/ili93xx.c ****     paratable[1] = 0x2C;
 1336              		.loc 1 738 0
 1337 0088 3923     		movs	r3, #57
 1338 008a 8DF81030 		strb	r3, [sp, #16]
 739:../src/sam/components/display/ili93xx/ili93xx.c ****     paratable[2] = 0x00;
 1339              		.loc 1 739 0
 1340 008e 2C23     		movs	r3, #44
 1341 0090 8DF81130 		strb	r3, [sp, #17]
 740:../src/sam/components/display/ili93xx/ili93xx.c ****     paratable[3] = 0x34;
 1342              		.loc 1 740 0
 1343 0094 8DF81240 		strb	r4, [sp, #18]
 741:../src/sam/components/display/ili93xx/ili93xx.c ****     paratable[4] = 0x02;
 1344              		.loc 1 741 0
 1345 0098 3423     		movs	r3, #52
 1346 009a 8DF81330 		strb	r3, [sp, #19]
 742:../src/sam/components/display/ili93xx/ili93xx.c ****     ili93xx_write_register_datas(ILI9341_CMD_POWER_CONTROL_A, paratable, 5);
 1347              		.loc 1 742 0
 1348 009e 8DF81460 		strb	r6, [sp, #20]
 743:../src/sam/components/display/ili93xx/ili93xx.c **** 
 1349              		.loc 1 743 0
 1350 00a2 0522     		movs	r2, #5
 1351 00a4 04A9     		add	r1, sp, #16
 1352 00a6 CB20     		movs	r0, #203
 1353 00a8 FFF7FEFF 		bl	ili93xx_write_register_datas
 1354              	.LVL141:
 746:../src/sam/components/display/ili93xx/ili93xx.c ****     paratable[1] = 0xAA;
 1355              		.loc 1 746 0
 1356 00ac 8DF81040 		strb	r4, [sp, #16]
 747:../src/sam/components/display/ili93xx/ili93xx.c ****     paratable[2] = 0xB0;
 1357              		.loc 1 747 0
 1358 00b0 AA23     		movs	r3, #170
 1359 00b2 8DF81130 		strb	r3, [sp, #17]
 748:../src/sam/components/display/ili93xx/ili93xx.c ****     ili93xx_write_register_datas(ILI9341_CMD_POWER_CONTROL_B, paratable, 3);
 1360              		.loc 1 748 0
 1361 00b6 B023     		movs	r3, #176
 1362 00b8 8DF81230 		strb	r3, [sp, #18]
 749:../src/sam/components/display/ili93xx/ili93xx.c **** 
 1363              		.loc 1 749 0
 1364 00bc 0322     		movs	r2, #3
 1365 00be 04A9     		add	r1, sp, #16
 1366 00c0 CF20     		movs	r0, #207
 1367 00c2 FFF7FEFF 		bl	ili93xx_write_register_datas
 1368              	.LVL142:
 752:../src/sam/components/display/ili93xx/ili93xx.c ****     ili93xx_write_register_datas(ILI9341_CMD_PUMP_RATIO_CONTROL, paratable, 1);
 1369              		.loc 1 752 0
 1370 00c6 3023     		movs	r3, #48
 1371 00c8 8DF81030 		strb	r3, [sp, #16]
 753:../src/sam/components/display/ili93xx/ili93xx.c **** 
 1372              		.loc 1 753 0
 1373 00cc 2A46     		mov	r2, r5
 1374 00ce 04A9     		add	r1, sp, #16
 1375 00d0 F720     		movs	r0, #247
 1376 00d2 FFF7FEFF 		bl	ili93xx_write_register_datas
 1377              	.LVL143:
 756:../src/sam/components/display/ili93xx/ili93xx.c ****     ili93xx_write_register_datas(ILI9341_CMD_POWER_CONTROL_1, paratable, 1);
 1378              		.loc 1 756 0
 1379 00d6 2523     		movs	r3, #37
 1380 00d8 8DF81030 		strb	r3, [sp, #16]
 757:../src/sam/components/display/ili93xx/ili93xx.c **** 
 1381              		.loc 1 757 0
 1382 00dc 2A46     		mov	r2, r5
 1383 00de 04A9     		add	r1, sp, #16
 1384 00e0 C020     		movs	r0, #192
 1385 00e2 FFF7FEFF 		bl	ili93xx_write_register_datas
 1386              	.LVL144:
 760:../src/sam/components/display/ili93xx/ili93xx.c ****     ili93xx_write_register_datas(ILI9341_CMD_POWER_CONTROL_2, paratable, 1);
 1387              		.loc 1 760 0
 1388 00e6 1127     		movs	r7, #17
 1389 00e8 8DF81070 		strb	r7, [sp, #16]
 761:../src/sam/components/display/ili93xx/ili93xx.c **** 
 1390              		.loc 1 761 0
 1391 00ec 2A46     		mov	r2, r5
 1392 00ee 04A9     		add	r1, sp, #16
 1393 00f0 C120     		movs	r0, #193
 1394 00f2 FFF7FEFF 		bl	ili93xx_write_register_datas
 1395              	.LVL145:
 764:../src/sam/components/display/ili93xx/ili93xx.c ****     paratable[1] = 0x4C;
 1396              		.loc 1 764 0
 1397 00f6 5C23     		movs	r3, #92
 1398 00f8 8DF81030 		strb	r3, [sp, #16]
 765:../src/sam/components/display/ili93xx/ili93xx.c ****     ili93xx_write_register_datas(ILI9341_CMD_VCOM_CONTROL_1, paratable, 2);
 1399              		.loc 1 765 0
 1400 00fc 4C23     		movs	r3, #76
 1401 00fe 8DF81130 		strb	r3, [sp, #17]
 766:../src/sam/components/display/ili93xx/ili93xx.c **** 
 1402              		.loc 1 766 0
 1403 0102 3246     		mov	r2, r6
 1404 0104 04A9     		add	r1, sp, #16
 1405 0106 C520     		movs	r0, #197
 1406 0108 FFF7FEFF 		bl	ili93xx_write_register_datas
 1407              	.LVL146:
 769:../src/sam/components/display/ili93xx/ili93xx.c ****     ili93xx_write_register_datas(ILI9341_CMD_VCOM_CONTROL_2, paratable, 1);
 1408              		.loc 1 769 0
 1409 010c 9423     		movs	r3, #148
 1410 010e 8DF81030 		strb	r3, [sp, #16]
 770:../src/sam/components/display/ili93xx/ili93xx.c **** 
 1411              		.loc 1 770 0
 1412 0112 2A46     		mov	r2, r5
 1413 0114 04A9     		add	r1, sp, #16
 1414 0116 C720     		movs	r0, #199
 1415 0118 FFF7FEFF 		bl	ili93xx_write_register_datas
 1416              	.LVL147:
 773:../src/sam/components/display/ili93xx/ili93xx.c ****     paratable[1] = 0x01;
 1417              		.loc 1 773 0
 1418 011c 8523     		movs	r3, #133
 1419 011e 8DF81030 		strb	r3, [sp, #16]
 774:../src/sam/components/display/ili93xx/ili93xx.c ****     paratable[2] = 0x78;
 1420              		.loc 1 774 0
 1421 0122 8DF81150 		strb	r5, [sp, #17]
 775:../src/sam/components/display/ili93xx/ili93xx.c ****     ili93xx_write_register_datas(ILI9341_CMD_DRIVER_TIMING_CTL_A, paratable, 3);
 1422              		.loc 1 775 0
 1423 0126 7823     		movs	r3, #120
 1424 0128 8DF81230 		strb	r3, [sp, #18]
 776:../src/sam/components/display/ili93xx/ili93xx.c **** 
 1425              		.loc 1 776 0
 1426 012c 0322     		movs	r2, #3
 1427 012e 04A9     		add	r1, sp, #16
 1428 0130 E820     		movs	r0, #232
 1429 0132 FFF7FEFF 		bl	ili93xx_write_register_datas
 1430              	.LVL148:
 779:../src/sam/components/display/ili93xx/ili93xx.c ****     paratable[1] = 0x00;
 1431              		.loc 1 779 0
 1432 0136 8DF81040 		strb	r4, [sp, #16]
 780:../src/sam/components/display/ili93xx/ili93xx.c ****     ili93xx_write_register_datas(ILI9341_CMD_DRIVER_TIMING_CTL_B, paratable, 2);
 1433              		.loc 1 780 0
 1434 013a 8DF81140 		strb	r4, [sp, #17]
 781:../src/sam/components/display/ili93xx/ili93xx.c **** 
 1435              		.loc 1 781 0
 1436 013e 3246     		mov	r2, r6
 1437 0140 04A9     		add	r1, sp, #16
 1438 0142 EA20     		movs	r0, #234
 1439 0144 FFF7FEFF 		bl	ili93xx_write_register_datas
 1440              	.LVL149:
 784:../src/sam/components/display/ili93xx/ili93xx.c ****     ili93xx_write_register_datas(ILI9341_CMD_MEMORY_ACCESS_CONTROL, paratable, 1);
 1441              		.loc 1 784 0
 1442 0148 4823     		movs	r3, #72
 1443 014a 8DF81030 		strb	r3, [sp, #16]
 785:../src/sam/components/display/ili93xx/ili93xx.c **** 
 1444              		.loc 1 785 0
 1445 014e 2A46     		mov	r2, r5
 1446 0150 04A9     		add	r1, sp, #16
 1447 0152 3620     		movs	r0, #54
 1448 0154 FFF7FEFF 		bl	ili93xx_write_register_datas
 1449              	.LVL150:
 789:../src/sam/components/display/ili93xx/ili93xx.c **** #endif
 1450              		.loc 1 789 0
 1451 0158 5523     		movs	r3, #85
 1452 015a 8DF81030 		strb	r3, [sp, #16]
 794:../src/sam/components/display/ili93xx/ili93xx.c **** 
 1453              		.loc 1 794 0
 1454 015e 2A46     		mov	r2, r5
 1455 0160 04A9     		add	r1, sp, #16
 1456 0162 3A20     		movs	r0, #58
 1457 0164 FFF7FEFF 		bl	ili93xx_write_register_datas
 1458              	.LVL151:
 797:../src/sam/components/display/ili93xx/ili93xx.c ****     paratable[1] = 0x82;
 1459              		.loc 1 797 0
 1460 0168 8DF81060 		strb	r6, [sp, #16]
 798:../src/sam/components/display/ili93xx/ili93xx.c ****     paratable[2] = 0x27;
 1461              		.loc 1 798 0
 1462 016c 8223     		movs	r3, #130
 1463 016e 8DF81130 		strb	r3, [sp, #17]
 799:../src/sam/components/display/ili93xx/ili93xx.c ****     paratable[3] = 0x00;
 1464              		.loc 1 799 0
 1465 0172 2723     		movs	r3, #39
 1466 0174 8DF81230 		strb	r3, [sp, #18]
 800:../src/sam/components/display/ili93xx/ili93xx.c ****     ili93xx_write_register_datas(ILI9341_CMD_DISPLAY_FUNCTION_CTL, paratable, 4);
 1467              		.loc 1 800 0
 1468 0178 8DF81340 		strb	r4, [sp, #19]
 801:../src/sam/components/display/ili93xx/ili93xx.c **** 
 1469              		.loc 1 801 0
 1470 017c 0422     		movs	r2, #4
 1471 017e 04A9     		add	r1, sp, #16
 1472 0180 B620     		movs	r0, #182
 1473 0182 FFF7FEFF 		bl	ili93xx_write_register_datas
 1474              	.LVL152:
 804:../src/sam/components/display/ili93xx/ili93xx.c ****     ili93xx_set_foreground_color(p_opt->foreground_color);
 1475              		.loc 1 804 0
 1476 0186 D9F80430 		ldr	r3, [r9, #4]
 1477 018a D9F80020 		ldr	r2, [r9]
 1478 018e 2146     		mov	r1, r4
 1479 0190 2046     		mov	r0, r4
 1480 0192 FFF7FEFF 		bl	ili93xx_set_window
 1481              	.LVL153:
 805:../src/sam/components/display/ili93xx/ili93xx.c ****     /** Leave sleep mode*/
 1482              		.loc 1 805 0
 1483 0196 B9F80800 		ldrh	r0, [r9, #8]
 1484 019a FFF7FEFF 		bl	ili93xx_set_foreground_color
 1485              	.LVL154:
 807:../src/sam/components/display/ili93xx/ili93xx.c ****     ili93xx_delay(10);
 1486              		.loc 1 807 0
 1487 019e 2246     		mov	r2, r4
 1488 01a0 04A9     		add	r1, sp, #16
 1489 01a2 3846     		mov	r0, r7
 1490 01a4 FFF7FEFF 		bl	ili93xx_write_register_datas
 1491              	.LVL155:
 808:../src/sam/components/display/ili93xx/ili93xx.c ****     /** Display on*/
 1492              		.loc 1 808 0
 1493 01a8 0A20     		movs	r0, #10
 1494 01aa FFF7FEFF 		bl	ili93xx_delay
 1495              	.LVL156:
 810:../src/sam/components/display/ili93xx/ili93xx.c **** 
 1496              		.loc 1 810 0
 1497 01ae 2246     		mov	r2, r4
 1498 01b0 04A9     		add	r1, sp, #16
 1499 01b2 2920     		movs	r0, #41
 1500 01b4 FFF7FEFF 		bl	ili93xx_write_register_datas
 1501              	.LVL157:
 816:../src/sam/components/display/ili93xx/ili93xx.c **** 
 1502              		.loc 1 816 0
 1503 01b8 2046     		mov	r0, r4
 1504 01ba 07B0     		add	sp, sp, #28
 1505              		.cfi_def_cfa_offset 28
 1506              		@ sp needed
 1507 01bc BDE8F083 		pop	{r4, r5, r6, r7, r8, r9, pc}
 1508              	.LVL158:
 1509              	.L102:
 1510              		.align	2
 1511              	.L101:
 1512 01c0 00000000 		.word	.LANCHOR2
 1513 01c4 00800040 		.word	1073774592
 1514 01c8 00E100E0 		.word	-536813312
 1515 01cc C0E1E400 		.word	15000000
 1516 01d0 00000000 		.word	.LANCHOR0
 1517 01d4 00000000 		.word	.LANCHOR1
 1518              		.cfi_endproc
 1519              	.LFE190:
 1521              		.section	.text.ili93xx_set_cursor_position,"ax",%progbits
 1522              		.align	2
 1523              		.global	ili93xx_set_cursor_position
 1524              		.thumb
 1525              		.thumb_func
 1527              	ili93xx_set_cursor_position:
 1528              	.LFB198:
1220:../src/sam/components/display/ili93xx/ili93xx.c **** 
1221:../src/sam/components/display/ili93xx/ili93xx.c **** /**
1222:../src/sam/components/display/ili93xx/ili93xx.c ****  * \brief Set cursor of LCD screen.
1223:../src/sam/components/display/ili93xx/ili93xx.c ****  *
1224:../src/sam/components/display/ili93xx/ili93xx.c ****  * \param us_x X coordinate of upper-left corner on LCD.
1225:../src/sam/components/display/ili93xx/ili93xx.c ****  * \param us_y Y coordinate of upper-left corner on LCD.
1226:../src/sam/components/display/ili93xx/ili93xx.c ****  */
1227:../src/sam/components/display/ili93xx/ili93xx.c **** void ili93xx_set_cursor_position(uint16_t us_x, uint16_t us_y)
1228:../src/sam/components/display/ili93xx/ili93xx.c **** {
 1529              		.loc 1 1228 0
 1530              		.cfi_startproc
 1531              		@ args = 0, pretend = 0, frame = 0
 1532              		@ frame_needed = 0, uses_anonymous_args = 0
 1533              	.LVL159:
1229:../src/sam/components/display/ili93xx/ili93xx.c **** 	if (g_uc_device_type == DEVICE_TYPE_ILI9325) {
 1534              		.loc 1 1229 0
 1535 0000 074B     		ldr	r3, .L107
 1536 0002 1B78     		ldrb	r3, [r3]	@ zero_extendqisi2
 1537 0004 012B     		cmp	r3, #1
 1538 0006 0AD1     		bne	.L106
1228:../src/sam/components/display/ili93xx/ili93xx.c **** 	if (g_uc_device_type == DEVICE_TYPE_ILI9325) {
 1539              		.loc 1 1228 0
 1540 0008 10B5     		push	{r4, lr}
 1541              		.cfi_def_cfa_offset 8
 1542              		.cfi_offset 4, -8
 1543              		.cfi_offset 14, -4
 1544 000a 0C46     		mov	r4, r1
 1545 000c 0146     		mov	r1, r0
 1546              	.LVL160:
1230:../src/sam/components/display/ili93xx/ili93xx.c **** 		/** GRAM Horizontal/Vertical Address Set (R20h, R21h) */
1231:../src/sam/components/display/ili93xx/ili93xx.c **** 		ili93xx_write_register_word(ILI9325_HORIZONTAL_GRAM_ADDR_SET, us_x);
 1547              		.loc 1 1231 0
 1548 000e 2020     		movs	r0, #32
 1549              	.LVL161:
 1550 0010 FFF7FEFF 		bl	ili93xx_write_register_word
 1551              	.LVL162:
1232:../src/sam/components/display/ili93xx/ili93xx.c **** 		ili93xx_write_register_word(ILI9325_VERTICAL_GRAM_ADDR_SET, us_y);
 1552              		.loc 1 1232 0
 1553 0014 2146     		mov	r1, r4
 1554 0016 2120     		movs	r0, #33
 1555 0018 FFF7FEFF 		bl	ili93xx_write_register_word
 1556              	.LVL163:
 1557 001c 10BD     		pop	{r4, pc}
 1558              	.LVL164:
 1559              	.L106:
 1560              		.cfi_def_cfa_offset 0
 1561              		.cfi_restore 4
 1562              		.cfi_restore 14
 1563 001e 7047     		bx	lr
 1564              	.L108:
 1565              		.align	2
 1566              	.L107:
 1567 0020 00000000 		.word	.LANCHOR2
 1568              		.cfi_endproc
 1569              	.LFE198:
 1571              		.section	.text.ili93xx_init,"ax",%progbits
 1572              		.align	2
 1573              		.global	ili93xx_init
 1574              		.thumb
 1575              		.thumb_func
 1577              	ili93xx_init:
 1578              	.LFB191:
 831:../src/sam/components/display/ili93xx/ili93xx.c **** 	uint8_t paratable[6];
 1579              		.loc 1 831 0
 1580              		.cfi_startproc
 1581              		@ args = 0, pretend = 0, frame = 8
 1582              		@ frame_needed = 0, uses_anonymous_args = 0
 1583              	.LVL165:
 1584 0000 2DE9F041 		push	{r4, r5, r6, r7, r8, lr}
 1585              		.cfi_def_cfa_offset 24
 1586              		.cfi_offset 4, -24
 1587              		.cfi_offset 5, -20
 1588              		.cfi_offset 6, -16
 1589              		.cfi_offset 7, -12
 1590              		.cfi_offset 8, -8
 1591              		.cfi_offset 14, -4
 1592 0004 82B0     		sub	sp, sp, #8
 1593              		.cfi_def_cfa_offset 32
 1594 0006 0546     		mov	r5, r0
 835:../src/sam/components/display/ili93xx/ili93xx.c **** 		return 1;
 1595              		.loc 1 835 0
 1596 0008 FFF7FEFF 		bl	ili93xx_device_type_identify
 1597              	.LVL166:
 1598 000c 0028     		cmp	r0, #0
 1599 000e 40F08A81 		bne	.L112
 839:../src/sam/components/display/ili93xx/ili93xx.c **** 	g_ul_lcd_y_length = ILI93XX_LCD_HEIGHT;
 1600              		.loc 1 839 0
 1601 0012 F022     		movs	r2, #240
 1602 0014 C74B     		ldr	r3, .L115
 1603 0016 1A60     		str	r2, [r3]
 840:../src/sam/components/display/ili93xx/ili93xx.c **** 
 1604              		.loc 1 840 0
 1605 0018 4FF4A072 		mov	r2, #320
 1606 001c C64B     		ldr	r3, .L115+4
 1607 001e 1A60     		str	r2, [r3]
 842:../src/sam/components/display/ili93xx/ili93xx.c **** 		/** Turn off LCD */
 1608              		.loc 1 842 0
 1609 0020 C64B     		ldr	r3, .L115+8
 1610 0022 1B78     		ldrb	r3, [r3]	@ zero_extendqisi2
 1611 0024 012B     		cmp	r3, #1
 1612 0026 40F0E080 		bne	.L111
 844:../src/sam/components/display/ili93xx/ili93xx.c **** 				ILI9325_DISP_CTRL1_DTE | ILI9325_DISP_CTRL1_D(0x03));
 1613              		.loc 1 844 0
 1614 002a 3321     		movs	r1, #51
 1615 002c 0720     		movs	r0, #7
 1616 002e FFF7FEFF 		bl	ili93xx_write_register_word
 1617              	.LVL167:
 849:../src/sam/components/display/ili93xx/ili93xx.c **** 		/** Start internal OSC */
 1618              		.loc 1 849 0
 1619 0032 0021     		movs	r1, #0
 1620 0034 1020     		movs	r0, #16
 1621 0036 FFF7FEFF 		bl	ili93xx_write_register_word
 1622              	.LVL168:
 851:../src/sam/components/display/ili93xx/ili93xx.c **** 				ILI9325_START_OSC_CTRL_EN);
 1623              		.loc 1 851 0
 1624 003a 0121     		movs	r1, #1
 1625 003c 0020     		movs	r0, #0
 1626 003e FFF7FEFF 		bl	ili93xx_write_register_word
 1627              	.LVL169:
 854:../src/sam/components/display/ili93xx/ili93xx.c **** 				ILI9325_DRIVER_OUTPUT_CTRL1_SS);
 1628              		.loc 1 854 0
 1629 0042 4FF48071 		mov	r1, #256
 1630 0046 0120     		movs	r0, #1
 1631 0048 FFF7FEFF 		bl	ili93xx_write_register_word
 1632              	.LVL170:
 857:../src/sam/components/display/ili93xx/ili93xx.c **** 				ILI9325_LCD_DRIVING_CTRL_BIT10 | ILI9325_LCD_DRIVING_CTRL_EOR
 1633              		.loc 1 857 0
 1634 004c 4FF4E061 		mov	r1, #1792
 1635 0050 0220     		movs	r0, #2
 1636 0052 FFF7FEFF 		bl	ili93xx_write_register_word
 1637              	.LVL171:
 861:../src/sam/components/display/ili93xx/ili93xx.c **** 		/** Set the back porch and front porch */
 1638              		.loc 1 861 0
 1639 0056 0021     		movs	r1, #0
 1640 0058 0420     		movs	r0, #4
 1641 005a FFF7FEFF 		bl	ili93xx_write_register_word
 1642              	.LVL172:
 863:../src/sam/components/display/ili93xx/ili93xx.c **** 				ILI9325_DISP_CTRL2_BP(
 1643              		.loc 1 863 0
 1644 005e 40F20721 		movw	r1, #519
 1645 0062 0820     		movs	r0, #8
 1646 0064 FFF7FEFF 		bl	ili93xx_write_register_word
 1647              	.LVL173:
 867:../src/sam/components/display/ili93xx/ili93xx.c **** 		/** Disable FMARK function */
 1648              		.loc 1 867 0
 1649 0068 0021     		movs	r1, #0
 1650 006a 0920     		movs	r0, #9
 1651 006c FFF7FEFF 		bl	ili93xx_write_register_word
 1652              	.LVL174:
 869:../src/sam/components/display/ili93xx/ili93xx.c **** 		/** 18-bit RGB interface and writing display data by system
 1653              		.loc 1 869 0
 1654 0070 0021     		movs	r1, #0
 1655 0072 0A20     		movs	r0, #10
 1656 0074 FFF7FEFF 		bl	ili93xx_write_register_word
 1657              	.LVL175:
 872:../src/sam/components/display/ili93xx/ili93xx.c **** 				0x0000);
 1658              		.loc 1 872 0
 1659 0078 0021     		movs	r1, #0
 1660 007a 0C20     		movs	r0, #12
 1661 007c FFF7FEFF 		bl	ili93xx_write_register_word
 1662              	.LVL176:
 875:../src/sam/components/display/ili93xx/ili93xx.c **** 		/** RGB interface polarity */
 1663              		.loc 1 875 0
 1664 0080 0021     		movs	r1, #0
 1665 0082 0D20     		movs	r0, #13
 1666 0084 FFF7FEFF 		bl	ili93xx_write_register_word
 1667              	.LVL177:
 877:../src/sam/components/display/ili93xx/ili93xx.c **** 				0x0000);
 1668              		.loc 1 877 0
 1669 0088 0021     		movs	r1, #0
 1670 008a 0F20     		movs	r0, #15
 1671 008c FFF7FEFF 		bl	ili93xx_write_register_word
 1672              	.LVL178:
 882:../src/sam/components/display/ili93xx/ili93xx.c **** 
 1673              		.loc 1 882 0
 1674 0090 0021     		movs	r1, #0
 1675 0092 1020     		movs	r0, #16
 1676 0094 FFF7FEFF 		bl	ili93xx_write_register_word
 1677              	.LVL179:
 888:../src/sam/components/display/ili93xx/ili93xx.c **** 		/** Set VREG1OUT voltage */
 1678              		.loc 1 888 0
 1679 0098 0021     		movs	r1, #0
 1680 009a 1120     		movs	r0, #17
 1681 009c FFF7FEFF 		bl	ili93xx_write_register_word
 1682              	.LVL180:
 890:../src/sam/components/display/ili93xx/ili93xx.c **** 		/** Set VCOM amplitude */
 1683              		.loc 1 890 0
 1684 00a0 0021     		movs	r1, #0
 1685 00a2 1220     		movs	r0, #18
 1686 00a4 FFF7FEFF 		bl	ili93xx_write_register_word
 1687              	.LVL181:
 892:../src/sam/components/display/ili93xx/ili93xx.c **** 		ili93xx_delay(200);
 1688              		.loc 1 892 0
 1689 00a8 0021     		movs	r1, #0
 1690 00aa 1320     		movs	r0, #19
 1691 00ac FFF7FEFF 		bl	ili93xx_write_register_word
 1692              	.LVL182:
 893:../src/sam/components/display/ili93xx/ili93xx.c **** 
 1693              		.loc 1 893 0
 1694 00b0 C820     		movs	r0, #200
 1695 00b2 FFF7FEFF 		bl	ili93xx_delay
 1696              	.LVL183:
 901:../src/sam/components/display/ili93xx/ili93xx.c **** 				ILI9325_POWER_CTRL1_SAP | ILI9325_POWER_CTRL1_BT(0x02) |
 1697              		.loc 1 901 0
 1698 00b6 41F29021 		movw	r1, #4752
 1699 00ba 1020     		movs	r0, #16
 1700 00bc FFF7FEFF 		bl	ili93xx_write_register_word
 1701              	.LVL184:
 910:../src/sam/components/display/ili93xx/ili93xx.c **** 				ILI9325_POWER_CTRL2_DC1(0x02) |
 1702              		.loc 1 910 0
 1703 00c0 40F22721 		movw	r1, #551
 1704 00c4 1120     		movs	r0, #17
 1705 00c6 FFF7FEFF 		bl	ili93xx_write_register_word
 1706              	.LVL185:
 913:../src/sam/components/display/ili93xx/ili93xx.c **** 		/** Internal reference voltage= Vci */
 1707              		.loc 1 913 0
 1708 00ca 3220     		movs	r0, #50
 1709 00cc FFF7FEFF 		bl	ili93xx_delay
 1710              	.LVL186:
 915:../src/sam/components/display/ili93xx/ili93xx.c **** 				ILI9325_POWER_CTRL3_PON | ILI9325_POWER_CTRL3_VRH(0x0B));
 1711              		.loc 1 915 0
 1712 00d0 1B21     		movs	r1, #27
 1713 00d2 1220     		movs	r0, #18
 1714 00d4 FFF7FEFF 		bl	ili93xx_write_register_word
 1715              	.LVL187:
 917:../src/sam/components/display/ili93xx/ili93xx.c **** 		/** Set VDV[4:0] for VCOM amplitude */
 1716              		.loc 1 917 0
 1717 00d8 3220     		movs	r0, #50
 1718 00da FFF7FEFF 		bl	ili93xx_delay
 1719              	.LVL188:
 919:../src/sam/components/display/ili93xx/ili93xx.c **** 				ILI9325_POWER_CTRL4_VDV(0x11));
 1720              		.loc 1 919 0
 1721 00de 4FF48851 		mov	r1, #4352
 1722 00e2 1320     		movs	r0, #19
 1723 00e4 FFF7FEFF 		bl	ili93xx_write_register_word
 1724              	.LVL189:
 922:../src/sam/components/display/ili93xx/ili93xx.c **** 				ILI9325_POWER_CTRL7_VCM(0x19));
 1725              		.loc 1 922 0
 1726 00e8 1921     		movs	r1, #25
 1727 00ea 2920     		movs	r0, #41
 1728 00ec FFF7FEFF 		bl	ili93xx_write_register_word
 1729              	.LVL190:
 925:../src/sam/components/display/ili93xx/ili93xx.c **** 				ILI9325_FRAME_RATE_AND_COLOR_CTRL_FRS(0x0D));
 1730              		.loc 1 925 0
 1731 00f0 0D21     		movs	r1, #13
 1732 00f2 2B20     		movs	r0, #43
 1733 00f4 FFF7FEFF 		bl	ili93xx_write_register_word
 1734              	.LVL191:
 927:../src/sam/components/display/ili93xx/ili93xx.c **** 
 1735              		.loc 1 927 0
 1736 00f8 3220     		movs	r0, #50
 1737 00fa FFF7FEFF 		bl	ili93xx_delay
 1738              	.LVL192:
 930:../src/sam/components/display/ili93xx/ili93xx.c **** 		ili93xx_write_register_word(ILI9325_GAMMA_CTL2,
 1739              		.loc 1 930 0
 1740 00fe 0021     		movs	r1, #0
 1741 0100 3020     		movs	r0, #48
 1742 0102 FFF7FEFF 		bl	ili93xx_write_register_word
 1743              	.LVL193:
 931:../src/sam/components/display/ili93xx/ili93xx.c **** 				ILI9325_GAMMA_CTL2_KP3(0x02) |
 1744              		.loc 1 931 0
 1745 0106 4FF40171 		mov	r1, #516
 1746 010a 3120     		movs	r0, #49
 1747 010c FFF7FEFF 		bl	ili93xx_write_register_word
 1748              	.LVL194:
 934:../src/sam/components/display/ili93xx/ili93xx.c **** 				ILI9325_GAMMA_CTL3_KP5(0x02) |
 1749              		.loc 1 934 0
 1750 0110 4FF40071 		mov	r1, #512
 1751 0114 3220     		movs	r0, #50
 1752 0116 FFF7FEFF 		bl	ili93xx_write_register_word
 1753              	.LVL195:
 937:../src/sam/components/display/ili93xx/ili93xx.c **** 				ILI9325_GAMMA_CTL4_RP1(0x00) |
 1754              		.loc 1 937 0
 1755 011a 0721     		movs	r1, #7
 1756 011c 3520     		movs	r0, #53
 1757 011e FFF7FEFF 		bl	ili93xx_write_register_word
 1758              	.LVL196:
 940:../src/sam/components/display/ili93xx/ili93xx.c **** 				ILI9325_GAMMA_CTL5_VRP1(0x14) |
 1759              		.loc 1 940 0
 1760 0122 41F20441 		movw	r1, #5124
 1761 0126 3620     		movs	r0, #54
 1762 0128 FFF7FEFF 		bl	ili93xx_write_register_word
 1763              	.LVL197:
 943:../src/sam/components/display/ili93xx/ili93xx.c **** 				ILI9325_GAMMA_CTL6_KN1(0x07) |
 1764              		.loc 1 943 0
 1765 012c 40F20571 		movw	r1, #1797
 1766 0130 3720     		movs	r0, #55
 1767 0132 FFF7FEFF 		bl	ili93xx_write_register_word
 1768              	.LVL198:
 946:../src/sam/components/display/ili93xx/ili93xx.c **** 				ILI9325_GAMMA_CTL7_KN3(0x03) |
 1769              		.loc 1 946 0
 1770 0136 40F20531 		movw	r1, #773
 1771 013a 3820     		movs	r0, #56
 1772 013c FFF7FEFF 		bl	ili93xx_write_register_word
 1773              	.LVL199:
 949:../src/sam/components/display/ili93xx/ili93xx.c **** 				ILI9325_GAMMA_CTL8_KN5(0x07) |
 1774              		.loc 1 949 0
 1775 0140 40F20771 		movw	r1, #1799
 1776 0144 3920     		movs	r0, #57
 1777 0146 FFF7FEFF 		bl	ili93xx_write_register_word
 1778              	.LVL200:
 952:../src/sam/components/display/ili93xx/ili93xx.c **** 				ILI9325_GAMMA_CTL9_RN1(0x07) |
 1779              		.loc 1 952 0
 1780 014a 40F20171 		movw	r1, #1793
 1781 014e 3C20     		movs	r0, #60
 1782 0150 FFF7FEFF 		bl	ili93xx_write_register_word
 1783              	.LVL201:
 955:../src/sam/components/display/ili93xx/ili93xx.c **** 				ILI9325_GAMMA_CTL10_VRN1(0x00) |
 1784              		.loc 1 955 0
 1785 0154 0E21     		movs	r1, #14
 1786 0156 3D20     		movs	r0, #61
 1787 0158 FFF7FEFF 		bl	ili93xx_write_register_word
 1788              	.LVL202:
 967:../src/sam/components/display/ili93xx/ili93xx.c **** 				ILI9325_ENTRY_MODE_TRI | ILI9325_ENTRY_MODE_DFM |
 1789              		.loc 1 967 0
 1790 015c 4DF21001 		movw	r1, #53264
 1791 0160 0320     		movs	r0, #3
 1792 0162 FFF7FEFF 		bl	ili93xx_write_register_word
 1793              	.LVL203:
 974:../src/sam/components/display/ili93xx/ili93xx.c **** 				ILI9325_DRIVER_OUTPUT_CTRL2_GS |
 1794              		.loc 1 974 0
 1795 0166 4FF42741 		mov	r1, #42752
 1796 016a 6020     		movs	r0, #96
 1797 016c FFF7FEFF 		bl	ili93xx_write_register_word
 1798              	.LVL204:
 980:../src/sam/components/display/ili93xx/ili93xx.c **** 				ILI9325_BASE_IMG_DISP_CTRL_REV);
 1799              		.loc 1 980 0
 1800 0170 0121     		movs	r1, #1
 1801 0172 6120     		movs	r0, #97
 1802 0174 FFF7FEFF 		bl	ili93xx_write_register_word
 1803              	.LVL205:
 982:../src/sam/components/display/ili93xx/ili93xx.c **** 				0x0000);
 1804              		.loc 1 982 0
 1805 0178 0021     		movs	r1, #0
 1806 017a 6A20     		movs	r0, #106
 1807 017c FFF7FEFF 		bl	ili93xx_write_register_word
 1808              	.LVL206:
 986:../src/sam/components/display/ili93xx/ili93xx.c **** 				0x0000);
 1809              		.loc 1 986 0
 1810 0180 0021     		movs	r1, #0
 1811 0182 8020     		movs	r0, #128
 1812 0184 FFF7FEFF 		bl	ili93xx_write_register_word
 1813              	.LVL207:
 988:../src/sam/components/display/ili93xx/ili93xx.c **** 				ILI9325_PARTIAL_IMG1_AREA_START_LINE,
 1814              		.loc 1 988 0
 1815 0188 0021     		movs	r1, #0
 1816 018a 8120     		movs	r0, #129
 1817 018c FFF7FEFF 		bl	ili93xx_write_register_word
 1818              	.LVL208:
 991:../src/sam/components/display/ili93xx/ili93xx.c **** 				0x0000);
 1819              		.loc 1 991 0
 1820 0190 0021     		movs	r1, #0
 1821 0192 8220     		movs	r0, #130
 1822 0194 FFF7FEFF 		bl	ili93xx_write_register_word
 1823              	.LVL209:
 993:../src/sam/components/display/ili93xx/ili93xx.c **** 				0x0000);
 1824              		.loc 1 993 0
 1825 0198 0021     		movs	r1, #0
 1826 019a 8320     		movs	r0, #131
 1827 019c FFF7FEFF 		bl	ili93xx_write_register_word
 1828              	.LVL210:
 995:../src/sam/components/display/ili93xx/ili93xx.c **** 				ILI9325_PARTIAL_IMG2_AREA_START_LINE,
 1829              		.loc 1 995 0
 1830 01a0 0021     		movs	r1, #0
 1831 01a2 8420     		movs	r0, #132
 1832 01a4 FFF7FEFF 		bl	ili93xx_write_register_word
 1833              	.LVL211:
 998:../src/sam/components/display/ili93xx/ili93xx.c **** 				0x0000);
 1834              		.loc 1 998 0
 1835 01a8 0021     		movs	r1, #0
 1836 01aa 8520     		movs	r0, #133
 1837 01ac FFF7FEFF 		bl	ili93xx_write_register_word
 1838              	.LVL212:
1002:../src/sam/components/display/ili93xx/ili93xx.c **** 				ILI9325_PANEL_INTERFACE_CTRL1_RTNI(0x10));
 1839              		.loc 1 1002 0
 1840 01b0 1021     		movs	r1, #16
 1841 01b2 9020     		movs	r0, #144
 1842 01b4 FFF7FEFF 		bl	ili93xx_write_register_word
 1843              	.LVL213:
1004:../src/sam/components/display/ili93xx/ili93xx.c **** 				ILI9325_PANEL_INTERFACE_CTRL2_NOWI(0x06));
 1844              		.loc 1 1004 0
 1845 01b8 4FF4C061 		mov	r1, #1536
 1846 01bc 9220     		movs	r0, #146
 1847 01be FFF7FEFF 		bl	ili93xx_write_register_word
 1848              	.LVL214:
1006:../src/sam/components/display/ili93xx/ili93xx.c **** 				ILI9325_PANEL_INTERFACE_CTRL4_DIVE(0x01) |
 1849              		.loc 1 1006 0
 1850 01c2 4FF48871 		mov	r1, #272
 1851 01c6 9520     		movs	r0, #149
 1852 01c8 FFF7FEFF 		bl	ili93xx_write_register_word
 1853              	.LVL215:
1010:../src/sam/components/display/ili93xx/ili93xx.c **** 		ili93xx_set_foreground_color(p_opt->foreground_color);
 1854              		.loc 1 1010 0
 1855 01cc 6B68     		ldr	r3, [r5, #4]
 1856 01ce 2A68     		ldr	r2, [r5]
 1857 01d0 0021     		movs	r1, #0
 1858 01d2 0846     		mov	r0, r1
 1859 01d4 FFF7FEFF 		bl	ili93xx_set_window
 1860              	.LVL216:
1011:../src/sam/components/display/ili93xx/ili93xx.c **** 		ili93xx_set_cursor_position(0, 0);
 1861              		.loc 1 1011 0
 1862 01d8 2889     		ldrh	r0, [r5, #8]
 1863 01da FFF7FEFF 		bl	ili93xx_set_foreground_color
 1864              	.LVL217:
1012:../src/sam/components/display/ili93xx/ili93xx.c **** 	} else if (g_uc_device_type == DEVICE_TYPE_ILI9341) {
 1865              		.loc 1 1012 0
 1866 01de 0021     		movs	r1, #0
 1867 01e0 0846     		mov	r0, r1
 1868 01e2 FFF7FEFF 		bl	ili93xx_set_cursor_position
 1869              	.LVL218:
1092:../src/sam/components/display/ili93xx/ili93xx.c **** }
 1870              		.loc 1 1092 0
 1871 01e6 0020     		movs	r0, #0
 1872 01e8 A0E0     		b	.L110
 1873              	.L111:
1013:../src/sam/components/display/ili93xx/ili93xx.c **** 		/** init for ILI9341 **/
 1874              		.loc 1 1013 0
 1875 01ea 022B     		cmp	r3, #2
 1876 01ec 40F09D80 		bne	.L113
1016:../src/sam/components/display/ili93xx/ili93xx.c **** 		paratable[1] = 0x2C;
 1877              		.loc 1 1016 0
 1878 01f0 3923     		movs	r3, #57
 1879 01f2 8DF80030 		strb	r3, [sp]
1017:../src/sam/components/display/ili93xx/ili93xx.c **** 		paratable[2] = 0x00;
 1880              		.loc 1 1017 0
 1881 01f6 2C23     		movs	r3, #44
 1882 01f8 8DF80130 		strb	r3, [sp, #1]
1018:../src/sam/components/display/ili93xx/ili93xx.c **** 		paratable[3] = 0x34;
 1883              		.loc 1 1018 0
 1884 01fc 0024     		movs	r4, #0
 1885 01fe 8DF80240 		strb	r4, [sp, #2]
1019:../src/sam/components/display/ili93xx/ili93xx.c **** 		paratable[4] = 0x02;
 1886              		.loc 1 1019 0
 1887 0202 3423     		movs	r3, #52
 1888 0204 8DF80330 		strb	r3, [sp, #3]
1020:../src/sam/components/display/ili93xx/ili93xx.c **** 		ili93xx_write_register(ILI9341_CMD_POWER_CONTROL_A, paratable, 5);
 1889              		.loc 1 1020 0
 1890 0208 0226     		movs	r6, #2
 1891 020a 8DF80460 		strb	r6, [sp, #4]
1021:../src/sam/components/display/ili93xx/ili93xx.c **** 
 1892              		.loc 1 1021 0
 1893 020e 0522     		movs	r2, #5
 1894 0210 6946     		mov	r1, sp
 1895 0212 CB20     		movs	r0, #203
 1896 0214 FFF7FEFF 		bl	ili93xx_write_register
 1897              	.LVL219:
1024:../src/sam/components/display/ili93xx/ili93xx.c **** 		paratable[1] = 0xAA;
 1898              		.loc 1 1024 0
 1899 0218 8DF80040 		strb	r4, [sp]
1025:../src/sam/components/display/ili93xx/ili93xx.c **** 		paratable[2] = 0xB0;
 1900              		.loc 1 1025 0
 1901 021c AA23     		movs	r3, #170
 1902 021e 8DF80130 		strb	r3, [sp, #1]
1026:../src/sam/components/display/ili93xx/ili93xx.c **** 		ili93xx_write_register(ILI9341_CMD_POWER_CONTROL_B, paratable, 3);
 1903              		.loc 1 1026 0
 1904 0222 B023     		movs	r3, #176
 1905 0224 8DF80230 		strb	r3, [sp, #2]
1027:../src/sam/components/display/ili93xx/ili93xx.c **** 
 1906              		.loc 1 1027 0
 1907 0228 0322     		movs	r2, #3
 1908 022a 6946     		mov	r1, sp
 1909 022c CF20     		movs	r0, #207
 1910 022e FFF7FEFF 		bl	ili93xx_write_register
 1911              	.LVL220:
1030:../src/sam/components/display/ili93xx/ili93xx.c **** 		ili93xx_write_register(ILI9341_CMD_PUMP_RATIO_CONTROL,
 1912              		.loc 1 1030 0
 1913 0232 3023     		movs	r3, #48
 1914 0234 8DF80030 		strb	r3, [sp]
1031:../src/sam/components/display/ili93xx/ili93xx.c **** 				paratable, 1);
 1915              		.loc 1 1031 0
 1916 0238 0122     		movs	r2, #1
 1917 023a 6946     		mov	r1, sp
 1918 023c F720     		movs	r0, #247
 1919 023e FFF7FEFF 		bl	ili93xx_write_register
 1920              	.LVL221:
1035:../src/sam/components/display/ili93xx/ili93xx.c **** 		ili93xx_write_register(ILI9341_CMD_POWER_CONTROL_1, paratable, 1);
 1921              		.loc 1 1035 0
 1922 0242 2523     		movs	r3, #37
 1923 0244 8DF80030 		strb	r3, [sp]
1036:../src/sam/components/display/ili93xx/ili93xx.c **** 
 1924              		.loc 1 1036 0
 1925 0248 0122     		movs	r2, #1
 1926 024a 6946     		mov	r1, sp
 1927 024c C020     		movs	r0, #192
 1928 024e FFF7FEFF 		bl	ili93xx_write_register
 1929              	.LVL222:
1039:../src/sam/components/display/ili93xx/ili93xx.c **** 		ili93xx_write_register(ILI9341_CMD_POWER_CONTROL_2, paratable, 1);
 1930              		.loc 1 1039 0
 1931 0252 4FF01108 		mov	r8, #17
 1932 0256 8DF80080 		strb	r8, [sp]
1040:../src/sam/components/display/ili93xx/ili93xx.c **** 
 1933              		.loc 1 1040 0
 1934 025a 0122     		movs	r2, #1
 1935 025c 6946     		mov	r1, sp
 1936 025e C120     		movs	r0, #193
 1937 0260 FFF7FEFF 		bl	ili93xx_write_register
 1938              	.LVL223:
1043:../src/sam/components/display/ili93xx/ili93xx.c **** 		paratable[1] = 0x4C;
 1939              		.loc 1 1043 0
 1940 0264 5C23     		movs	r3, #92
 1941 0266 8DF80030 		strb	r3, [sp]
1044:../src/sam/components/display/ili93xx/ili93xx.c **** 		ili93xx_write_register(ILI9341_CMD_VCOM_CONTROL_1, paratable, 2);
 1942              		.loc 1 1044 0
 1943 026a 4C23     		movs	r3, #76
 1944 026c 8DF80130 		strb	r3, [sp, #1]
1045:../src/sam/components/display/ili93xx/ili93xx.c **** 
 1945              		.loc 1 1045 0
 1946 0270 3246     		mov	r2, r6
 1947 0272 6946     		mov	r1, sp
 1948 0274 C520     		movs	r0, #197
 1949 0276 FFF7FEFF 		bl	ili93xx_write_register
 1950              	.LVL224:
1048:../src/sam/components/display/ili93xx/ili93xx.c **** 		ili93xx_write_register(ILI9341_CMD_VCOM_CONTROL_2, paratable, 1);
 1951              		.loc 1 1048 0
 1952 027a 9423     		movs	r3, #148
 1953 027c 8DF80030 		strb	r3, [sp]
1049:../src/sam/components/display/ili93xx/ili93xx.c **** 
 1954              		.loc 1 1049 0
 1955 0280 0122     		movs	r2, #1
 1956 0282 6946     		mov	r1, sp
 1957 0284 C720     		movs	r0, #199
 1958 0286 FFF7FEFF 		bl	ili93xx_write_register
 1959              	.LVL225:
1052:../src/sam/components/display/ili93xx/ili93xx.c **** 		paratable[1] = 0x01;
 1960              		.loc 1 1052 0
 1961 028a 8523     		movs	r3, #133
 1962 028c 8DF80030 		strb	r3, [sp]
1053:../src/sam/components/display/ili93xx/ili93xx.c **** 		paratable[2] = 0x78;
 1963              		.loc 1 1053 0
 1964 0290 0127     		movs	r7, #1
 1965 0292 8DF80170 		strb	r7, [sp, #1]
1054:../src/sam/components/display/ili93xx/ili93xx.c **** 		ili93xx_write_register(ILI9341_CMD_DRIVER_TIMING_CTL_A, paratable, 3);
 1966              		.loc 1 1054 0
 1967 0296 7823     		movs	r3, #120
 1968 0298 8DF80230 		strb	r3, [sp, #2]
1055:../src/sam/components/display/ili93xx/ili93xx.c **** 
 1969              		.loc 1 1055 0
 1970 029c 0322     		movs	r2, #3
 1971 029e 6946     		mov	r1, sp
 1972 02a0 E820     		movs	r0, #232
 1973 02a2 FFF7FEFF 		bl	ili93xx_write_register
 1974              	.LVL226:
1058:../src/sam/components/display/ili93xx/ili93xx.c **** 		paratable[1] = 0x00;
 1975              		.loc 1 1058 0
 1976 02a6 8DF80040 		strb	r4, [sp]
1059:../src/sam/components/display/ili93xx/ili93xx.c **** 		ili93xx_write_register(ILI9341_CMD_DRIVER_TIMING_CTL_B, paratable, 2);
 1977              		.loc 1 1059 0
 1978 02aa 8DF80140 		strb	r4, [sp, #1]
1060:../src/sam/components/display/ili93xx/ili93xx.c **** 
 1979              		.loc 1 1060 0
 1980 02ae 3246     		mov	r2, r6
 1981 02b0 6946     		mov	r1, sp
 1982 02b2 EA20     		movs	r0, #234
 1983 02b4 FFF7FEFF 		bl	ili93xx_write_register
 1984              	.LVL227:
1063:../src/sam/components/display/ili93xx/ili93xx.c **** 				ILI9341_CMD_MEMORY_ACCESS_CONTROL_BGR;
 1985              		.loc 1 1063 0
 1986 02b8 4823     		movs	r3, #72
 1987 02ba 8DF80030 		strb	r3, [sp]
1065:../src/sam/components/display/ili93xx/ili93xx.c **** 				paratable, 1);
 1988              		.loc 1 1065 0
 1989 02be 3A46     		mov	r2, r7
 1990 02c0 6946     		mov	r1, sp
 1991 02c2 3620     		movs	r0, #54
 1992 02c4 FFF7FEFF 		bl	ili93xx_write_register
 1993              	.LVL228:
1069:../src/sam/components/display/ili93xx/ili93xx.c **** 		ili93xx_write_register(ILI9341_CMD_PIXEL_FORMAT_SET, paratable, 1);
 1994              		.loc 1 1069 0
 1995 02c8 0623     		movs	r3, #6
 1996 02ca 8DF80030 		strb	r3, [sp]
1070:../src/sam/components/display/ili93xx/ili93xx.c **** 
 1997              		.loc 1 1070 0
 1998 02ce 3A46     		mov	r2, r7
 1999 02d0 6946     		mov	r1, sp
 2000 02d2 3A20     		movs	r0, #58
 2001 02d4 FFF7FEFF 		bl	ili93xx_write_register
 2002              	.LVL229:
1073:../src/sam/components/display/ili93xx/ili93xx.c **** 		paratable[1] = 0x82;
 2003              		.loc 1 1073 0
 2004 02d8 8DF80060 		strb	r6, [sp]
1074:../src/sam/components/display/ili93xx/ili93xx.c **** 		paratable[2] = 0x27;
 2005              		.loc 1 1074 0
 2006 02dc 8223     		movs	r3, #130
 2007 02de 8DF80130 		strb	r3, [sp, #1]
1075:../src/sam/components/display/ili93xx/ili93xx.c **** 		paratable[3] = 0x00;
 2008              		.loc 1 1075 0
 2009 02e2 2723     		movs	r3, #39
 2010 02e4 8DF80230 		strb	r3, [sp, #2]
1076:../src/sam/components/display/ili93xx/ili93xx.c **** 		ili93xx_write_register(ILI9341_CMD_DISPLAY_FUNCTION_CTL, paratable, 4);
 2011              		.loc 1 1076 0
 2012 02e8 8DF80340 		strb	r4, [sp, #3]
1077:../src/sam/components/display/ili93xx/ili93xx.c **** 		
 2013              		.loc 1 1077 0
 2014 02ec 0422     		movs	r2, #4
 2015 02ee 6946     		mov	r1, sp
 2016 02f0 B620     		movs	r0, #182
 2017 02f2 FFF7FEFF 		bl	ili93xx_write_register
 2018              	.LVL230:
1080:../src/sam/components/display/ili93xx/ili93xx.c **** 		ili93xx_set_foreground_color(p_opt->foreground_color);
 2019              		.loc 1 1080 0
 2020 02f6 6B68     		ldr	r3, [r5, #4]
 2021 02f8 2A68     		ldr	r2, [r5]
 2022 02fa 2146     		mov	r1, r4
 2023 02fc 2046     		mov	r0, r4
 2024 02fe FFF7FEFF 		bl	ili93xx_set_window
 2025              	.LVL231:
1081:../src/sam/components/display/ili93xx/ili93xx.c **** 		/** Leave sleep mode*/
 2026              		.loc 1 1081 0
 2027 0302 2889     		ldrh	r0, [r5, #8]
 2028 0304 FFF7FEFF 		bl	ili93xx_set_foreground_color
 2029              	.LVL232:
1083:../src/sam/components/display/ili93xx/ili93xx.c **** 		ili93xx_delay(10);
 2030              		.loc 1 1083 0
 2031 0308 2246     		mov	r2, r4
 2032 030a 6946     		mov	r1, sp
 2033 030c 4046     		mov	r0, r8
 2034 030e FFF7FEFF 		bl	ili93xx_write_register
 2035              	.LVL233:
1084:../src/sam/components/display/ili93xx/ili93xx.c **** 		/** Display on*/
 2036              		.loc 1 1084 0
 2037 0312 0A20     		movs	r0, #10
 2038 0314 FFF7FEFF 		bl	ili93xx_delay
 2039              	.LVL234:
1086:../src/sam/components/display/ili93xx/ili93xx.c **** 	} else {
 2040              		.loc 1 1086 0
 2041 0318 2246     		mov	r2, r4
 2042 031a 6946     		mov	r1, sp
 2043 031c 2920     		movs	r0, #41
 2044 031e FFF7FEFF 		bl	ili93xx_write_register
 2045              	.LVL235:
1092:../src/sam/components/display/ili93xx/ili93xx.c **** }
 2046              		.loc 1 1092 0
 2047 0322 2046     		mov	r0, r4
 2048 0324 02E0     		b	.L110
 2049              	.L112:
 836:../src/sam/components/display/ili93xx/ili93xx.c **** 	}
 2050              		.loc 1 836 0
 2051 0326 0120     		movs	r0, #1
 2052 0328 00E0     		b	.L110
 2053              	.L113:
1089:../src/sam/components/display/ili93xx/ili93xx.c **** 	}
 2054              		.loc 1 1089 0
 2055 032a 0120     		movs	r0, #1
 2056              	.L110:
1093:../src/sam/components/display/ili93xx/ili93xx.c **** 
 2057              		.loc 1 1093 0
 2058 032c 02B0     		add	sp, sp, #8
 2059              		.cfi_def_cfa_offset 24
 2060              		@ sp needed
 2061 032e BDE8F081 		pop	{r4, r5, r6, r7, r8, pc}
 2062              	.LVL236:
 2063              	.L116:
 2064 0332 00BF     		.align	2
 2065              	.L115:
 2066 0334 00000000 		.word	.LANCHOR0
 2067 0338 00000000 		.word	.LANCHOR1
 2068 033c 00000000 		.word	.LANCHOR2
 2069              		.cfi_endproc
 2070              	.LFE191:
 2072              		.section	.text.ili93xx_fill,"ax",%progbits
 2073              		.align	2
 2074              		.global	ili93xx_fill
 2075              		.thumb
 2076              		.thumb_func
 2078              	ili93xx_fill:
 2079              	.LFB196:
1154:../src/sam/components/display/ili93xx/ili93xx.c **** 	uint32_t dw;
 2080              		.loc 1 1154 0
 2081              		.cfi_startproc
 2082              		@ args = 0, pretend = 0, frame = 0
 2083              		@ frame_needed = 0, uses_anonymous_args = 0
 2084              	.LVL237:
 2085 0000 38B5     		push	{r3, r4, r5, lr}
 2086              		.cfi_def_cfa_offset 16
 2087              		.cfi_offset 3, -16
 2088              		.cfi_offset 4, -12
 2089              		.cfi_offset 5, -8
 2090              		.cfi_offset 14, -4
 2091 0002 0546     		mov	r5, r0
1156:../src/sam/components/display/ili93xx/ili93xx.c **** 		ili93xx_set_cursor_position(0, 0);
 2092              		.loc 1 1156 0
 2093 0004 0F4B     		ldr	r3, .L123
 2094 0006 1B78     		ldrb	r3, [r3]	@ zero_extendqisi2
 2095 0008 012B     		cmp	r3, #1
 2096 000a 04D1     		bne	.L118
1157:../src/sam/components/display/ili93xx/ili93xx.c **** 	} else if (g_uc_device_type == DEVICE_TYPE_ILI9341) {
 2097              		.loc 1 1157 0
 2098 000c 0021     		movs	r1, #0
 2099 000e 0846     		mov	r0, r1
 2100              	.LVL238:
 2101 0010 FFF7FEFF 		bl	ili93xx_set_cursor_position
 2102              	.LVL239:
 2103 0014 09E0     		b	.L119
 2104              	.LVL240:
 2105              	.L118:
1158:../src/sam/components/display/ili93xx/ili93xx.c **** 		ili93xx_set_window(0, 0, g_ul_lcd_x_length, g_ul_lcd_y_length);
 2106              		.loc 1 1158 0
 2107 0016 022B     		cmp	r3, #2
 2108 0018 07D1     		bne	.L119
1159:../src/sam/components/display/ili93xx/ili93xx.c **** 	}
 2109              		.loc 1 1159 0
 2110 001a 0B4B     		ldr	r3, .L123+4
 2111 001c 1B68     		ldr	r3, [r3]
 2112 001e 0B4A     		ldr	r2, .L123+8
 2113 0020 1268     		ldr	r2, [r2]
 2114 0022 0021     		movs	r1, #0
 2115 0024 0846     		mov	r0, r1
 2116              	.LVL241:
 2117 0026 FFF7FEFF 		bl	ili93xx_set_window
 2118              	.LVL242:
 2119              	.L119:
1162:../src/sam/components/display/ili93xx/ili93xx.c **** 
 2120              		.loc 1 1162 0
 2121 002a FFF7FEFF 		bl	ili93xx_write_ram_prepare
 2122              	.LVL243:
1164:../src/sam/components/display/ili93xx/ili93xx.c **** 		ili93xx_write_ram(ul_color);
 2123              		.loc 1 1164 0
 2124 002e 4FF49634 		mov	r4, #76800
 2125 0032 03E0     		b	.L120
 2126              	.LVL244:
 2127              	.L121:
1165:../src/sam/components/display/ili93xx/ili93xx.c **** 	}
 2128              		.loc 1 1165 0 discriminator 3
 2129 0034 2846     		mov	r0, r5
 2130 0036 FFF7FEFF 		bl	ili93xx_write_ram
 2131              	.LVL245:
1164:../src/sam/components/display/ili93xx/ili93xx.c **** 		ili93xx_write_ram(ul_color);
 2132              		.loc 1 1164 0 discriminator 3
 2133 003a 013C     		subs	r4, r4, #1
 2134              	.LVL246:
 2135              	.L120:
1164:../src/sam/components/display/ili93xx/ili93xx.c **** 		ili93xx_write_ram(ul_color);
 2136              		.loc 1 1164 0 is_stmt 0 discriminator 1
 2137 003c 002C     		cmp	r4, #0
 2138 003e F9D1     		bne	.L121
1167:../src/sam/components/display/ili93xx/ili93xx.c **** 
 2139              		.loc 1 1167 0 is_stmt 1
 2140 0040 38BD     		pop	{r3, r4, r5, pc}
 2141              	.LVL247:
 2142              	.L124:
 2143 0042 00BF     		.align	2
 2144              	.L123:
 2145 0044 00000000 		.word	.LANCHOR2
 2146 0048 00000000 		.word	.LANCHOR1
 2147 004c 00000000 		.word	.LANCHOR0
 2148              		.cfi_endproc
 2149              	.LFE196:
 2151              		.section	.text.ili93xx_scroll,"ax",%progbits
 2152              		.align	2
 2153              		.global	ili93xx_scroll
 2154              		.thumb
 2155              		.thumb_func
 2157              	ili93xx_scroll:
 2158              	.LFB199:
1233:../src/sam/components/display/ili93xx/ili93xx.c **** 	} else if (g_uc_device_type == DEVICE_TYPE_ILI9341) {
1234:../src/sam/components/display/ili93xx/ili93xx.c **** 		/** There is no corresponding operation for ILI9341. */
1235:../src/sam/components/display/ili93xx/ili93xx.c **** 	}
1236:../src/sam/components/display/ili93xx/ili93xx.c **** }
1237:../src/sam/components/display/ili93xx/ili93xx.c **** 
1238:../src/sam/components/display/ili93xx/ili93xx.c **** /**
1239:../src/sam/components/display/ili93xx/ili93xx.c ****  * \brief Scroll up/down for the number of specified lines.
1240:../src/sam/components/display/ili93xx/ili93xx.c ****  *
1241:../src/sam/components/display/ili93xx/ili93xx.c ****  * \param ul_lines number of lines to scroll.
1242:../src/sam/components/display/ili93xx/ili93xx.c ****  */
1243:../src/sam/components/display/ili93xx/ili93xx.c **** void ili93xx_scroll(int32_t ul_lines)
1244:../src/sam/components/display/ili93xx/ili93xx.c **** {
 2159              		.loc 1 1244 0
 2160              		.cfi_startproc
 2161              		@ args = 0, pretend = 0, frame = 8
 2162              		@ frame_needed = 0, uses_anonymous_args = 0
 2163              	.LVL248:
 2164 0000 00B5     		push	{lr}
 2165              		.cfi_def_cfa_offset 4
 2166              		.cfi_offset 14, -4
 2167 0002 83B0     		sub	sp, sp, #12
 2168              		.cfi_def_cfa_offset 16
1245:../src/sam/components/display/ili93xx/ili93xx.c **** 	if (g_uc_device_type == DEVICE_TYPE_ILI9325) {
 2169              		.loc 1 1245 0
 2170 0004 0B4B     		ldr	r3, .L129
 2171 0006 1B78     		ldrb	r3, [r3]	@ zero_extendqisi2
 2172 0008 012B     		cmp	r3, #1
 2173 000a 04D1     		bne	.L126
1246:../src/sam/components/display/ili93xx/ili93xx.c **** 		ili93xx_write_register_word(ILI9325_VERTICAL_SCROLL_CTRL, ul_lines);
 2174              		.loc 1 1246 0
 2175 000c 81B2     		uxth	r1, r0
 2176 000e 6A20     		movs	r0, #106
 2177              	.LVL249:
 2178 0010 FFF7FEFF 		bl	ili93xx_write_register_word
 2179              	.LVL250:
 2180 0014 0BE0     		b	.L125
 2181              	.LVL251:
 2182              	.L126:
1247:../src/sam/components/display/ili93xx/ili93xx.c **** 	} else if (g_uc_device_type == DEVICE_TYPE_ILI9341) {
 2183              		.loc 1 1247 0
 2184 0016 022B     		cmp	r3, #2
 2185 0018 09D1     		bne	.L125
 2186              	.LBB45:
1248:../src/sam/components/display/ili93xx/ili93xx.c **** 		uint8_t paratable[2];
1249:../src/sam/components/display/ili93xx/ili93xx.c **** 
1250:../src/sam/components/display/ili93xx/ili93xx.c **** 		paratable[0] = (ul_lines >> 8) & 0xFF;
 2187              		.loc 1 1250 0
 2188 001a 0312     		asrs	r3, r0, #8
 2189 001c 8DF80430 		strb	r3, [sp, #4]
1251:../src/sam/components/display/ili93xx/ili93xx.c **** 		paratable[1] = ul_lines & 0xFF;
 2190              		.loc 1 1251 0
 2191 0020 8DF80500 		strb	r0, [sp, #5]
1252:../src/sam/components/display/ili93xx/ili93xx.c **** 		ili93xx_write_register(ILI9341_CMD_VERT_SCROLL_START_ADDRESS,
 2192              		.loc 1 1252 0
 2193 0024 0222     		movs	r2, #2
 2194 0026 01A9     		add	r1, sp, #4
 2195 0028 3720     		movs	r0, #55
 2196              	.LVL252:
 2197 002a FFF7FEFF 		bl	ili93xx_write_register
 2198              	.LVL253:
 2199              	.L125:
 2200              	.LBE45:
1253:../src/sam/components/display/ili93xx/ili93xx.c **** 				paratable, 2);
1254:../src/sam/components/display/ili93xx/ili93xx.c **** 	}
1255:../src/sam/components/display/ili93xx/ili93xx.c **** }
 2201              		.loc 1 1255 0
 2202 002e 03B0     		add	sp, sp, #12
 2203              		.cfi_def_cfa_offset 4
 2204              		@ sp needed
 2205 0030 5DF804FB 		ldr	pc, [sp], #4
 2206              	.L130:
 2207              		.align	2
 2208              	.L129:
 2209 0034 00000000 		.word	.LANCHOR2
 2210              		.cfi_endproc
 2211              	.LFE199:
 2213              		.section	.text.ili93xx_vscroll_area_define,"ax",%progbits
 2214              		.align	2
 2215              		.global	ili93xx_vscroll_area_define
 2216              		.thumb
 2217              		.thumb_func
 2219              	ili93xx_vscroll_area_define:
 2220              	.LFB200:
1256:../src/sam/components/display/ili93xx/ili93xx.c **** 
1257:../src/sam/components/display/ili93xx/ili93xx.c **** /**
1258:../src/sam/components/display/ili93xx/ili93xx.c ****  * \brief Vertical Scroll area definition for ili9341.
1259:../src/sam/components/display/ili93xx/ili93xx.c ****  *
1260:../src/sam/components/display/ili93xx/ili93xx.c ****  * \param us_tfa the top fixed area (the No. of lines)
1261:../src/sam/components/display/ili93xx/ili93xx.c ****  * \param us_vsa the height of the vetical scrolling area
1262:../src/sam/components/display/ili93xx/ili93xx.c ****  * \param us_bfa the bottom fixed area (the No. of lines)
1263:../src/sam/components/display/ili93xx/ili93xx.c ****  */
1264:../src/sam/components/display/ili93xx/ili93xx.c **** void ili93xx_vscroll_area_define(uint16_t us_tfa, uint16_t us_vsa,
1265:../src/sam/components/display/ili93xx/ili93xx.c **** 		uint16_t us_bfa)
1266:../src/sam/components/display/ili93xx/ili93xx.c **** {
 2221              		.loc 1 1266 0
 2222              		.cfi_startproc
 2223              		@ args = 0, pretend = 0, frame = 8
 2224              		@ frame_needed = 0, uses_anonymous_args = 0
 2225              	.LVL254:
1267:../src/sam/components/display/ili93xx/ili93xx.c **** 	if (g_uc_device_type == DEVICE_TYPE_ILI9341) {
 2226              		.loc 1 1267 0
 2227 0000 0E4B     		ldr	r3, .L135
 2228 0002 1B78     		ldrb	r3, [r3]	@ zero_extendqisi2
 2229 0004 022B     		cmp	r3, #2
 2230 0006 18D1     		bne	.L134
1266:../src/sam/components/display/ili93xx/ili93xx.c **** 	if (g_uc_device_type == DEVICE_TYPE_ILI9341) {
 2231              		.loc 1 1266 0
 2232 0008 00B5     		push	{lr}
 2233              		.cfi_def_cfa_offset 4
 2234              		.cfi_offset 14, -4
 2235 000a 83B0     		sub	sp, sp, #12
 2236              		.cfi_def_cfa_offset 16
 2237              	.LBB46:
1268:../src/sam/components/display/ili93xx/ili93xx.c **** 		uint8_t paratable[6];
1269:../src/sam/components/display/ili93xx/ili93xx.c **** 
1270:../src/sam/components/display/ili93xx/ili93xx.c **** 		paratable[0] = (us_tfa >> 8) & 0xFF;
 2238              		.loc 1 1270 0
 2239 000c 030A     		lsrs	r3, r0, #8
 2240 000e 8DF80030 		strb	r3, [sp]
1271:../src/sam/components/display/ili93xx/ili93xx.c **** 		paratable[1] = us_tfa & 0xFF;
 2241              		.loc 1 1271 0
 2242 0012 8DF80100 		strb	r0, [sp, #1]
1272:../src/sam/components/display/ili93xx/ili93xx.c **** 		paratable[2] = (us_vsa >> 8) & 0xFF;
 2243              		.loc 1 1272 0
 2244 0016 0B0A     		lsrs	r3, r1, #8
 2245 0018 8DF80230 		strb	r3, [sp, #2]
1273:../src/sam/components/display/ili93xx/ili93xx.c **** 		paratable[3] = us_vsa & 0xFF;
 2246              		.loc 1 1273 0
 2247 001c 8DF80310 		strb	r1, [sp, #3]
1274:../src/sam/components/display/ili93xx/ili93xx.c **** 		paratable[4] = (us_bfa >> 8) & 0xFF;
 2248              		.loc 1 1274 0
 2249 0020 130A     		lsrs	r3, r2, #8
 2250 0022 8DF80430 		strb	r3, [sp, #4]
1275:../src/sam/components/display/ili93xx/ili93xx.c **** 		paratable[5] = us_bfa & 0xFF;
 2251              		.loc 1 1275 0
 2252 0026 8DF80520 		strb	r2, [sp, #5]
1276:../src/sam/components/display/ili93xx/ili93xx.c **** 		ili93xx_write_register(ILI9341_CMD_VERT_SCROLL_DEFINITION,
 2253              		.loc 1 1276 0
 2254 002a 0622     		movs	r2, #6
 2255              	.LVL255:
 2256 002c 6946     		mov	r1, sp
 2257              	.LVL256:
 2258 002e 3320     		movs	r0, #51
 2259              	.LVL257:
 2260 0030 FFF7FEFF 		bl	ili93xx_write_register
 2261              	.LVL258:
 2262              	.LBE46:
1277:../src/sam/components/display/ili93xx/ili93xx.c **** 				paratable, 6);
1278:../src/sam/components/display/ili93xx/ili93xx.c **** 	}
1279:../src/sam/components/display/ili93xx/ili93xx.c **** }
 2263              		.loc 1 1279 0
 2264 0034 03B0     		add	sp, sp, #12
 2265              		.cfi_def_cfa_offset 4
 2266              		@ sp needed
 2267 0036 5DF804FB 		ldr	pc, [sp], #4
 2268              	.LVL259:
 2269              	.L134:
 2270              		.cfi_def_cfa_offset 0
 2271              		.cfi_restore 14
 2272 003a 7047     		bx	lr
 2273              	.L136:
 2274              		.align	2
 2275              	.L135:
 2276 003c 00000000 		.word	.LANCHOR2
 2277              		.cfi_endproc
 2278              	.LFE200:
 2280              		.section	.text.ili93xx_enable_scroll,"ax",%progbits
 2281              		.align	2
 2282              		.global	ili93xx_enable_scroll
 2283              		.thumb
 2284              		.thumb_func
 2286              	ili93xx_enable_scroll:
 2287              	.LFB201:
1280:../src/sam/components/display/ili93xx/ili93xx.c **** 
1281:../src/sam/components/display/ili93xx/ili93xx.c **** /**
1282:../src/sam/components/display/ili93xx/ili93xx.c ****  * \brief Enable the scrolling feature.
1283:../src/sam/components/display/ili93xx/ili93xx.c ****  */
1284:../src/sam/components/display/ili93xx/ili93xx.c **** void ili93xx_enable_scroll(void)
1285:../src/sam/components/display/ili93xx/ili93xx.c **** {
 2288              		.loc 1 1285 0
 2289              		.cfi_startproc
 2290              		@ args = 0, pretend = 0, frame = 0
 2291              		@ frame_needed = 0, uses_anonymous_args = 0
 2292 0000 08B5     		push	{r3, lr}
 2293              		.cfi_def_cfa_offset 8
 2294              		.cfi_offset 3, -8
 2295              		.cfi_offset 14, -4
1286:../src/sam/components/display/ili93xx/ili93xx.c **** 	if (g_uc_device_type == DEVICE_TYPE_ILI9325) {
 2296              		.loc 1 1286 0
 2297 0002 044B     		ldr	r3, .L140
 2298 0004 1B78     		ldrb	r3, [r3]	@ zero_extendqisi2
 2299 0006 012B     		cmp	r3, #1
 2300 0008 03D1     		bne	.L137
1287:../src/sam/components/display/ili93xx/ili93xx.c **** 		ili93xx_write_register_word(ILI9325_BASE_IMG_DISP_CTRL,
 2301              		.loc 1 1287 0
 2302 000a 0321     		movs	r1, #3
 2303 000c 6120     		movs	r0, #97
 2304 000e FFF7FEFF 		bl	ili93xx_write_register_word
 2305              	.LVL260:
 2306              	.L137:
 2307 0012 08BD     		pop	{r3, pc}
 2308              	.L141:
 2309              		.align	2
 2310              	.L140:
 2311 0014 00000000 		.word	.LANCHOR2
 2312              		.cfi_endproc
 2313              	.LFE201:
 2315              		.section	.text.ili93xx_disable_scroll,"ax",%progbits
 2316              		.align	2
 2317              		.global	ili93xx_disable_scroll
 2318              		.thumb
 2319              		.thumb_func
 2321              	ili93xx_disable_scroll:
 2322              	.LFB202:
1288:../src/sam/components/display/ili93xx/ili93xx.c **** 				ILI9325_BASE_IMG_DISP_CTRL_REV |
1289:../src/sam/components/display/ili93xx/ili93xx.c **** 				ILI9325_BASE_IMG_DISP_CTRL_VLE);
1290:../src/sam/components/display/ili93xx/ili93xx.c **** 	} else if (g_uc_device_type == DEVICE_TYPE_ILI9341) {
1291:../src/sam/components/display/ili93xx/ili93xx.c **** 		/** no operation needed for ILI9341*/
1292:../src/sam/components/display/ili93xx/ili93xx.c **** 	}
1293:../src/sam/components/display/ili93xx/ili93xx.c **** }
1294:../src/sam/components/display/ili93xx/ili93xx.c **** 
1295:../src/sam/components/display/ili93xx/ili93xx.c **** /**
1296:../src/sam/components/display/ili93xx/ili93xx.c ****  * \brief Disable the scrolling feature.
1297:../src/sam/components/display/ili93xx/ili93xx.c ****  */
1298:../src/sam/components/display/ili93xx/ili93xx.c **** void ili93xx_disable_scroll(void)
1299:../src/sam/components/display/ili93xx/ili93xx.c **** {
 2323              		.loc 1 1299 0
 2324              		.cfi_startproc
 2325              		@ args = 0, pretend = 0, frame = 0
 2326              		@ frame_needed = 0, uses_anonymous_args = 0
 2327 0000 08B5     		push	{r3, lr}
 2328              		.cfi_def_cfa_offset 8
 2329              		.cfi_offset 3, -8
 2330              		.cfi_offset 14, -4
1300:../src/sam/components/display/ili93xx/ili93xx.c **** 	if (g_uc_device_type == DEVICE_TYPE_ILI9325) {
 2331              		.loc 1 1300 0
 2332 0002 0A4B     		ldr	r3, .L146
 2333 0004 1B78     		ldrb	r3, [r3]	@ zero_extendqisi2
 2334 0006 012B     		cmp	r3, #1
 2335 0008 04D1     		bne	.L143
1301:../src/sam/components/display/ili93xx/ili93xx.c **** 		ili93xx_write_register_word(ILI9325_BASE_IMG_DISP_CTRL,
 2336              		.loc 1 1301 0
 2337 000a 0121     		movs	r1, #1
 2338 000c 6120     		movs	r0, #97
 2339 000e FFF7FEFF 		bl	ili93xx_write_register_word
 2340              	.LVL261:
 2341 0012 08BD     		pop	{r3, pc}
 2342              	.L143:
1302:../src/sam/components/display/ili93xx/ili93xx.c **** 				ILI9325_BASE_IMG_DISP_CTRL_REV);
1303:../src/sam/components/display/ili93xx/ili93xx.c **** 	} else if (g_uc_device_type == DEVICE_TYPE_ILI9341) {
 2343              		.loc 1 1303 0
 2344 0014 022B     		cmp	r3, #2
 2345 0016 08D1     		bne	.L142
1304:../src/sam/components/display/ili93xx/ili93xx.c **** 		ili93xx_display_off();
 2346              		.loc 1 1304 0
 2347 0018 FFF7FEFF 		bl	ili93xx_display_off
 2348              	.LVL262:
1305:../src/sam/components/display/ili93xx/ili93xx.c **** 		ili93xx_write_register(ILI9341_CMD_NORMAL_DISP_MODE_ON, NULL, 0);
 2349              		.loc 1 1305 0
 2350 001c 0022     		movs	r2, #0
 2351 001e 1146     		mov	r1, r2
 2352 0020 1320     		movs	r0, #19
 2353 0022 FFF7FEFF 		bl	ili93xx_write_register
 2354              	.LVL263:
1306:../src/sam/components/display/ili93xx/ili93xx.c **** 		ili93xx_display_on();
 2355              		.loc 1 1306 0
 2356 0026 FFF7FEFF 		bl	ili93xx_display_on
 2357              	.LVL264:
 2358              	.L142:
 2359 002a 08BD     		pop	{r3, pc}
 2360              	.L147:
 2361              		.align	2
 2362              	.L146:
 2363 002c 00000000 		.word	.LANCHOR2
 2364              		.cfi_endproc
 2365              	.LFE202:
 2367              		.section	.text.ili93xx_set_display_direction,"ax",%progbits
 2368              		.align	2
 2369              		.global	ili93xx_set_display_direction
 2370              		.thumb
 2371              		.thumb_func
 2373              	ili93xx_set_display_direction:
 2374              	.LFB203:
1307:../src/sam/components/display/ili93xx/ili93xx.c **** 	}
1308:../src/sam/components/display/ili93xx/ili93xx.c **** }
1309:../src/sam/components/display/ili93xx/ili93xx.c **** 
1310:../src/sam/components/display/ili93xx/ili93xx.c **** /**
1311:../src/sam/components/display/ili93xx/ili93xx.c ****  * \brief Set display direction.
1312:../src/sam/components/display/ili93xx/ili93xx.c ****  *
1313:../src/sam/components/display/ili93xx/ili93xx.c ****  * \param e_dd 0: horizontal direction, 1: vertical direction
1314:../src/sam/components/display/ili93xx/ili93xx.c ****  * \param e_shd: horizontal increase(0) or decrease(1)
1315:../src/sam/components/display/ili93xx/ili93xx.c ****  * \param e_scd: vertical increase(1) or decrease(0)
1316:../src/sam/components/display/ili93xx/ili93xx.c ****  */
1317:../src/sam/components/display/ili93xx/ili93xx.c **** void ili93xx_set_display_direction(enum ili93xx_display_direction e_dd,
1318:../src/sam/components/display/ili93xx/ili93xx.c **** 		enum ili93xx_shift_direction e_shd,
1319:../src/sam/components/display/ili93xx/ili93xx.c **** 		enum ili93xx_scan_direction e_scd)
1320:../src/sam/components/display/ili93xx/ili93xx.c **** {
 2375              		.loc 1 1320 0
 2376              		.cfi_startproc
 2377              		@ args = 0, pretend = 0, frame = 8
 2378              		@ frame_needed = 0, uses_anonymous_args = 0
 2379              	.LVL265:
 2380 0000 30B5     		push	{r4, r5, lr}
 2381              		.cfi_def_cfa_offset 12
 2382              		.cfi_offset 4, -12
 2383              		.cfi_offset 5, -8
 2384              		.cfi_offset 14, -4
 2385 0002 83B0     		sub	sp, sp, #12
 2386              		.cfi_def_cfa_offset 24
1321:../src/sam/components/display/ili93xx/ili93xx.c **** 	if (g_uc_device_type == DEVICE_TYPE_ILI9325) {
 2387              		.loc 1 1321 0
 2388 0004 2D4B     		ldr	r3, .L158
 2389 0006 1B78     		ldrb	r3, [r3]	@ zero_extendqisi2
 2390 0008 012B     		cmp	r3, #1
 2391 000a 33D1     		bne	.L149
 2392 000c 0D46     		mov	r5, r1
 2393 000e 1446     		mov	r4, r2
1322:../src/sam/components/display/ili93xx/ili93xx.c **** 		if (e_dd == LANDSCAPE) {
 2394              		.loc 1 1322 0
 2395 0010 60B9     		cbnz	r0, .L150
1323:../src/sam/components/display/ili93xx/ili93xx.c **** 			ili93xx_write_register_word(ILI9325_ENTRY_MODE,
 2396              		.loc 1 1323 0
 2397 0012 4DF20801 		movw	r1, #53256
 2398              	.LVL266:
 2399 0016 0320     		movs	r0, #3
 2400              	.LVL267:
 2401 0018 FFF7FEFF 		bl	ili93xx_write_register_word
 2402              	.LVL268:
1324:../src/sam/components/display/ili93xx/ili93xx.c **** 					ILI9325_ENTRY_MODE_BGR | ILI9325_ENTRY_MODE_TRI |
1325:../src/sam/components/display/ili93xx/ili93xx.c **** 					ILI9325_ENTRY_MODE_DFM | ILI9325_ENTRY_MODE_ID(0x00)|
1326:../src/sam/components/display/ili93xx/ili93xx.c **** 					ILI9325_ENTRY_MODE_AM);
1327:../src/sam/components/display/ili93xx/ili93xx.c **** 			g_ul_lcd_x_length = ILI93XX_LCD_HEIGHT;
 2403              		.loc 1 1327 0
 2404 001c 4FF4A072 		mov	r2, #320
 2405 0020 274B     		ldr	r3, .L158+4
 2406 0022 1A60     		str	r2, [r3]
1328:../src/sam/components/display/ili93xx/ili93xx.c **** 			g_ul_lcd_y_length = ILI93XX_LCD_WIDTH;
 2407              		.loc 1 1328 0
 2408 0024 F022     		movs	r2, #240
 2409 0026 274B     		ldr	r3, .L158+8
 2410 0028 1A60     		str	r2, [r3]
 2411 002a 0BE0     		b	.L151
 2412              	.LVL269:
 2413              	.L150:
1329:../src/sam/components/display/ili93xx/ili93xx.c **** 		} else {
1330:../src/sam/components/display/ili93xx/ili93xx.c **** 			ili93xx_write_register_word(ILI9325_ENTRY_MODE,
 2414              		.loc 1 1330 0
 2415 002c 4DF21001 		movw	r1, #53264
 2416              	.LVL270:
 2417 0030 0320     		movs	r0, #3
 2418              	.LVL271:
 2419 0032 FFF7FEFF 		bl	ili93xx_write_register_word
 2420              	.LVL272:
1331:../src/sam/components/display/ili93xx/ili93xx.c **** 					ILI9325_ENTRY_MODE_BGR | ILI9325_ENTRY_MODE_TRI |
1332:../src/sam/components/display/ili93xx/ili93xx.c **** 					ILI9325_ENTRY_MODE_DFM | ILI9325_ENTRY_MODE_ID(0x01));
1333:../src/sam/components/display/ili93xx/ili93xx.c **** 			g_ul_lcd_x_length = ILI93XX_LCD_WIDTH;
 2421              		.loc 1 1333 0
 2422 0036 F022     		movs	r2, #240
 2423 0038 214B     		ldr	r3, .L158+4
 2424 003a 1A60     		str	r2, [r3]
1334:../src/sam/components/display/ili93xx/ili93xx.c **** 			g_ul_lcd_y_length = ILI93XX_LCD_HEIGHT;
 2425              		.loc 1 1334 0
 2426 003c 4FF4A072 		mov	r2, #320
 2427 0040 204B     		ldr	r3, .L158+8
 2428 0042 1A60     		str	r2, [r3]
 2429              	.L151:
1335:../src/sam/components/display/ili93xx/ili93xx.c **** 		}
1336:../src/sam/components/display/ili93xx/ili93xx.c **** 
1337:../src/sam/components/display/ili93xx/ili93xx.c **** 		if (e_shd == H_INCREASE) {
 2430              		.loc 1 1337 0
 2431 0044 25B9     		cbnz	r5, .L152
1338:../src/sam/components/display/ili93xx/ili93xx.c **** 			ili93xx_write_register_word(ILI9325_DRIVER_OUTPUT_CTRL1, 0x0000);
 2432              		.loc 1 1338 0
 2433 0046 0021     		movs	r1, #0
 2434 0048 0120     		movs	r0, #1
 2435 004a FFF7FEFF 		bl	ili93xx_write_register_word
 2436              	.LVL273:
 2437 004e 04E0     		b	.L153
 2438              	.L152:
1339:../src/sam/components/display/ili93xx/ili93xx.c **** 		} else {
1340:../src/sam/components/display/ili93xx/ili93xx.c **** 			ili93xx_write_register_word(ILI9325_DRIVER_OUTPUT_CTRL1,
 2439              		.loc 1 1340 0
 2440 0050 4FF48071 		mov	r1, #256
 2441 0054 0120     		movs	r0, #1
 2442 0056 FFF7FEFF 		bl	ili93xx_write_register_word
 2443              	.LVL274:
 2444              	.L153:
1341:../src/sam/components/display/ili93xx/ili93xx.c **** 					ILI9325_DRIVER_OUTPUT_CTRL1_SS);
1342:../src/sam/components/display/ili93xx/ili93xx.c **** 		}
1343:../src/sam/components/display/ili93xx/ili93xx.c **** 
1344:../src/sam/components/display/ili93xx/ili93xx.c **** 		if (e_scd == V_INCREASE) {
 2445              		.loc 1 1344 0
 2446 005a 2CB9     		cbnz	r4, .L154
1345:../src/sam/components/display/ili93xx/ili93xx.c **** 			ili93xx_write_register_word(ILI9325_DRIVER_OUTPUT_CTRL2,
 2447              		.loc 1 1345 0
 2448 005c 4FF41C51 		mov	r1, #9984
 2449 0060 6020     		movs	r0, #96
 2450 0062 FFF7FEFF 		bl	ili93xx_write_register_word
 2451              	.LVL275:
 2452 0066 27E0     		b	.L148
 2453              	.L154:
1346:../src/sam/components/display/ili93xx/ili93xx.c **** 					ILI9325_DRIVER_OUTPUT_CTRL2_NL(0x27));
1347:../src/sam/components/display/ili93xx/ili93xx.c **** 		} else {
1348:../src/sam/components/display/ili93xx/ili93xx.c **** 			ili93xx_write_register_word(ILI9325_DRIVER_OUTPUT_CTRL2,
 2454              		.loc 1 1348 0
 2455 0068 4FF42741 		mov	r1, #42752
 2456 006c 6020     		movs	r0, #96
 2457 006e FFF7FEFF 		bl	ili93xx_write_register_word
 2458              	.LVL276:
 2459 0072 21E0     		b	.L148
 2460              	.LVL277:
 2461              	.L149:
1349:../src/sam/components/display/ili93xx/ili93xx.c **** 					ILI9325_DRIVER_OUTPUT_CTRL2_GS |
1350:../src/sam/components/display/ili93xx/ili93xx.c **** 					ILI9325_DRIVER_OUTPUT_CTRL2_NL(0x27));
1351:../src/sam/components/display/ili93xx/ili93xx.c **** 		}
1352:../src/sam/components/display/ili93xx/ili93xx.c **** 	} else if (g_uc_device_type == DEVICE_TYPE_ILI9341) {
 2462              		.loc 1 1352 0
 2463 0074 022B     		cmp	r3, #2
 2464 0076 1FD1     		bne	.L148
1353:../src/sam/components/display/ili93xx/ili93xx.c **** 		if (e_dd == LANDSCAPE) {
 2465              		.loc 1 1353 0
 2466 0078 78B9     		cbnz	r0, .L156
 2467              	.LBB47:
1354:../src/sam/components/display/ili93xx/ili93xx.c **** 			uint8_t paratable[1];
1355:../src/sam/components/display/ili93xx/ili93xx.c **** 			paratable[0] = ILI9341_CMD_MEMORY_ACCESS_CONTROL_MV |
 2468              		.loc 1 1355 0
 2469 007a 02A9     		add	r1, sp, #8
 2470              	.LVL278:
 2471 007c 2823     		movs	r3, #40
 2472 007e 01F8043D 		strb	r3, [r1, #-4]!
1356:../src/sam/components/display/ili93xx/ili93xx.c **** 					ILI9341_CMD_MEMORY_ACCESS_CONTROL_BGR;
1357:../src/sam/components/display/ili93xx/ili93xx.c **** 			ili93xx_write_register(
 2473              		.loc 1 1357 0
 2474 0082 0122     		movs	r2, #1
 2475              	.LVL279:
 2476 0084 3620     		movs	r0, #54
 2477              	.LVL280:
 2478 0086 FFF7FEFF 		bl	ili93xx_write_register
 2479              	.LVL281:
1358:../src/sam/components/display/ili93xx/ili93xx.c **** 					ILI9341_CMD_MEMORY_ACCESS_CONTROL,
1359:../src/sam/components/display/ili93xx/ili93xx.c **** 					paratable, 1);
1360:../src/sam/components/display/ili93xx/ili93xx.c **** 			g_ul_lcd_x_length = ILI93XX_LCD_HEIGHT;
 2480              		.loc 1 1360 0
 2481 008a 4FF4A072 		mov	r2, #320
 2482 008e 0C4B     		ldr	r3, .L158+4
 2483 0090 1A60     		str	r2, [r3]
1361:../src/sam/components/display/ili93xx/ili93xx.c **** 			g_ul_lcd_y_length = ILI93XX_LCD_WIDTH;
 2484              		.loc 1 1361 0
 2485 0092 F022     		movs	r2, #240
 2486 0094 0B4B     		ldr	r3, .L158+8
 2487 0096 1A60     		str	r2, [r3]
 2488              	.LBE47:
 2489 0098 0EE0     		b	.L148
 2490              	.LVL282:
 2491              	.L156:
 2492              	.LBB48:
1362:../src/sam/components/display/ili93xx/ili93xx.c **** 		} else {
1363:../src/sam/components/display/ili93xx/ili93xx.c **** 			uint8_t paratable[1];
1364:../src/sam/components/display/ili93xx/ili93xx.c **** 			paratable[0] = ILI9341_CMD_MEMORY_ACCESS_CONTROL_BGR |
 2493              		.loc 1 1364 0
 2494 009a 02A9     		add	r1, sp, #8
 2495              	.LVL283:
 2496 009c 4823     		movs	r3, #72
 2497 009e 01F8043D 		strb	r3, [r1, #-4]!
1365:../src/sam/components/display/ili93xx/ili93xx.c **** 					ILI9341_CMD_MEMORY_ACCESS_CONTROL_MX;
1366:../src/sam/components/display/ili93xx/ili93xx.c **** 			ili93xx_write_register(
 2498              		.loc 1 1366 0
 2499 00a2 0122     		movs	r2, #1
 2500              	.LVL284:
 2501 00a4 3620     		movs	r0, #54
 2502              	.LVL285:
 2503 00a6 FFF7FEFF 		bl	ili93xx_write_register
 2504              	.LVL286:
1367:../src/sam/components/display/ili93xx/ili93xx.c **** 					ILI9341_CMD_MEMORY_ACCESS_CONTROL,
1368:../src/sam/components/display/ili93xx/ili93xx.c **** 					paratable, 1);
1369:../src/sam/components/display/ili93xx/ili93xx.c **** 			g_ul_lcd_x_length = ILI93XX_LCD_WIDTH;
 2505              		.loc 1 1369 0
 2506 00aa F022     		movs	r2, #240
 2507 00ac 044B     		ldr	r3, .L158+4
 2508 00ae 1A60     		str	r2, [r3]
1370:../src/sam/components/display/ili93xx/ili93xx.c **** 			g_ul_lcd_y_length = ILI93XX_LCD_HEIGHT;
 2509              		.loc 1 1370 0
 2510 00b0 4FF4A072 		mov	r2, #320
 2511 00b4 034B     		ldr	r3, .L158+8
 2512 00b6 1A60     		str	r2, [r3]
 2513              	.L148:
 2514              	.LBE48:
1371:../src/sam/components/display/ili93xx/ili93xx.c **** 		}
1372:../src/sam/components/display/ili93xx/ili93xx.c **** 	}
1373:../src/sam/components/display/ili93xx/ili93xx.c **** }
 2515              		.loc 1 1373 0
 2516 00b8 03B0     		add	sp, sp, #12
 2517              		.cfi_def_cfa_offset 12
 2518              		@ sp needed
 2519 00ba 30BD     		pop	{r4, r5, pc}
 2520              	.L159:
 2521              		.align	2
 2522              	.L158:
 2523 00bc 00000000 		.word	.LANCHOR2
 2524 00c0 00000000 		.word	.LANCHOR0
 2525 00c4 00000000 		.word	.LANCHOR1
 2526              		.cfi_endproc
 2527              	.LFE203:
 2529              		.section	.text.ili93xx_draw_pixel,"ax",%progbits
 2530              		.align	2
 2531              		.global	ili93xx_draw_pixel
 2532              		.thumb
 2533              		.thumb_func
 2535              	ili93xx_draw_pixel:
 2536              	.LFB204:
1374:../src/sam/components/display/ili93xx/ili93xx.c **** 
1375:../src/sam/components/display/ili93xx/ili93xx.c **** /**
1376:../src/sam/components/display/ili93xx/ili93xx.c ****  * \brief Draw a pixel on LCD.
1377:../src/sam/components/display/ili93xx/ili93xx.c ****  *
1378:../src/sam/components/display/ili93xx/ili93xx.c ****  * \param ul_x X coordinate of pixel.
1379:../src/sam/components/display/ili93xx/ili93xx.c ****  * \param ul_y Y coordinate of pixel.
1380:../src/sam/components/display/ili93xx/ili93xx.c ****  *
1381:../src/sam/components/display/ili93xx/ili93xx.c ****  * \return 0 if succeeds, otherwise fails.
1382:../src/sam/components/display/ili93xx/ili93xx.c ****  */
1383:../src/sam/components/display/ili93xx/ili93xx.c **** uint32_t ili93xx_draw_pixel(uint32_t ul_x, uint32_t ul_y)
1384:../src/sam/components/display/ili93xx/ili93xx.c **** {
 2537              		.loc 1 1384 0
 2538              		.cfi_startproc
 2539              		@ args = 0, pretend = 0, frame = 0
 2540              		@ frame_needed = 0, uses_anonymous_args = 0
 2541              	.LVL287:
 2542 0000 08B5     		push	{r3, lr}
 2543              		.cfi_def_cfa_offset 8
 2544              		.cfi_offset 3, -8
 2545              		.cfi_offset 14, -4
1385:../src/sam/components/display/ili93xx/ili93xx.c **** 	if ((ul_x >= g_ul_lcd_x_length) || (ul_y >= g_ul_lcd_y_length)) {
 2546              		.loc 1 1385 0
 2547 0002 164B     		ldr	r3, .L167
 2548 0004 1B68     		ldr	r3, [r3]
 2549 0006 8342     		cmp	r3, r0
 2550 0008 21D9     		bls	.L163
 2551              		.loc 1 1385 0 is_stmt 0 discriminator 1
 2552 000a 154B     		ldr	r3, .L167+4
 2553 000c 1B68     		ldr	r3, [r3]
 2554 000e 8B42     		cmp	r3, r1
 2555 0010 1FD9     		bls	.L164
1386:../src/sam/components/display/ili93xx/ili93xx.c **** 		return 1;
1387:../src/sam/components/display/ili93xx/ili93xx.c **** 	}
1388:../src/sam/components/display/ili93xx/ili93xx.c **** 
1389:../src/sam/components/display/ili93xx/ili93xx.c **** 	if (g_uc_device_type == DEVICE_TYPE_ILI9325) {
 2556              		.loc 1 1389 0 is_stmt 1
 2557 0012 144B     		ldr	r3, .L167+8
 2558 0014 1B78     		ldrb	r3, [r3]	@ zero_extendqisi2
 2559 0016 012B     		cmp	r3, #1
 2560 0018 0BD1     		bne	.L162
1390:../src/sam/components/display/ili93xx/ili93xx.c **** 		/** Set cursor */
1391:../src/sam/components/display/ili93xx/ili93xx.c **** 		ili93xx_set_cursor_position(ul_x, ul_y);
 2561              		.loc 1 1391 0
 2562 001a 89B2     		uxth	r1, r1
 2563              	.LVL288:
 2564 001c 80B2     		uxth	r0, r0
 2565              	.LVL289:
 2566 001e FFF7FEFF 		bl	ili93xx_set_cursor_position
 2567              	.LVL290:
1392:../src/sam/components/display/ili93xx/ili93xx.c **** 		/** Prepare to write in GRAM */
1393:../src/sam/components/display/ili93xx/ili93xx.c **** 		ili93xx_write_ram_prepare();
 2568              		.loc 1 1393 0
 2569 0022 FFF7FEFF 		bl	ili93xx_write_ram_prepare
 2570              	.LVL291:
1394:../src/sam/components/display/ili93xx/ili93xx.c **** 		ili93xx_write_ram(*g_ul_pixel_cache);
 2571              		.loc 1 1394 0
 2572 0026 104B     		ldr	r3, .L167+12
 2573 0028 1888     		ldrh	r0, [r3]
 2574 002a FFF7FEFF 		bl	ili93xx_write_ram
 2575              	.LVL292:
1395:../src/sam/components/display/ili93xx/ili93xx.c **** 	} else if (g_uc_device_type == DEVICE_TYPE_ILI9341) {
1396:../src/sam/components/display/ili93xx/ili93xx.c **** 		ili93xx_set_window(ul_x, ul_y, 0, 0);
1397:../src/sam/components/display/ili93xx/ili93xx.c **** 		/** Prepare to write in GRAM */
1398:../src/sam/components/display/ili93xx/ili93xx.c **** 		ili93xx_write_ram_prepare();
1399:../src/sam/components/display/ili93xx/ili93xx.c **** 		ili93xx_write_ram(*g_ul_pixel_cache);
1400:../src/sam/components/display/ili93xx/ili93xx.c **** 	}
1401:../src/sam/components/display/ili93xx/ili93xx.c **** 
1402:../src/sam/components/display/ili93xx/ili93xx.c **** 	return 0;
 2576              		.loc 1 1402 0
 2577 002e 0020     		movs	r0, #0
 2578 0030 08BD     		pop	{r3, pc}
 2579              	.LVL293:
 2580              	.L162:
1395:../src/sam/components/display/ili93xx/ili93xx.c **** 	} else if (g_uc_device_type == DEVICE_TYPE_ILI9341) {
 2581              		.loc 1 1395 0
 2582 0032 022B     		cmp	r3, #2
 2583 0034 0FD1     		bne	.L165
1396:../src/sam/components/display/ili93xx/ili93xx.c **** 		/** Prepare to write in GRAM */
 2584              		.loc 1 1396 0
 2585 0036 0023     		movs	r3, #0
 2586 0038 1A46     		mov	r2, r3
 2587 003a FFF7FEFF 		bl	ili93xx_set_window
 2588              	.LVL294:
1398:../src/sam/components/display/ili93xx/ili93xx.c **** 		ili93xx_write_ram(*g_ul_pixel_cache);
 2589              		.loc 1 1398 0
 2590 003e FFF7FEFF 		bl	ili93xx_write_ram_prepare
 2591              	.LVL295:
1399:../src/sam/components/display/ili93xx/ili93xx.c **** 	}
 2592              		.loc 1 1399 0
 2593 0042 094B     		ldr	r3, .L167+12
 2594 0044 1888     		ldrh	r0, [r3]
 2595 0046 FFF7FEFF 		bl	ili93xx_write_ram
 2596              	.LVL296:
 2597              		.loc 1 1402 0
 2598 004a 0020     		movs	r0, #0
 2599 004c 08BD     		pop	{r3, pc}
 2600              	.LVL297:
 2601              	.L163:
1386:../src/sam/components/display/ili93xx/ili93xx.c **** 	}
 2602              		.loc 1 1386 0
 2603 004e 0120     		movs	r0, #1
 2604              	.LVL298:
 2605 0050 08BD     		pop	{r3, pc}
 2606              	.LVL299:
 2607              	.L164:
 2608 0052 0120     		movs	r0, #1
 2609              	.LVL300:
 2610 0054 08BD     		pop	{r3, pc}
 2611              	.LVL301:
 2612              	.L165:
 2613              		.loc 1 1402 0
 2614 0056 0020     		movs	r0, #0
 2615              	.LVL302:
1403:../src/sam/components/display/ili93xx/ili93xx.c **** }
 2616              		.loc 1 1403 0
 2617 0058 08BD     		pop	{r3, pc}
 2618              	.L168:
 2619 005a 00BF     		.align	2
 2620              	.L167:
 2621 005c 00000000 		.word	.LANCHOR0
 2622 0060 00000000 		.word	.LANCHOR1
 2623 0064 00000000 		.word	.LANCHOR2
 2624 0068 00000000 		.word	.LANCHOR3
 2625              		.cfi_endproc
 2626              	.LFE204:
 2628              		.section	.text.ili93xx_draw_line_bresenham,"ax",%progbits
 2629              		.align	2
 2630              		.thumb
 2631              		.thumb_func
 2633              	ili93xx_draw_line_bresenham:
 2634              	.LFB206:
1404:../src/sam/components/display/ili93xx/ili93xx.c **** 
1405:../src/sam/components/display/ili93xx/ili93xx.c **** /**
1406:../src/sam/components/display/ili93xx/ili93xx.c ****  * \brief Get a pixel from LCD.
1407:../src/sam/components/display/ili93xx/ili93xx.c ****  *
1408:../src/sam/components/display/ili93xx/ili93xx.c ****  * \param ul_x X coordinate of pixel.
1409:../src/sam/components/display/ili93xx/ili93xx.c ****  * \param ul_y Y coordinate of pixel.
1410:../src/sam/components/display/ili93xx/ili93xx.c ****  *
1411:../src/sam/components/display/ili93xx/ili93xx.c ****  * \return the pixel color.
1412:../src/sam/components/display/ili93xx/ili93xx.c ****  */
1413:../src/sam/components/display/ili93xx/ili93xx.c **** ili93xx_color_t ili93xx_get_pixel(uint32_t ul_x, uint32_t ul_y)
1414:../src/sam/components/display/ili93xx/ili93xx.c **** {
1415:../src/sam/components/display/ili93xx/ili93xx.c **** 	Assert(ul_x <= g_ul_lcd_x_length);
1416:../src/sam/components/display/ili93xx/ili93xx.c **** 	Assert(ul_y <= g_ul_lcd_y_length);
1417:../src/sam/components/display/ili93xx/ili93xx.c **** 
1418:../src/sam/components/display/ili93xx/ili93xx.c **** 	if (g_uc_device_type == DEVICE_TYPE_ILI9325) {
1419:../src/sam/components/display/ili93xx/ili93xx.c **** 		/** Set cursor */
1420:../src/sam/components/display/ili93xx/ili93xx.c **** 		ili93xx_set_cursor_position(ul_x, ul_y);
1421:../src/sam/components/display/ili93xx/ili93xx.c **** 		/** Prepare to write in GRAM */
1422:../src/sam/components/display/ili93xx/ili93xx.c **** 		ili93xx_read_ram_prepare();
1423:../src/sam/components/display/ili93xx/ili93xx.c **** 		return ili93xx_read_ram();
1424:../src/sam/components/display/ili93xx/ili93xx.c **** 	} else if (g_uc_device_type == DEVICE_TYPE_ILI9341) {
1425:../src/sam/components/display/ili93xx/ili93xx.c **** 		ili93xx_set_window(ul_x, ul_y, 0, 0);
1426:../src/sam/components/display/ili93xx/ili93xx.c **** 		/** Prepare to write in GRAM */
1427:../src/sam/components/display/ili93xx/ili93xx.c **** 		ili93xx_read_ram_prepare();
1428:../src/sam/components/display/ili93xx/ili93xx.c **** 		return ili93xx_read_ram();
1429:../src/sam/components/display/ili93xx/ili93xx.c **** 	}
1430:../src/sam/components/display/ili93xx/ili93xx.c **** 
1431:../src/sam/components/display/ili93xx/ili93xx.c **** 	return 0;
1432:../src/sam/components/display/ili93xx/ili93xx.c **** }
1433:../src/sam/components/display/ili93xx/ili93xx.c **** 
1434:../src/sam/components/display/ili93xx/ili93xx.c **** /**
1435:../src/sam/components/display/ili93xx/ili93xx.c ****  * \brief Draw a line on LCD, which is not horizontal or vertical.
1436:../src/sam/components/display/ili93xx/ili93xx.c ****  *
1437:../src/sam/components/display/ili93xx/ili93xx.c ****  * \param ul_x1 X coordinate of line start.
1438:../src/sam/components/display/ili93xx/ili93xx.c ****  * \param ul_y1 Y coordinate of line start.
1439:../src/sam/components/display/ili93xx/ili93xx.c ****  * \param ul_x2 X coordinate of line end.
1440:../src/sam/components/display/ili93xx/ili93xx.c ****  * \param ul_y2 Y coordinate of line endl.
1441:../src/sam/components/display/ili93xx/ili93xx.c ****  */
1442:../src/sam/components/display/ili93xx/ili93xx.c **** static void ili93xx_draw_line_bresenham(uint32_t ul_x1, uint32_t ul_y1,
1443:../src/sam/components/display/ili93xx/ili93xx.c **** 		uint32_t ul_x2, uint32_t ul_y2)
1444:../src/sam/components/display/ili93xx/ili93xx.c **** {
 2635              		.loc 1 1444 0
 2636              		.cfi_startproc
 2637              		@ args = 0, pretend = 0, frame = 0
 2638              		@ frame_needed = 0, uses_anonymous_args = 0
 2639              	.LVL303:
 2640 0000 2DE9F84F 		push	{r3, r4, r5, r6, r7, r8, r9, r10, fp, lr}
 2641              		.cfi_def_cfa_offset 40
 2642              		.cfi_offset 3, -40
 2643              		.cfi_offset 4, -36
 2644              		.cfi_offset 5, -32
 2645              		.cfi_offset 6, -28
 2646              		.cfi_offset 7, -24
 2647              		.cfi_offset 8, -20
 2648              		.cfi_offset 9, -16
 2649              		.cfi_offset 10, -12
 2650              		.cfi_offset 11, -8
 2651              		.cfi_offset 14, -4
1445:../src/sam/components/display/ili93xx/ili93xx.c **** 	int dx, dy;
1446:../src/sam/components/display/ili93xx/ili93xx.c **** 	int i;
1447:../src/sam/components/display/ili93xx/ili93xx.c **** 	int xinc, yinc, cumul;
1448:../src/sam/components/display/ili93xx/ili93xx.c **** 	int x, y;
1449:../src/sam/components/display/ili93xx/ili93xx.c **** 
1450:../src/sam/components/display/ili93xx/ili93xx.c **** 	x = ul_x1;
 2652              		.loc 1 1450 0
 2653 0004 0446     		mov	r4, r0
 2654              	.LVL304:
1451:../src/sam/components/display/ili93xx/ili93xx.c **** 	y = ul_y1;
 2655              		.loc 1 1451 0
 2656 0006 0D46     		mov	r5, r1
 2657              	.LVL305:
1452:../src/sam/components/display/ili93xx/ili93xx.c **** 	dx = ul_x2 - ul_x1;
 2658              		.loc 1 1452 0
 2659 0008 121A     		subs	r2, r2, r0
 2660              	.LVL306:
1453:../src/sam/components/display/ili93xx/ili93xx.c **** 	dy = ul_y2 - ul_y1;
 2661              		.loc 1 1453 0
 2662 000a 5B1A     		subs	r3, r3, r1
 2663              	.LVL307:
1454:../src/sam/components/display/ili93xx/ili93xx.c **** 	xinc = (dx > 0) ? 1 : -1;
 2664              		.loc 1 1454 0
 2665 000c 002A     		cmp	r2, #0
 2666 000e 02DD     		ble	.L180
 2667 0010 4FF00109 		mov	r9, #1
 2668 0014 01E0     		b	.L170
 2669              	.L180:
 2670 0016 4FF0FF39 		mov	r9, #-1
 2671              	.L170:
 2672              	.LVL308:
1455:../src/sam/components/display/ili93xx/ili93xx.c **** 	yinc = (dy > 0) ? 1 : -1;
 2673              		.loc 1 1455 0 discriminator 4
 2674 001a 002B     		cmp	r3, #0
 2675 001c 02DD     		ble	.L181
 2676              		.loc 1 1455 0 is_stmt 0
 2677 001e 4FF0010A 		mov	r10, #1
 2678 0022 01E0     		b	.L171
 2679              	.L181:
 2680 0024 4FF0FF3A 		mov	r10, #-1
 2681              	.L171:
 2682              	.LVL309:
1456:../src/sam/components/display/ili93xx/ili93xx.c **** 	dx = abs(ul_x2 - ul_x1);
 2683              		.loc 1 1456 0 is_stmt 1 discriminator 4
 2684 0028 82EAE277 		eor	r7, r2, r2, asr #31
 2685 002c A7EBE277 		sub	r7, r7, r2, asr #31
 2686              	.LVL310:
1457:../src/sam/components/display/ili93xx/ili93xx.c **** 	dy = abs(ul_y2 - ul_y1);
 2687              		.loc 1 1457 0 discriminator 4
 2688 0030 83EAE376 		eor	r6, r3, r3, asr #31
 2689 0034 A6EBE376 		sub	r6, r6, r3, asr #31
 2690              	.LVL311:
1458:../src/sam/components/display/ili93xx/ili93xx.c **** 
1459:../src/sam/components/display/ili93xx/ili93xx.c **** 	ili93xx_draw_pixel(x, y);
 2691              		.loc 1 1459 0 discriminator 4
 2692 0038 FFF7FEFF 		bl	ili93xx_draw_pixel
 2693              	.LVL312:
1460:../src/sam/components/display/ili93xx/ili93xx.c **** 
1461:../src/sam/components/display/ili93xx/ili93xx.c **** 	if (dx > dy) {
 2694              		.loc 1 1461 0 discriminator 4
 2695 003c B742     		cmp	r7, r6
 2696 003e 15DD     		ble	.L172
1462:../src/sam/components/display/ili93xx/ili93xx.c **** 		cumul = dx >> 1;
 2697              		.loc 1 1462 0
 2698 0040 4FEA6708 		asr	r8, r7, #1
 2699              	.LVL313:
1463:../src/sam/components/display/ili93xx/ili93xx.c **** 
1464:../src/sam/components/display/ili93xx/ili93xx.c **** 		for (i = 1; i <= dx; i++) {
 2700              		.loc 1 1464 0
 2701 0044 4FF0010B 		mov	fp, #1
 2702 0048 0CE0     		b	.L173
 2703              	.LVL314:
 2704              	.L175:
1465:../src/sam/components/display/ili93xx/ili93xx.c **** 			x += xinc;
 2705              		.loc 1 1465 0
 2706 004a 4C44     		add	r4, r4, r9
 2707              	.LVL315:
1466:../src/sam/components/display/ili93xx/ili93xx.c **** 			cumul += dy;
 2708              		.loc 1 1466 0
 2709 004c B044     		add	r8, r8, r6
 2710              	.LVL316:
1467:../src/sam/components/display/ili93xx/ili93xx.c **** 
1468:../src/sam/components/display/ili93xx/ili93xx.c **** 			if (cumul >= dx) {
 2711              		.loc 1 1468 0
 2712 004e 4745     		cmp	r7, r8
 2713 0050 02DC     		bgt	.L174
1469:../src/sam/components/display/ili93xx/ili93xx.c **** 				cumul -= dx;
 2714              		.loc 1 1469 0
 2715 0052 C7EB0808 		rsb	r8, r7, r8
 2716              	.LVL317:
1470:../src/sam/components/display/ili93xx/ili93xx.c **** 				y += yinc;
 2717              		.loc 1 1470 0
 2718 0056 5544     		add	r5, r5, r10
 2719              	.LVL318:
 2720              	.L174:
1471:../src/sam/components/display/ili93xx/ili93xx.c **** 			}
1472:../src/sam/components/display/ili93xx/ili93xx.c **** 
1473:../src/sam/components/display/ili93xx/ili93xx.c **** 			ili93xx_draw_pixel(x, y);
 2721              		.loc 1 1473 0 discriminator 2
 2722 0058 2946     		mov	r1, r5
 2723 005a 2046     		mov	r0, r4
 2724 005c FFF7FEFF 		bl	ili93xx_draw_pixel
 2725              	.LVL319:
1464:../src/sam/components/display/ili93xx/ili93xx.c **** 			x += xinc;
 2726              		.loc 1 1464 0 discriminator 2
 2727 0060 0BF1010B 		add	fp, fp, #1
 2728              	.LVL320:
 2729              	.L173:
1464:../src/sam/components/display/ili93xx/ili93xx.c **** 			x += xinc;
 2730              		.loc 1 1464 0 is_stmt 0 discriminator 1
 2731 0064 BB45     		cmp	fp, r7
 2732 0066 F0DD     		ble	.L175
 2733 0068 BDE8F88F 		pop	{r3, r4, r5, r6, r7, r8, r9, r10, fp, pc}
 2734              	.LVL321:
 2735              	.L172:
1474:../src/sam/components/display/ili93xx/ili93xx.c **** 		}
1475:../src/sam/components/display/ili93xx/ili93xx.c **** 	} else {
1476:../src/sam/components/display/ili93xx/ili93xx.c **** 		cumul = dy >> 1;
 2736              		.loc 1 1476 0 is_stmt 1
 2737 006c 4FEA6608 		asr	r8, r6, #1
 2738              	.LVL322:
1477:../src/sam/components/display/ili93xx/ili93xx.c **** 
1478:../src/sam/components/display/ili93xx/ili93xx.c **** 		for (i = 1; i <= dy; i++) {
 2739              		.loc 1 1478 0
 2740 0070 4FF0010B 		mov	fp, #1
 2741 0074 0CE0     		b	.L177
 2742              	.LVL323:
 2743              	.L179:
1479:../src/sam/components/display/ili93xx/ili93xx.c **** 			y += yinc;
 2744              		.loc 1 1479 0
 2745 0076 5544     		add	r5, r5, r10
 2746              	.LVL324:
1480:../src/sam/components/display/ili93xx/ili93xx.c **** 			cumul += dx;
 2747              		.loc 1 1480 0
 2748 0078 B844     		add	r8, r8, r7
 2749              	.LVL325:
1481:../src/sam/components/display/ili93xx/ili93xx.c **** 
1482:../src/sam/components/display/ili93xx/ili93xx.c **** 			if (cumul >= dy) {
 2750              		.loc 1 1482 0
 2751 007a 4645     		cmp	r6, r8
 2752 007c 02DC     		bgt	.L178
1483:../src/sam/components/display/ili93xx/ili93xx.c **** 				cumul -= dy;
 2753              		.loc 1 1483 0
 2754 007e C6EB0808 		rsb	r8, r6, r8
 2755              	.LVL326:
1484:../src/sam/components/display/ili93xx/ili93xx.c **** 				x += xinc;
 2756              		.loc 1 1484 0
 2757 0082 4C44     		add	r4, r4, r9
 2758              	.LVL327:
 2759              	.L178:
1485:../src/sam/components/display/ili93xx/ili93xx.c **** 			}
1486:../src/sam/components/display/ili93xx/ili93xx.c **** 
1487:../src/sam/components/display/ili93xx/ili93xx.c **** 			ili93xx_draw_pixel(x, y);
 2760              		.loc 1 1487 0 discriminator 2
 2761 0084 2946     		mov	r1, r5
 2762 0086 2046     		mov	r0, r4
 2763 0088 FFF7FEFF 		bl	ili93xx_draw_pixel
 2764              	.LVL328:
1478:../src/sam/components/display/ili93xx/ili93xx.c **** 			y += yinc;
 2765              		.loc 1 1478 0 discriminator 2
 2766 008c 0BF1010B 		add	fp, fp, #1
 2767              	.LVL329:
 2768              	.L177:
1478:../src/sam/components/display/ili93xx/ili93xx.c **** 			y += yinc;
 2769              		.loc 1 1478 0 is_stmt 0 discriminator 1
 2770 0090 B345     		cmp	fp, r6
 2771 0092 F0DD     		ble	.L179
 2772 0094 BDE8F88F 		pop	{r3, r4, r5, r6, r7, r8, r9, r10, fp, pc}
 2773              		.cfi_endproc
 2774              	.LFE206:
 2776              		.section	.text.ili93xx_draw_char,"ax",%progbits
 2777              		.align	2
 2778              		.thumb
 2779              		.thumb_func
 2781              	ili93xx_draw_char:
 2782              	.LFB212:
1488:../src/sam/components/display/ili93xx/ili93xx.c **** 		}
1489:../src/sam/components/display/ili93xx/ili93xx.c **** 	}
1490:../src/sam/components/display/ili93xx/ili93xx.c **** }
1491:../src/sam/components/display/ili93xx/ili93xx.c **** 
1492:../src/sam/components/display/ili93xx/ili93xx.c **** /**
1493:../src/sam/components/display/ili93xx/ili93xx.c ****  * \brief Draw a line on LCD.
1494:../src/sam/components/display/ili93xx/ili93xx.c ****  *
1495:../src/sam/components/display/ili93xx/ili93xx.c ****  * \param ul_x1 X coordinate of line start.
1496:../src/sam/components/display/ili93xx/ili93xx.c ****  * \param ul_y1 Y coordinate of line start.
1497:../src/sam/components/display/ili93xx/ili93xx.c ****  * \param ul_x2 X coordinate of line end.
1498:../src/sam/components/display/ili93xx/ili93xx.c ****  * \param ul_y2 Y coordinate of line end.
1499:../src/sam/components/display/ili93xx/ili93xx.c ****  */
1500:../src/sam/components/display/ili93xx/ili93xx.c **** void ili93xx_draw_line(uint32_t ul_x1, uint32_t ul_y1,
1501:../src/sam/components/display/ili93xx/ili93xx.c **** 		uint32_t ul_x2, uint32_t ul_y2)
1502:../src/sam/components/display/ili93xx/ili93xx.c **** {
1503:../src/sam/components/display/ili93xx/ili93xx.c **** 	if ((ul_y1 == ul_y2) || (ul_x1 == ul_x2)) {
1504:../src/sam/components/display/ili93xx/ili93xx.c **** 		ili93xx_draw_filled_rectangle(ul_x1, ul_y1, ul_x2, ul_y2);
1505:../src/sam/components/display/ili93xx/ili93xx.c **** 	} else {
1506:../src/sam/components/display/ili93xx/ili93xx.c **** 		ili93xx_draw_line_bresenham(ul_x1, ul_y1, ul_x2, ul_y2);
1507:../src/sam/components/display/ili93xx/ili93xx.c **** 	}
1508:../src/sam/components/display/ili93xx/ili93xx.c **** }
1509:../src/sam/components/display/ili93xx/ili93xx.c **** 
1510:../src/sam/components/display/ili93xx/ili93xx.c **** /**
1511:../src/sam/components/display/ili93xx/ili93xx.c ****  * \brief Draw a rectangle on LCD.
1512:../src/sam/components/display/ili93xx/ili93xx.c ****  *
1513:../src/sam/components/display/ili93xx/ili93xx.c ****  * \param ul_x1 X coordinate of upper-left corner on LCD.
1514:../src/sam/components/display/ili93xx/ili93xx.c ****  * \param ul_y1 Y coordinate of upper-left corner on LCD.
1515:../src/sam/components/display/ili93xx/ili93xx.c ****  * \param ul_x2 X coordinate of lower-right corner on LCD.
1516:../src/sam/components/display/ili93xx/ili93xx.c ****  * \param ul_y2 Y coordinate of lower-right corner on LCD.
1517:../src/sam/components/display/ili93xx/ili93xx.c ****  */
1518:../src/sam/components/display/ili93xx/ili93xx.c **** void ili93xx_draw_rectangle(uint32_t ul_x1, uint32_t ul_y1,
1519:../src/sam/components/display/ili93xx/ili93xx.c **** 		uint32_t ul_x2, uint32_t ul_y2)
1520:../src/sam/components/display/ili93xx/ili93xx.c **** {
1521:../src/sam/components/display/ili93xx/ili93xx.c **** 	ili93xx_check_box_coordinates(&ul_x1, &ul_y1, &ul_x2, &ul_y2);
1522:../src/sam/components/display/ili93xx/ili93xx.c **** 
1523:../src/sam/components/display/ili93xx/ili93xx.c **** 	ili93xx_draw_filled_rectangle(ul_x1, ul_y1, ul_x2, ul_y1);
1524:../src/sam/components/display/ili93xx/ili93xx.c **** 	ili93xx_draw_filled_rectangle(ul_x1, ul_y2, ul_x2, ul_y2);
1525:../src/sam/components/display/ili93xx/ili93xx.c **** 
1526:../src/sam/components/display/ili93xx/ili93xx.c **** 	ili93xx_draw_filled_rectangle(ul_x1, ul_y1, ul_x1, ul_y2);
1527:../src/sam/components/display/ili93xx/ili93xx.c **** 	ili93xx_draw_filled_rectangle(ul_x2, ul_y1, ul_x2, ul_y2);
1528:../src/sam/components/display/ili93xx/ili93xx.c **** }
1529:../src/sam/components/display/ili93xx/ili93xx.c **** 
1530:../src/sam/components/display/ili93xx/ili93xx.c **** /**
1531:../src/sam/components/display/ili93xx/ili93xx.c ****  * \brief Draw a filled rectangle on LCD.
1532:../src/sam/components/display/ili93xx/ili93xx.c ****  *
1533:../src/sam/components/display/ili93xx/ili93xx.c ****  * \param ul_x1 X coordinate of upper-left corner on LCD.
1534:../src/sam/components/display/ili93xx/ili93xx.c ****  * \param ul_y1 Y coordinate of upper-left corner on LCD.
1535:../src/sam/components/display/ili93xx/ili93xx.c ****  * \param ul_x2 X coordinate of lower-right corner on LCD.
1536:../src/sam/components/display/ili93xx/ili93xx.c ****  * \param ul_y2 Y coordinate of lower-right corner on LCD.
1537:../src/sam/components/display/ili93xx/ili93xx.c ****  */
1538:../src/sam/components/display/ili93xx/ili93xx.c **** void ili93xx_draw_filled_rectangle(uint32_t ul_x1, uint32_t ul_y1, uint32_t ul_x2, uint32_t ul_y2)
1539:../src/sam/components/display/ili93xx/ili93xx.c **** {
1540:../src/sam/components/display/ili93xx/ili93xx.c **** 	uint32_t size, blocks;
1541:../src/sam/components/display/ili93xx/ili93xx.c **** 
1542:../src/sam/components/display/ili93xx/ili93xx.c **** 	/** Swap coordinates if necessary */
1543:../src/sam/components/display/ili93xx/ili93xx.c **** 	ili93xx_check_box_coordinates(&ul_x1, &ul_y1, &ul_x2, &ul_y2);
1544:../src/sam/components/display/ili93xx/ili93xx.c **** 
1545:../src/sam/components/display/ili93xx/ili93xx.c **** 	/** Determine the refresh window area */
1546:../src/sam/components/display/ili93xx/ili93xx.c **** 	ili93xx_set_window(ul_x1, ul_y1, (ul_x2 - ul_x1) + 1,
1547:../src/sam/components/display/ili93xx/ili93xx.c **** 			(ul_y2 - ul_y1) + 1);
1548:../src/sam/components/display/ili93xx/ili93xx.c **** 
1549:../src/sam/components/display/ili93xx/ili93xx.c **** 	/** Set cursor */
1550:../src/sam/components/display/ili93xx/ili93xx.c **** 	ili93xx_set_cursor_position(ul_x1, ul_y1);
1551:../src/sam/components/display/ili93xx/ili93xx.c **** 
1552:../src/sam/components/display/ili93xx/ili93xx.c **** 	/** Prepare to write in Graphic RAM */
1553:../src/sam/components/display/ili93xx/ili93xx.c **** 	ili93xx_write_ram_prepare();
1554:../src/sam/components/display/ili93xx/ili93xx.c **** 
1555:../src/sam/components/display/ili93xx/ili93xx.c **** 	size = (ul_x2 - ul_x1 + 1) * (ul_y2 - ul_y1 + 1);
1556:../src/sam/components/display/ili93xx/ili93xx.c **** 
1557:../src/sam/components/display/ili93xx/ili93xx.c **** 	/** Send pixels blocks => one SPI IT / block */
1558:../src/sam/components/display/ili93xx/ili93xx.c **** 	blocks = size / LCD_DATA_CACHE_SIZE;
1559:../src/sam/components/display/ili93xx/ili93xx.c **** 	while (blocks--) {
1560:../src/sam/components/display/ili93xx/ili93xx.c **** 		ili93xx_write_ram_buffer(g_ul_pixel_cache,
1561:../src/sam/components/display/ili93xx/ili93xx.c **** 								LCD_DATA_CACHE_SIZE);
1562:../src/sam/components/display/ili93xx/ili93xx.c **** 	}
1563:../src/sam/components/display/ili93xx/ili93xx.c **** 
1564:../src/sam/components/display/ili93xx/ili93xx.c **** 	/** Send remaining pixels */
1565:../src/sam/components/display/ili93xx/ili93xx.c **** 	ili93xx_write_ram_buffer(g_ul_pixel_cache,
1566:../src/sam/components/display/ili93xx/ili93xx.c **** 					size % LCD_DATA_CACHE_SIZE);
1567:../src/sam/components/display/ili93xx/ili93xx.c **** 
1568:../src/sam/components/display/ili93xx/ili93xx.c **** 	/** Reset the refresh window area */
1569:../src/sam/components/display/ili93xx/ili93xx.c **** 	ili93xx_set_window(0, 0, g_ul_lcd_x_length, g_ul_lcd_y_length);
1570:../src/sam/components/display/ili93xx/ili93xx.c **** }
1571:../src/sam/components/display/ili93xx/ili93xx.c **** 
1572:../src/sam/components/display/ili93xx/ili93xx.c **** /**
1573:../src/sam/components/display/ili93xx/ili93xx.c ****  * \brief Draw a circle on LCD.
1574:../src/sam/components/display/ili93xx/ili93xx.c ****  *
1575:../src/sam/components/display/ili93xx/ili93xx.c ****  * \param ul_x X coordinate of circle center.
1576:../src/sam/components/display/ili93xx/ili93xx.c ****  * \param ul_y Y coordinate of circle center.
1577:../src/sam/components/display/ili93xx/ili93xx.c ****  * \param ul_r circle radius.
1578:../src/sam/components/display/ili93xx/ili93xx.c ****  *
1579:../src/sam/components/display/ili93xx/ili93xx.c ****  * \return 0 if succeeds, otherwise fails.
1580:../src/sam/components/display/ili93xx/ili93xx.c ****  */
1581:../src/sam/components/display/ili93xx/ili93xx.c **** uint32_t ili93xx_draw_circle(uint32_t ul_x, uint32_t ul_y, uint32_t ul_r)
1582:../src/sam/components/display/ili93xx/ili93xx.c **** {
1583:../src/sam/components/display/ili93xx/ili93xx.c **** 	int32_t d;
1584:../src/sam/components/display/ili93xx/ili93xx.c **** 	uint32_t curX;
1585:../src/sam/components/display/ili93xx/ili93xx.c **** 	uint32_t curY;
1586:../src/sam/components/display/ili93xx/ili93xx.c **** 
1587:../src/sam/components/display/ili93xx/ili93xx.c **** 	if (ul_r == 0) {
1588:../src/sam/components/display/ili93xx/ili93xx.c **** 		return 1;
1589:../src/sam/components/display/ili93xx/ili93xx.c **** 	}
1590:../src/sam/components/display/ili93xx/ili93xx.c **** 
1591:../src/sam/components/display/ili93xx/ili93xx.c **** 	d = 3 - (ul_r << 1);
1592:../src/sam/components/display/ili93xx/ili93xx.c **** 	curX = 0;
1593:../src/sam/components/display/ili93xx/ili93xx.c **** 	curY = ul_r;
1594:../src/sam/components/display/ili93xx/ili93xx.c **** 
1595:../src/sam/components/display/ili93xx/ili93xx.c **** 	while (curX <= curY) {
1596:../src/sam/components/display/ili93xx/ili93xx.c **** 		ili93xx_draw_pixel(ul_x + curX, ul_y + curY);
1597:../src/sam/components/display/ili93xx/ili93xx.c **** 		ili93xx_draw_pixel(ul_x + curX, ul_y - curY);
1598:../src/sam/components/display/ili93xx/ili93xx.c **** 		ili93xx_draw_pixel(ul_x - curX, ul_y + curY);
1599:../src/sam/components/display/ili93xx/ili93xx.c **** 		ili93xx_draw_pixel(ul_x - curX, ul_y - curY);
1600:../src/sam/components/display/ili93xx/ili93xx.c **** 		ili93xx_draw_pixel(ul_x + curY, ul_y + curX);
1601:../src/sam/components/display/ili93xx/ili93xx.c **** 		ili93xx_draw_pixel(ul_x + curY, ul_y - curX);
1602:../src/sam/components/display/ili93xx/ili93xx.c **** 		ili93xx_draw_pixel(ul_x - curY, ul_y + curX);
1603:../src/sam/components/display/ili93xx/ili93xx.c **** 		ili93xx_draw_pixel(ul_x - curY, ul_y - curX);
1604:../src/sam/components/display/ili93xx/ili93xx.c **** 
1605:../src/sam/components/display/ili93xx/ili93xx.c **** 		if (d < 0) {
1606:../src/sam/components/display/ili93xx/ili93xx.c **** 			d += (curX << 2) + 6;
1607:../src/sam/components/display/ili93xx/ili93xx.c **** 		} else {
1608:../src/sam/components/display/ili93xx/ili93xx.c **** 			d += ((curX - curY) << 2) + 10;
1609:../src/sam/components/display/ili93xx/ili93xx.c **** 			curY--;
1610:../src/sam/components/display/ili93xx/ili93xx.c **** 		}
1611:../src/sam/components/display/ili93xx/ili93xx.c **** 
1612:../src/sam/components/display/ili93xx/ili93xx.c **** 		curX++;
1613:../src/sam/components/display/ili93xx/ili93xx.c **** 	}
1614:../src/sam/components/display/ili93xx/ili93xx.c **** 
1615:../src/sam/components/display/ili93xx/ili93xx.c **** 	return 0;
1616:../src/sam/components/display/ili93xx/ili93xx.c **** }
1617:../src/sam/components/display/ili93xx/ili93xx.c **** 
1618:../src/sam/components/display/ili93xx/ili93xx.c **** /**
1619:../src/sam/components/display/ili93xx/ili93xx.c ****  * \brief Draw a filled circle on LCD.
1620:../src/sam/components/display/ili93xx/ili93xx.c ****  *
1621:../src/sam/components/display/ili93xx/ili93xx.c ****  * \param ul_x X coordinate of circle center.
1622:../src/sam/components/display/ili93xx/ili93xx.c ****  * \param ul_y Y coordinate of circle center.
1623:../src/sam/components/display/ili93xx/ili93xx.c ****  * \param ul_r circle radius.
1624:../src/sam/components/display/ili93xx/ili93xx.c ****  *
1625:../src/sam/components/display/ili93xx/ili93xx.c ****  * \return 0 if succeeds, otherwise fails.
1626:../src/sam/components/display/ili93xx/ili93xx.c ****  */
1627:../src/sam/components/display/ili93xx/ili93xx.c **** uint32_t ili93xx_draw_filled_circle(uint32_t ul_x, uint32_t ul_y, uint32_t ul_r)
1628:../src/sam/components/display/ili93xx/ili93xx.c **** {
1629:../src/sam/components/display/ili93xx/ili93xx.c **** 	signed int d;       /* Decision Variable */
1630:../src/sam/components/display/ili93xx/ili93xx.c **** 	uint32_t dwCurX;    /* Current X Value */
1631:../src/sam/components/display/ili93xx/ili93xx.c **** 	uint32_t dwCurY;    /* Current Y Value */
1632:../src/sam/components/display/ili93xx/ili93xx.c **** 	uint32_t dwXmin, dwYmin;
1633:../src/sam/components/display/ili93xx/ili93xx.c **** 
1634:../src/sam/components/display/ili93xx/ili93xx.c **** 	if (ul_r == 0) {
1635:../src/sam/components/display/ili93xx/ili93xx.c **** 		return 1;
1636:../src/sam/components/display/ili93xx/ili93xx.c **** 	}
1637:../src/sam/components/display/ili93xx/ili93xx.c **** 
1638:../src/sam/components/display/ili93xx/ili93xx.c **** 	d = 3 - (ul_r << 1);
1639:../src/sam/components/display/ili93xx/ili93xx.c **** 	dwCurX = 0;
1640:../src/sam/components/display/ili93xx/ili93xx.c **** 	dwCurY = ul_r;
1641:../src/sam/components/display/ili93xx/ili93xx.c **** 
1642:../src/sam/components/display/ili93xx/ili93xx.c **** 	while (dwCurX <= dwCurY) {
1643:../src/sam/components/display/ili93xx/ili93xx.c **** 		dwXmin = (dwCurX > ul_x) ? 0 : ul_x - dwCurX;
1644:../src/sam/components/display/ili93xx/ili93xx.c **** 		dwYmin = (dwCurY > ul_y) ? 0 : ul_y - dwCurY;
1645:../src/sam/components/display/ili93xx/ili93xx.c **** 		ili93xx_draw_filled_rectangle(dwXmin, dwYmin, ul_x + dwCurX,
1646:../src/sam/components/display/ili93xx/ili93xx.c **** 				dwYmin);
1647:../src/sam/components/display/ili93xx/ili93xx.c **** 		ili93xx_draw_filled_rectangle(dwXmin, ul_y + dwCurY,
1648:../src/sam/components/display/ili93xx/ili93xx.c **** 				ul_x + dwCurX, ul_y + dwCurY);
1649:../src/sam/components/display/ili93xx/ili93xx.c **** 		dwXmin = (dwCurY > ul_x) ? 0 : ul_x - dwCurY;
1650:../src/sam/components/display/ili93xx/ili93xx.c **** 		dwYmin = (dwCurX > ul_y) ? 0 : ul_y - dwCurX;
1651:../src/sam/components/display/ili93xx/ili93xx.c **** 		ili93xx_draw_filled_rectangle(dwXmin, dwYmin, ul_x + dwCurY,
1652:../src/sam/components/display/ili93xx/ili93xx.c **** 				dwYmin);
1653:../src/sam/components/display/ili93xx/ili93xx.c **** 		ili93xx_draw_filled_rectangle(dwXmin, ul_y + dwCurX,
1654:../src/sam/components/display/ili93xx/ili93xx.c **** 				ul_x + dwCurY, ul_y + dwCurX);
1655:../src/sam/components/display/ili93xx/ili93xx.c **** 
1656:../src/sam/components/display/ili93xx/ili93xx.c **** 		if (d < 0) {
1657:../src/sam/components/display/ili93xx/ili93xx.c **** 			d += (dwCurX << 2) + 6;
1658:../src/sam/components/display/ili93xx/ili93xx.c **** 		} else {
1659:../src/sam/components/display/ili93xx/ili93xx.c **** 			d += ((dwCurX - dwCurY) << 2) + 10;
1660:../src/sam/components/display/ili93xx/ili93xx.c **** 			dwCurY--;
1661:../src/sam/components/display/ili93xx/ili93xx.c **** 		}
1662:../src/sam/components/display/ili93xx/ili93xx.c **** 
1663:../src/sam/components/display/ili93xx/ili93xx.c **** 		dwCurX++;
1664:../src/sam/components/display/ili93xx/ili93xx.c **** 	}
1665:../src/sam/components/display/ili93xx/ili93xx.c **** 
1666:../src/sam/components/display/ili93xx/ili93xx.c **** 	return 0;
1667:../src/sam/components/display/ili93xx/ili93xx.c **** }
1668:../src/sam/components/display/ili93xx/ili93xx.c **** 
1669:../src/sam/components/display/ili93xx/ili93xx.c **** /**
1670:../src/sam/components/display/ili93xx/ili93xx.c ****  * \brief Draw an ASCII character on LCD.
1671:../src/sam/components/display/ili93xx/ili93xx.c ****  *
1672:../src/sam/components/display/ili93xx/ili93xx.c ****  * \param ul_x X coordinate of character upper-left corner.
1673:../src/sam/components/display/ili93xx/ili93xx.c ****  * \param ul_y Y coordinate of character upper-left corner.
1674:../src/sam/components/display/ili93xx/ili93xx.c ****  * \param uc_c character to print.
1675:../src/sam/components/display/ili93xx/ili93xx.c ****  */
1676:../src/sam/components/display/ili93xx/ili93xx.c **** static void ili93xx_draw_char(uint32_t ul_x, uint32_t ul_y, uint8_t uc_c)
1677:../src/sam/components/display/ili93xx/ili93xx.c **** {
 2783              		.loc 1 1677 0 is_stmt 1
 2784              		.cfi_startproc
 2785              		@ args = 0, pretend = 0, frame = 0
 2786              		@ frame_needed = 0, uses_anonymous_args = 0
 2787              	.LVL330:
 2788 0000 2DE9F047 		push	{r4, r5, r6, r7, r8, r9, r10, lr}
 2789              		.cfi_def_cfa_offset 32
 2790              		.cfi_offset 4, -32
 2791              		.cfi_offset 5, -28
 2792              		.cfi_offset 6, -24
 2793              		.cfi_offset 7, -20
 2794              		.cfi_offset 8, -16
 2795              		.cfi_offset 9, -12
 2796              		.cfi_offset 10, -8
 2797              		.cfi_offset 14, -4
 2798 0004 8146     		mov	r9, r0
 2799 0006 8846     		mov	r8, r1
1678:../src/sam/components/display/ili93xx/ili93xx.c **** 	uint32_t row, col;
1679:../src/sam/components/display/ili93xx/ili93xx.c **** 	uint32_t offset, offset0, offset1;
1680:../src/sam/components/display/ili93xx/ili93xx.c **** 
1681:../src/sam/components/display/ili93xx/ili93xx.c **** 	/**
1682:../src/sam/components/display/ili93xx/ili93xx.c **** 	 * Compute offset according of the specified ASCII character
1683:../src/sam/components/display/ili93xx/ili93xx.c **** 	 *  Note: the first 32 characters of the ASCII table are not handled
1684:../src/sam/components/display/ili93xx/ili93xx.c **** 	 */
1685:../src/sam/components/display/ili93xx/ili93xx.c **** 	offset = ((uint32_t)uc_c - 0x20) * 20;
 2800              		.loc 1 1685 0
 2801 0008 02EB8202 		add	r2, r2, r2, lsl #2
 2802              	.LVL331:
 2803 000c 4FEA820A 		lsl	r10, r2, #2
 2804 0010 AAF5207A 		sub	r10, r10, #640
 2805              	.LVL332:
1686:../src/sam/components/display/ili93xx/ili93xx.c **** 
1687:../src/sam/components/display/ili93xx/ili93xx.c **** 	for (col = 0; col < 10; col++) {
 2806              		.loc 1 1687 0
 2807 0014 0026     		movs	r6, #0
 2808 0016 2AE0     		b	.L184
 2809              	.LVL333:
 2810              	.L191:
1688:../src/sam/components/display/ili93xx/ili93xx.c **** 		/** Compute the first and second byte offset of a column */
1689:../src/sam/components/display/ili93xx/ili93xx.c **** 		offset0 = offset + col * 2;
 2811              		.loc 1 1689 0
 2812 0018 0AEB4605 		add	r5, r10, r6, lsl #1
 2813              	.LVL334:
1690:../src/sam/components/display/ili93xx/ili93xx.c **** 		offset1 = offset0 + 1;
 2814              		.loc 1 1690 0
 2815 001c 6F1C     		adds	r7, r5, #1
 2816              	.LVL335:
1691:../src/sam/components/display/ili93xx/ili93xx.c **** 
1692:../src/sam/components/display/ili93xx/ili93xx.c **** 		/**
1693:../src/sam/components/display/ili93xx/ili93xx.c **** 		 * Draw pixel on screen depending on the corresponding bit value
1694:../src/sam/components/display/ili93xx/ili93xx.c **** 		 * from the charset
1695:../src/sam/components/display/ili93xx/ili93xx.c **** 		 */
1696:../src/sam/components/display/ili93xx/ili93xx.c **** 		for (row = 0; row < 8; row++) {
 2817              		.loc 1 1696 0
 2818 001e 0024     		movs	r4, #0
 2819 0020 0EE0     		b	.L185
 2820              	.LVL336:
 2821              	.L187:
1697:../src/sam/components/display/ili93xx/ili93xx.c **** 			if ((p_uc_charset10x14[offset0] >> (7 - row)) & 0x1) {
 2822              		.loc 1 1697 0
 2823 0022 154B     		ldr	r3, .L193
 2824 0024 5B5D     		ldrb	r3, [r3, r5]	@ zero_extendqisi2
 2825 0026 C4F10702 		rsb	r2, r4, #7
 2826 002a 1341     		asrs	r3, r3, r2
 2827 002c 13F0010F 		tst	r3, #1
 2828 0030 05D0     		beq	.L186
1698:../src/sam/components/display/ili93xx/ili93xx.c **** 				ili93xx_draw_pixel(ul_x + col, ul_y + row);
 2829              		.loc 1 1698 0
 2830 0032 04EB0801 		add	r1, r4, r8
 2831 0036 06EB0900 		add	r0, r6, r9
 2832 003a FFF7FEFF 		bl	ili93xx_draw_pixel
 2833              	.LVL337:
 2834              	.L186:
1696:../src/sam/components/display/ili93xx/ili93xx.c **** 			if ((p_uc_charset10x14[offset0] >> (7 - row)) & 0x1) {
 2835              		.loc 1 1696 0 discriminator 2
 2836 003e 0134     		adds	r4, r4, #1
 2837              	.LVL338:
 2838              	.L185:
1696:../src/sam/components/display/ili93xx/ili93xx.c **** 			if ((p_uc_charset10x14[offset0] >> (7 - row)) & 0x1) {
 2839              		.loc 1 1696 0 is_stmt 0 discriminator 1
 2840 0040 072C     		cmp	r4, #7
 2841 0042 EED9     		bls	.L187
 2842 0044 0024     		movs	r4, #0
 2843              	.LVL339:
 2844 0046 0FE0     		b	.L188
 2845              	.LVL340:
 2846              	.L190:
1699:../src/sam/components/display/ili93xx/ili93xx.c **** 			}
1700:../src/sam/components/display/ili93xx/ili93xx.c **** 		}
1701:../src/sam/components/display/ili93xx/ili93xx.c **** 
1702:../src/sam/components/display/ili93xx/ili93xx.c **** 		for (row = 0; row < 6; row++) {
1703:../src/sam/components/display/ili93xx/ili93xx.c **** 			if ((p_uc_charset10x14[offset1] >> (7 - row)) & 0x1) {
 2847              		.loc 1 1703 0 is_stmt 1
 2848 0048 0B4B     		ldr	r3, .L193
 2849 004a DB5D     		ldrb	r3, [r3, r7]	@ zero_extendqisi2
 2850 004c C4F10702 		rsb	r2, r4, #7
 2851 0050 1341     		asrs	r3, r3, r2
 2852 0052 13F0010F 		tst	r3, #1
 2853 0056 06D0     		beq	.L189
1704:../src/sam/components/display/ili93xx/ili93xx.c **** 				ili93xx_draw_pixel(ul_x + col, ul_y + row + 8);
 2854              		.loc 1 1704 0
 2855 0058 04EB0801 		add	r1, r4, r8
 2856 005c 0831     		adds	r1, r1, #8
 2857 005e 06EB0900 		add	r0, r6, r9
 2858 0062 FFF7FEFF 		bl	ili93xx_draw_pixel
 2859              	.LVL341:
 2860              	.L189:
1702:../src/sam/components/display/ili93xx/ili93xx.c **** 			if ((p_uc_charset10x14[offset1] >> (7 - row)) & 0x1) {
 2861              		.loc 1 1702 0 discriminator 2
 2862 0066 0134     		adds	r4, r4, #1
 2863              	.LVL342:
 2864              	.L188:
1702:../src/sam/components/display/ili93xx/ili93xx.c **** 			if ((p_uc_charset10x14[offset1] >> (7 - row)) & 0x1) {
 2865              		.loc 1 1702 0 is_stmt 0 discriminator 1
 2866 0068 052C     		cmp	r4, #5
 2867 006a EDD9     		bls	.L190
1687:../src/sam/components/display/ili93xx/ili93xx.c **** 		/** Compute the first and second byte offset of a column */
 2868              		.loc 1 1687 0 is_stmt 1 discriminator 2
 2869 006c 0136     		adds	r6, r6, #1
 2870              	.LVL343:
 2871              	.L184:
1687:../src/sam/components/display/ili93xx/ili93xx.c **** 		/** Compute the first and second byte offset of a column */
 2872              		.loc 1 1687 0 is_stmt 0 discriminator 1
 2873 006e 092E     		cmp	r6, #9
 2874 0070 D2D9     		bls	.L191
1705:../src/sam/components/display/ili93xx/ili93xx.c **** 			}
1706:../src/sam/components/display/ili93xx/ili93xx.c **** 		}
1707:../src/sam/components/display/ili93xx/ili93xx.c **** 	}
1708:../src/sam/components/display/ili93xx/ili93xx.c **** }
 2875              		.loc 1 1708 0 is_stmt 1
 2876 0072 BDE8F087 		pop	{r4, r5, r6, r7, r8, r9, r10, pc}
 2877              	.LVL344:
 2878              	.L194:
 2879 0076 00BF     		.align	2
 2880              	.L193:
 2881 0078 00000000 		.word	.LANCHOR4
 2882              		.cfi_endproc
 2883              	.LFE212:
 2885              		.section	.text.ili93xx_get_pixel,"ax",%progbits
 2886              		.align	2
 2887              		.global	ili93xx_get_pixel
 2888              		.thumb
 2889              		.thumb_func
 2891              	ili93xx_get_pixel:
 2892              	.LFB205:
1414:../src/sam/components/display/ili93xx/ili93xx.c **** 	Assert(ul_x <= g_ul_lcd_x_length);
 2893              		.loc 1 1414 0
 2894              		.cfi_startproc
 2895              		@ args = 0, pretend = 0, frame = 0
 2896              		@ frame_needed = 0, uses_anonymous_args = 0
 2897              	.LVL345:
 2898 0000 08B5     		push	{r3, lr}
 2899              		.cfi_def_cfa_offset 8
 2900              		.cfi_offset 3, -8
 2901              		.cfi_offset 14, -4
1418:../src/sam/components/display/ili93xx/ili93xx.c **** 		/** Set cursor */
 2902              		.loc 1 1418 0
 2903 0002 0E4B     		ldr	r3, .L200
 2904 0004 1B78     		ldrb	r3, [r3]	@ zero_extendqisi2
 2905 0006 012B     		cmp	r3, #1
 2906 0008 09D1     		bne	.L196
1420:../src/sam/components/display/ili93xx/ili93xx.c **** 		/** Prepare to write in GRAM */
 2907              		.loc 1 1420 0
 2908 000a 89B2     		uxth	r1, r1
 2909              	.LVL346:
 2910 000c 80B2     		uxth	r0, r0
 2911              	.LVL347:
 2912 000e FFF7FEFF 		bl	ili93xx_set_cursor_position
 2913              	.LVL348:
1422:../src/sam/components/display/ili93xx/ili93xx.c **** 		return ili93xx_read_ram();
 2914              		.loc 1 1422 0
 2915 0012 FFF7FEFF 		bl	ili93xx_read_ram_prepare
 2916              	.LVL349:
1423:../src/sam/components/display/ili93xx/ili93xx.c **** 	} else if (g_uc_device_type == DEVICE_TYPE_ILI9341) {
 2917              		.loc 1 1423 0
 2918 0016 FFF7FEFF 		bl	ili93xx_read_ram
 2919              	.LVL350:
 2920 001a 80B2     		uxth	r0, r0
 2921 001c 08BD     		pop	{r3, pc}
 2922              	.LVL351:
 2923              	.L196:
1424:../src/sam/components/display/ili93xx/ili93xx.c **** 		ili93xx_set_window(ul_x, ul_y, 0, 0);
 2924              		.loc 1 1424 0
 2925 001e 022B     		cmp	r3, #2
 2926 0020 09D1     		bne	.L198
1425:../src/sam/components/display/ili93xx/ili93xx.c **** 		/** Prepare to write in GRAM */
 2927              		.loc 1 1425 0
 2928 0022 0023     		movs	r3, #0
 2929 0024 1A46     		mov	r2, r3
 2930 0026 FFF7FEFF 		bl	ili93xx_set_window
 2931              	.LVL352:
1427:../src/sam/components/display/ili93xx/ili93xx.c **** 		return ili93xx_read_ram();
 2932              		.loc 1 1427 0
 2933 002a FFF7FEFF 		bl	ili93xx_read_ram_prepare
 2934              	.LVL353:
1428:../src/sam/components/display/ili93xx/ili93xx.c **** 	}
 2935              		.loc 1 1428 0
 2936 002e FFF7FEFF 		bl	ili93xx_read_ram
 2937              	.LVL354:
 2938 0032 80B2     		uxth	r0, r0
 2939 0034 08BD     		pop	{r3, pc}
 2940              	.LVL355:
 2941              	.L198:
1431:../src/sam/components/display/ili93xx/ili93xx.c **** }
 2942              		.loc 1 1431 0
 2943 0036 0020     		movs	r0, #0
 2944              	.LVL356:
1432:../src/sam/components/display/ili93xx/ili93xx.c **** 
 2945              		.loc 1 1432 0
 2946 0038 08BD     		pop	{r3, pc}
 2947              	.L201:
 2948 003a 00BF     		.align	2
 2949              	.L200:
 2950 003c 00000000 		.word	.LANCHOR2
 2951              		.cfi_endproc
 2952              	.LFE205:
 2954              		.section	.text.ili93xx_draw_filled_rectangle,"ax",%progbits
 2955              		.align	2
 2956              		.global	ili93xx_draw_filled_rectangle
 2957              		.thumb
 2958              		.thumb_func
 2960              	ili93xx_draw_filled_rectangle:
 2961              	.LFB209:
1539:../src/sam/components/display/ili93xx/ili93xx.c **** 	uint32_t size, blocks;
 2962              		.loc 1 1539 0
 2963              		.cfi_startproc
 2964              		@ args = 0, pretend = 0, frame = 16
 2965              		@ frame_needed = 0, uses_anonymous_args = 0
 2966              	.LVL357:
 2967 0000 30B5     		push	{r4, r5, lr}
 2968              		.cfi_def_cfa_offset 12
 2969              		.cfi_offset 4, -12
 2970              		.cfi_offset 5, -8
 2971              		.cfi_offset 14, -4
 2972 0002 85B0     		sub	sp, sp, #20
 2973              		.cfi_def_cfa_offset 32
 2974 0004 0390     		str	r0, [sp, #12]
 2975 0006 0291     		str	r1, [sp, #8]
 2976 0008 0192     		str	r2, [sp, #4]
 2977 000a 04AA     		add	r2, sp, #16
 2978              	.LVL358:
 2979 000c 42F8103D 		str	r3, [r2, #-16]!
1543:../src/sam/components/display/ili93xx/ili93xx.c **** 
 2980              		.loc 1 1543 0
 2981 0010 1346     		mov	r3, r2
 2982              	.LVL359:
 2983 0012 01AA     		add	r2, sp, #4
 2984              	.LVL360:
 2985 0014 02A9     		add	r1, sp, #8
 2986              	.LVL361:
 2987 0016 03A8     		add	r0, sp, #12
 2988              	.LVL362:
 2989 0018 FFF7FEFF 		bl	ili93xx_check_box_coordinates
 2990              	.LVL363:
1546:../src/sam/components/display/ili93xx/ili93xx.c **** 			(ul_y2 - ul_y1) + 1);
 2991              		.loc 1 1546 0
 2992 001c 0398     		ldr	r0, [sp, #12]
 2993 001e 019A     		ldr	r2, [sp, #4]
 2994 0020 121A     		subs	r2, r2, r0
1547:../src/sam/components/display/ili93xx/ili93xx.c **** 
 2995              		.loc 1 1547 0
 2996 0022 0299     		ldr	r1, [sp, #8]
 2997 0024 009B     		ldr	r3, [sp]
 2998 0026 5B1A     		subs	r3, r3, r1
1546:../src/sam/components/display/ili93xx/ili93xx.c **** 			(ul_y2 - ul_y1) + 1);
 2999              		.loc 1 1546 0
 3000 0028 0133     		adds	r3, r3, #1
 3001 002a 0132     		adds	r2, r2, #1
 3002 002c FFF7FEFF 		bl	ili93xx_set_window
 3003              	.LVL364:
1550:../src/sam/components/display/ili93xx/ili93xx.c **** 
 3004              		.loc 1 1550 0
 3005 0030 BDF80810 		ldrh	r1, [sp, #8]
 3006 0034 BDF80C00 		ldrh	r0, [sp, #12]
 3007 0038 FFF7FEFF 		bl	ili93xx_set_cursor_position
 3008              	.LVL365:
1553:../src/sam/components/display/ili93xx/ili93xx.c **** 
 3009              		.loc 1 1553 0
 3010 003c FFF7FEFF 		bl	ili93xx_write_ram_prepare
 3011              	.LVL366:
1555:../src/sam/components/display/ili93xx/ili93xx.c **** 
 3012              		.loc 1 1555 0
 3013 0040 039D     		ldr	r5, [sp, #12]
 3014 0042 019B     		ldr	r3, [sp, #4]
 3015 0044 5A1B     		subs	r2, r3, r5
 3016 0046 029D     		ldr	r5, [sp, #8]
 3017 0048 009B     		ldr	r3, [sp]
 3018 004a 5D1B     		subs	r5, r3, r5
 3019 004c 0135     		adds	r5, r5, #1
 3020 004e 02FB0555 		mla	r5, r2, r5, r5
 3021              	.LVL367:
1558:../src/sam/components/display/ili93xx/ili93xx.c **** 	while (blocks--) {
 3022              		.loc 1 1558 0
 3023 0052 114B     		ldr	r3, .L206
 3024 0054 A3FB0523 		umull	r2, r3, r3, r5
 3025 0058 DB09     		lsrs	r3, r3, #7
 3026              	.LVL368:
1559:../src/sam/components/display/ili93xx/ili93xx.c **** 		ili93xx_write_ram_buffer(g_ul_pixel_cache,
 3027              		.loc 1 1559 0
 3028 005a 04E0     		b	.L203
 3029              	.LVL369:
 3030              	.L204:
1560:../src/sam/components/display/ili93xx/ili93xx.c **** 								LCD_DATA_CACHE_SIZE);
 3031              		.loc 1 1560 0
 3032 005c F021     		movs	r1, #240
 3033 005e 0F48     		ldr	r0, .L206+4
 3034 0060 FFF7FEFF 		bl	ili93xx_write_ram_buffer
 3035              	.LVL370:
1559:../src/sam/components/display/ili93xx/ili93xx.c **** 		ili93xx_write_ram_buffer(g_ul_pixel_cache,
 3036              		.loc 1 1559 0
 3037 0064 2346     		mov	r3, r4
 3038              	.LVL371:
 3039              	.L203:
 3040 0066 5C1E     		subs	r4, r3, #1
 3041              	.LVL372:
 3042 0068 002B     		cmp	r3, #0
 3043 006a F7D1     		bne	.L204
1565:../src/sam/components/display/ili93xx/ili93xx.c **** 					size % LCD_DATA_CACHE_SIZE);
 3044              		.loc 1 1565 0
 3045 006c A3F17733 		sub	r3, r3, #2004318071
 3046 0070 A3FB0523 		umull	r2, r3, r3, r5
 3047 0074 DB09     		lsrs	r3, r3, #7
 3048 0076 C3EB0313 		rsb	r3, r3, r3, lsl #4
 3049 007a 1901     		lsls	r1, r3, #4
 3050 007c 691A     		subs	r1, r5, r1
 3051 007e 0748     		ldr	r0, .L206+4
 3052 0080 FFF7FEFF 		bl	ili93xx_write_ram_buffer
 3053              	.LVL373:
1569:../src/sam/components/display/ili93xx/ili93xx.c **** }
 3054              		.loc 1 1569 0
 3055 0084 064B     		ldr	r3, .L206+8
 3056 0086 1B68     		ldr	r3, [r3]
 3057 0088 064A     		ldr	r2, .L206+12
 3058 008a 1268     		ldr	r2, [r2]
 3059 008c 0021     		movs	r1, #0
 3060 008e 0846     		mov	r0, r1
 3061 0090 FFF7FEFF 		bl	ili93xx_set_window
 3062              	.LVL374:
1570:../src/sam/components/display/ili93xx/ili93xx.c **** 
 3063              		.loc 1 1570 0
 3064 0094 05B0     		add	sp, sp, #20
 3065              		.cfi_def_cfa_offset 12
 3066              		@ sp needed
 3067 0096 30BD     		pop	{r4, r5, pc}
 3068              	.LVL375:
 3069              	.L207:
 3070              		.align	2
 3071              	.L206:
 3072 0098 89888888 		.word	-2004318071
 3073 009c 00000000 		.word	.LANCHOR3
 3074 00a0 00000000 		.word	.LANCHOR1
 3075 00a4 00000000 		.word	.LANCHOR0
 3076              		.cfi_endproc
 3077              	.LFE209:
 3079              		.section	.text.ili93xx_draw_line,"ax",%progbits
 3080              		.align	2
 3081              		.global	ili93xx_draw_line
 3082              		.thumb
 3083              		.thumb_func
 3085              	ili93xx_draw_line:
 3086              	.LFB207:
1502:../src/sam/components/display/ili93xx/ili93xx.c **** 	if ((ul_y1 == ul_y2) || (ul_x1 == ul_x2)) {
 3087              		.loc 1 1502 0
 3088              		.cfi_startproc
 3089              		@ args = 0, pretend = 0, frame = 0
 3090              		@ frame_needed = 0, uses_anonymous_args = 0
 3091              	.LVL376:
 3092 0000 08B5     		push	{r3, lr}
 3093              		.cfi_def_cfa_offset 8
 3094              		.cfi_offset 3, -8
 3095              		.cfi_offset 14, -4
1503:../src/sam/components/display/ili93xx/ili93xx.c **** 		ili93xx_draw_filled_rectangle(ul_x1, ul_y1, ul_x2, ul_y2);
 3096              		.loc 1 1503 0
 3097 0002 9942     		cmp	r1, r3
 3098 0004 01D0     		beq	.L209
1503:../src/sam/components/display/ili93xx/ili93xx.c **** 		ili93xx_draw_filled_rectangle(ul_x1, ul_y1, ul_x2, ul_y2);
 3099              		.loc 1 1503 0 is_stmt 0 discriminator 1
 3100 0006 9042     		cmp	r0, r2
 3101 0008 02D1     		bne	.L210
 3102              	.L209:
1504:../src/sam/components/display/ili93xx/ili93xx.c **** 	} else {
 3103              		.loc 1 1504 0 is_stmt 1
 3104 000a FFF7FEFF 		bl	ili93xx_draw_filled_rectangle
 3105              	.LVL377:
 3106 000e 08BD     		pop	{r3, pc}
 3107              	.LVL378:
 3108              	.L210:
1506:../src/sam/components/display/ili93xx/ili93xx.c **** 	}
 3109              		.loc 1 1506 0
 3110 0010 FFF7FEFF 		bl	ili93xx_draw_line_bresenham
 3111              	.LVL379:
 3112 0014 08BD     		pop	{r3, pc}
 3113              		.cfi_endproc
 3114              	.LFE207:
 3116 0016 00BF     		.section	.text.ili93xx_draw_rectangle,"ax",%progbits
 3117              		.align	2
 3118              		.global	ili93xx_draw_rectangle
 3119              		.thumb
 3120              		.thumb_func
 3122              	ili93xx_draw_rectangle:
 3123              	.LFB208:
1520:../src/sam/components/display/ili93xx/ili93xx.c **** 	ili93xx_check_box_coordinates(&ul_x1, &ul_y1, &ul_x2, &ul_y2);
 3124              		.loc 1 1520 0
 3125              		.cfi_startproc
 3126              		@ args = 0, pretend = 0, frame = 16
 3127              		@ frame_needed = 0, uses_anonymous_args = 0
 3128              	.LVL380:
 3129 0000 00B5     		push	{lr}
 3130              		.cfi_def_cfa_offset 4
 3131              		.cfi_offset 14, -4
 3132 0002 85B0     		sub	sp, sp, #20
 3133              		.cfi_def_cfa_offset 24
 3134 0004 0390     		str	r0, [sp, #12]
 3135 0006 0291     		str	r1, [sp, #8]
 3136 0008 0192     		str	r2, [sp, #4]
 3137 000a 04AA     		add	r2, sp, #16
 3138              	.LVL381:
 3139 000c 42F8103D 		str	r3, [r2, #-16]!
1521:../src/sam/components/display/ili93xx/ili93xx.c **** 
 3140              		.loc 1 1521 0
 3141 0010 1346     		mov	r3, r2
 3142              	.LVL382:
 3143 0012 01AA     		add	r2, sp, #4
 3144              	.LVL383:
 3145 0014 02A9     		add	r1, sp, #8
 3146              	.LVL384:
 3147 0016 03A8     		add	r0, sp, #12
 3148              	.LVL385:
 3149 0018 FFF7FEFF 		bl	ili93xx_check_box_coordinates
 3150              	.LVL386:
1523:../src/sam/components/display/ili93xx/ili93xx.c **** 	ili93xx_draw_filled_rectangle(ul_x1, ul_y2, ul_x2, ul_y2);
 3151              		.loc 1 1523 0
 3152 001c 029B     		ldr	r3, [sp, #8]
 3153 001e 019A     		ldr	r2, [sp, #4]
 3154 0020 1946     		mov	r1, r3
 3155 0022 0398     		ldr	r0, [sp, #12]
 3156 0024 FFF7FEFF 		bl	ili93xx_draw_filled_rectangle
 3157              	.LVL387:
1524:../src/sam/components/display/ili93xx/ili93xx.c **** 
 3158              		.loc 1 1524 0
 3159 0028 009B     		ldr	r3, [sp]
 3160 002a 019A     		ldr	r2, [sp, #4]
 3161 002c 1946     		mov	r1, r3
 3162 002e 0398     		ldr	r0, [sp, #12]
 3163 0030 FFF7FEFF 		bl	ili93xx_draw_filled_rectangle
 3164              	.LVL388:
1526:../src/sam/components/display/ili93xx/ili93xx.c **** 	ili93xx_draw_filled_rectangle(ul_x2, ul_y1, ul_x2, ul_y2);
 3165              		.loc 1 1526 0
 3166 0034 009B     		ldr	r3, [sp]
 3167 0036 039A     		ldr	r2, [sp, #12]
 3168 0038 0299     		ldr	r1, [sp, #8]
 3169 003a 1046     		mov	r0, r2
 3170 003c FFF7FEFF 		bl	ili93xx_draw_filled_rectangle
 3171              	.LVL389:
1527:../src/sam/components/display/ili93xx/ili93xx.c **** }
 3172              		.loc 1 1527 0
 3173 0040 009B     		ldr	r3, [sp]
 3174 0042 019A     		ldr	r2, [sp, #4]
 3175 0044 0299     		ldr	r1, [sp, #8]
 3176 0046 1046     		mov	r0, r2
 3177 0048 FFF7FEFF 		bl	ili93xx_draw_filled_rectangle
 3178              	.LVL390:
1528:../src/sam/components/display/ili93xx/ili93xx.c **** 
 3179              		.loc 1 1528 0
 3180 004c 05B0     		add	sp, sp, #20
 3181              		.cfi_def_cfa_offset 4
 3182              		@ sp needed
 3183 004e 5DF804FB 		ldr	pc, [sp], #4
 3184              		.cfi_endproc
 3185              	.LFE208:
 3187 0052 00BF     		.section	.text.ili93xx_draw_circle,"ax",%progbits
 3188              		.align	2
 3189              		.global	ili93xx_draw_circle
 3190              		.thumb
 3191              		.thumb_func
 3193              	ili93xx_draw_circle:
 3194              	.LFB210:
1582:../src/sam/components/display/ili93xx/ili93xx.c **** 	int32_t d;
 3195              		.loc 1 1582 0
 3196              		.cfi_startproc
 3197              		@ args = 0, pretend = 0, frame = 0
 3198              		@ frame_needed = 0, uses_anonymous_args = 0
 3199              	.LVL391:
1587:../src/sam/components/display/ili93xx/ili93xx.c **** 		return 1;
 3200              		.loc 1 1587 0
 3201 0000 002A     		cmp	r2, #0
 3202 0002 4AD0     		beq	.L221
1582:../src/sam/components/display/ili93xx/ili93xx.c **** 	int32_t d;
 3203              		.loc 1 1582 0
 3204 0004 2DE9F84F 		push	{r3, r4, r5, r6, r7, r8, r9, r10, fp, lr}
 3205              		.cfi_def_cfa_offset 40
 3206              		.cfi_offset 3, -40
 3207              		.cfi_offset 4, -36
 3208              		.cfi_offset 5, -32
 3209              		.cfi_offset 6, -28
 3210              		.cfi_offset 7, -24
 3211              		.cfi_offset 8, -20
 3212              		.cfi_offset 9, -16
 3213              		.cfi_offset 10, -12
 3214              		.cfi_offset 11, -8
 3215              		.cfi_offset 14, -4
 3216 0008 0746     		mov	r7, r0
 3217 000a 8846     		mov	r8, r1
 3218 000c 1546     		mov	r5, r2
1591:../src/sam/components/display/ili93xx/ili93xx.c **** 	curX = 0;
 3219              		.loc 1 1591 0
 3220 000e 4FEA4209 		lsl	r9, r2, #1
 3221 0012 C9F10309 		rsb	r9, r9, #3
 3222              	.LVL392:
1592:../src/sam/components/display/ili93xx/ili93xx.c **** 	curY = ul_r;
 3223              		.loc 1 1592 0
 3224 0016 0024     		movs	r4, #0
1595:../src/sam/components/display/ili93xx/ili93xx.c **** 		ili93xx_draw_pixel(ul_x + curX, ul_y + curY);
 3225              		.loc 1 1595 0
 3226 0018 3AE0     		b	.L217
 3227              	.LVL393:
 3228              	.L220:
1596:../src/sam/components/display/ili93xx/ili93xx.c **** 		ili93xx_draw_pixel(ul_x + curX, ul_y - curY);
 3229              		.loc 1 1596 0
 3230 001a E619     		adds	r6, r4, r7
 3231 001c 05EB080B 		add	fp, r5, r8
 3232 0020 5946     		mov	r1, fp
 3233 0022 3046     		mov	r0, r6
 3234 0024 FFF7FEFF 		bl	ili93xx_draw_pixel
 3235              	.LVL394:
1597:../src/sam/components/display/ili93xx/ili93xx.c **** 		ili93xx_draw_pixel(ul_x - curX, ul_y + curY);
 3236              		.loc 1 1597 0
 3237 0028 C5EB080A 		rsb	r10, r5, r8
 3238 002c 5146     		mov	r1, r10
 3239 002e 3046     		mov	r0, r6
 3240 0030 FFF7FEFF 		bl	ili93xx_draw_pixel
 3241              	.LVL395:
1598:../src/sam/components/display/ili93xx/ili93xx.c **** 		ili93xx_draw_pixel(ul_x - curX, ul_y - curY);
 3242              		.loc 1 1598 0
 3243 0034 3E1B     		subs	r6, r7, r4
 3244 0036 5946     		mov	r1, fp
 3245 0038 3046     		mov	r0, r6
 3246 003a FFF7FEFF 		bl	ili93xx_draw_pixel
 3247              	.LVL396:
1599:../src/sam/components/display/ili93xx/ili93xx.c **** 		ili93xx_draw_pixel(ul_x + curY, ul_y + curX);
 3248              		.loc 1 1599 0
 3249 003e 5146     		mov	r1, r10
 3250 0040 3046     		mov	r0, r6
 3251 0042 FFF7FEFF 		bl	ili93xx_draw_pixel
 3252              	.LVL397:
1600:../src/sam/components/display/ili93xx/ili93xx.c **** 		ili93xx_draw_pixel(ul_x + curY, ul_y - curX);
 3253              		.loc 1 1600 0
 3254 0046 EE19     		adds	r6, r5, r7
 3255 0048 04EB080B 		add	fp, r4, r8
 3256 004c 5946     		mov	r1, fp
 3257 004e 3046     		mov	r0, r6
 3258 0050 FFF7FEFF 		bl	ili93xx_draw_pixel
 3259              	.LVL398:
1601:../src/sam/components/display/ili93xx/ili93xx.c **** 		ili93xx_draw_pixel(ul_x - curY, ul_y + curX);
 3260              		.loc 1 1601 0
 3261 0054 C4EB080A 		rsb	r10, r4, r8
 3262 0058 5146     		mov	r1, r10
 3263 005a 3046     		mov	r0, r6
 3264 005c FFF7FEFF 		bl	ili93xx_draw_pixel
 3265              	.LVL399:
1602:../src/sam/components/display/ili93xx/ili93xx.c **** 		ili93xx_draw_pixel(ul_x - curY, ul_y - curX);
 3266              		.loc 1 1602 0
 3267 0060 7E1B     		subs	r6, r7, r5
 3268 0062 5946     		mov	r1, fp
 3269 0064 3046     		mov	r0, r6
 3270 0066 FFF7FEFF 		bl	ili93xx_draw_pixel
 3271              	.LVL400:
1603:../src/sam/components/display/ili93xx/ili93xx.c **** 
 3272              		.loc 1 1603 0
 3273 006a 5146     		mov	r1, r10
 3274 006c 3046     		mov	r0, r6
 3275 006e FFF7FEFF 		bl	ili93xx_draw_pixel
 3276              	.LVL401:
1605:../src/sam/components/display/ili93xx/ili93xx.c **** 			d += (curX << 2) + 6;
 3277              		.loc 1 1605 0
 3278 0072 B9F1000F 		cmp	r9, #0
 3279 0076 04DA     		bge	.L218
1606:../src/sam/components/display/ili93xx/ili93xx.c **** 		} else {
 3280              		.loc 1 1606 0
 3281 0078 09EB8409 		add	r9, r9, r4, lsl #2
 3282              	.LVL402:
 3283 007c 09F10609 		add	r9, r9, #6
 3284              	.LVL403:
 3285 0080 05E0     		b	.L219
 3286              	.L218:
1608:../src/sam/components/display/ili93xx/ili93xx.c **** 			curY--;
 3287              		.loc 1 1608 0
 3288 0082 631B     		subs	r3, r4, r5
 3289 0084 09EB8309 		add	r9, r9, r3, lsl #2
 3290              	.LVL404:
 3291 0088 09F10A09 		add	r9, r9, #10
 3292              	.LVL405:
1609:../src/sam/components/display/ili93xx/ili93xx.c **** 		}
 3293              		.loc 1 1609 0
 3294 008c 013D     		subs	r5, r5, #1
 3295              	.LVL406:
 3296              	.L219:
1612:../src/sam/components/display/ili93xx/ili93xx.c **** 	}
 3297              		.loc 1 1612 0
 3298 008e 0134     		adds	r4, r4, #1
 3299              	.LVL407:
 3300              	.L217:
1595:../src/sam/components/display/ili93xx/ili93xx.c **** 		ili93xx_draw_pixel(ul_x + curX, ul_y + curY);
 3301              		.loc 1 1595 0
 3302 0090 AC42     		cmp	r4, r5
 3303 0092 C2D9     		bls	.L220
1615:../src/sam/components/display/ili93xx/ili93xx.c **** }
 3304              		.loc 1 1615 0
 3305 0094 0020     		movs	r0, #0
 3306 0096 BDE8F88F 		pop	{r3, r4, r5, r6, r7, r8, r9, r10, fp, pc}
 3307              	.LVL408:
 3308              	.L221:
 3309              		.cfi_def_cfa_offset 0
 3310              		.cfi_restore 3
 3311              		.cfi_restore 4
 3312              		.cfi_restore 5
 3313              		.cfi_restore 6
 3314              		.cfi_restore 7
 3315              		.cfi_restore 8
 3316              		.cfi_restore 9
 3317              		.cfi_restore 10
 3318              		.cfi_restore 11
 3319              		.cfi_restore 14
1588:../src/sam/components/display/ili93xx/ili93xx.c **** 	}
 3320              		.loc 1 1588 0
 3321 009a 0120     		movs	r0, #1
 3322              	.LVL409:
 3323 009c 7047     		bx	lr
 3324              		.cfi_endproc
 3325              	.LFE210:
 3327 009e 00BF     		.section	.text.ili93xx_draw_filled_circle,"ax",%progbits
 3328              		.align	2
 3329              		.global	ili93xx_draw_filled_circle
 3330              		.thumb
 3331              		.thumb_func
 3333              	ili93xx_draw_filled_circle:
 3334              	.LFB211:
1628:../src/sam/components/display/ili93xx/ili93xx.c **** 	signed int d;       /* Decision Variable */
 3335              		.loc 1 1628 0
 3336              		.cfi_startproc
 3337              		@ args = 0, pretend = 0, frame = 0
 3338              		@ frame_needed = 0, uses_anonymous_args = 0
 3339              	.LVL410:
1634:../src/sam/components/display/ili93xx/ili93xx.c **** 		return 1;
 3340              		.loc 1 1634 0
 3341 0000 002A     		cmp	r2, #0
 3342 0002 50D0     		beq	.L234
1628:../src/sam/components/display/ili93xx/ili93xx.c **** 	signed int d;       /* Decision Variable */
 3343              		.loc 1 1628 0
 3344 0004 2DE9F047 		push	{r4, r5, r6, r7, r8, r9, r10, lr}
 3345              		.cfi_def_cfa_offset 32
 3346              		.cfi_offset 4, -32
 3347              		.cfi_offset 5, -28
 3348              		.cfi_offset 6, -24
 3349              		.cfi_offset 7, -20
 3350              		.cfi_offset 8, -16
 3351              		.cfi_offset 9, -12
 3352              		.cfi_offset 10, -8
 3353              		.cfi_offset 14, -4
 3354 0008 0646     		mov	r6, r0
 3355 000a 0F46     		mov	r7, r1
 3356 000c 1546     		mov	r5, r2
1638:../src/sam/components/display/ili93xx/ili93xx.c **** 	dwCurX = 0;
 3357              		.loc 1 1638 0
 3358 000e 4FEA4209 		lsl	r9, r2, #1
 3359 0012 C9F10309 		rsb	r9, r9, #3
 3360              	.LVL411:
1639:../src/sam/components/display/ili93xx/ili93xx.c **** 	dwCurY = ul_r;
 3361              		.loc 1 1639 0
 3362 0016 0024     		movs	r4, #0
1642:../src/sam/components/display/ili93xx/ili93xx.c **** 		dwXmin = (dwCurX > ul_x) ? 0 : ul_x - dwCurX;
 3363              		.loc 1 1642 0
 3364 0018 40E0     		b	.L226
 3365              	.LVL412:
 3366              	.L233:
1643:../src/sam/components/display/ili93xx/ili93xx.c **** 		dwYmin = (dwCurY > ul_y) ? 0 : ul_y - dwCurY;
 3367              		.loc 1 1643 0
 3368 001a B442     		cmp	r4, r6
 3369 001c 02D8     		bhi	.L235
1643:../src/sam/components/display/ili93xx/ili93xx.c **** 		dwYmin = (dwCurY > ul_y) ? 0 : ul_y - dwCurY;
 3370              		.loc 1 1643 0 is_stmt 0 discriminator 1
 3371 001e C4EB060A 		rsb	r10, r4, r6
 3372 0022 01E0     		b	.L227
 3373              	.L235:
1643:../src/sam/components/display/ili93xx/ili93xx.c **** 		dwYmin = (dwCurY > ul_y) ? 0 : ul_y - dwCurY;
 3374              		.loc 1 1643 0
 3375 0024 4FF0000A 		mov	r10, #0
 3376              	.L227:
 3377              	.LVL413:
1644:../src/sam/components/display/ili93xx/ili93xx.c **** 		ili93xx_draw_filled_rectangle(dwXmin, dwYmin, ul_x + dwCurX,
 3378              		.loc 1 1644 0 is_stmt 1 discriminator 4
 3379 0028 BD42     		cmp	r5, r7
 3380 002a 01D8     		bhi	.L236
1644:../src/sam/components/display/ili93xx/ili93xx.c **** 		ili93xx_draw_filled_rectangle(dwXmin, dwYmin, ul_x + dwCurX,
 3381              		.loc 1 1644 0 is_stmt 0 discriminator 1
 3382 002c 791B     		subs	r1, r7, r5
 3383 002e 00E0     		b	.L228
 3384              	.L236:
1644:../src/sam/components/display/ili93xx/ili93xx.c **** 		ili93xx_draw_filled_rectangle(dwXmin, dwYmin, ul_x + dwCurX,
 3385              		.loc 1 1644 0
 3386 0030 0021     		movs	r1, #0
 3387              	.L228:
 3388              	.LVL414:
1645:../src/sam/components/display/ili93xx/ili93xx.c **** 				dwYmin);
 3389              		.loc 1 1645 0 is_stmt 1 discriminator 4
 3390 0032 04EB0608 		add	r8, r4, r6
 3391 0036 0B46     		mov	r3, r1
 3392 0038 4246     		mov	r2, r8
 3393 003a 5046     		mov	r0, r10
 3394 003c FFF7FEFF 		bl	ili93xx_draw_filled_rectangle
 3395              	.LVL415:
1647:../src/sam/components/display/ili93xx/ili93xx.c **** 				ul_x + dwCurX, ul_y + dwCurY);
 3396              		.loc 1 1647 0 discriminator 4
 3397 0040 E919     		adds	r1, r5, r7
 3398 0042 0B46     		mov	r3, r1
 3399 0044 4246     		mov	r2, r8
 3400 0046 5046     		mov	r0, r10
 3401 0048 FFF7FEFF 		bl	ili93xx_draw_filled_rectangle
 3402              	.LVL416:
1649:../src/sam/components/display/ili93xx/ili93xx.c **** 		dwYmin = (dwCurX > ul_y) ? 0 : ul_y - dwCurX;
 3403              		.loc 1 1649 0 discriminator 4
 3404 004c B542     		cmp	r5, r6
 3405 004e 02D8     		bhi	.L237
1649:../src/sam/components/display/ili93xx/ili93xx.c **** 		dwYmin = (dwCurX > ul_y) ? 0 : ul_y - dwCurX;
 3406              		.loc 1 1649 0 is_stmt 0 discriminator 1
 3407 0050 C5EB060A 		rsb	r10, r5, r6
 3408              	.LVL417:
 3409 0054 01E0     		b	.L229
 3410              	.LVL418:
 3411              	.L237:
1649:../src/sam/components/display/ili93xx/ili93xx.c **** 		dwYmin = (dwCurX > ul_y) ? 0 : ul_y - dwCurX;
 3412              		.loc 1 1649 0
 3413 0056 4FF0000A 		mov	r10, #0
 3414              	.LVL419:
 3415              	.L229:
1650:../src/sam/components/display/ili93xx/ili93xx.c **** 		ili93xx_draw_filled_rectangle(dwXmin, dwYmin, ul_x + dwCurY,
 3416              		.loc 1 1650 0 is_stmt 1 discriminator 4
 3417 005a BC42     		cmp	r4, r7
 3418 005c 01D8     		bhi	.L238
1650:../src/sam/components/display/ili93xx/ili93xx.c **** 		ili93xx_draw_filled_rectangle(dwXmin, dwYmin, ul_x + dwCurY,
 3419              		.loc 1 1650 0 is_stmt 0 discriminator 1
 3420 005e 391B     		subs	r1, r7, r4
 3421 0060 00E0     		b	.L230
 3422              	.L238:
1650:../src/sam/components/display/ili93xx/ili93xx.c **** 		ili93xx_draw_filled_rectangle(dwXmin, dwYmin, ul_x + dwCurY,
 3423              		.loc 1 1650 0
 3424 0062 0021     		movs	r1, #0
 3425              	.L230:
 3426              	.LVL420:
1651:../src/sam/components/display/ili93xx/ili93xx.c **** 				dwYmin);
 3427              		.loc 1 1651 0 is_stmt 1 discriminator 4
 3428 0064 05EB0608 		add	r8, r5, r6
 3429 0068 0B46     		mov	r3, r1
 3430 006a 4246     		mov	r2, r8
 3431 006c 5046     		mov	r0, r10
 3432 006e FFF7FEFF 		bl	ili93xx_draw_filled_rectangle
 3433              	.LVL421:
1653:../src/sam/components/display/ili93xx/ili93xx.c **** 				ul_x + dwCurY, ul_y + dwCurX);
 3434              		.loc 1 1653 0 discriminator 4
 3435 0072 E119     		adds	r1, r4, r7
 3436 0074 0B46     		mov	r3, r1
 3437 0076 4246     		mov	r2, r8
 3438 0078 5046     		mov	r0, r10
 3439 007a FFF7FEFF 		bl	ili93xx_draw_filled_rectangle
 3440              	.LVL422:
1656:../src/sam/components/display/ili93xx/ili93xx.c **** 			d += (dwCurX << 2) + 6;
 3441              		.loc 1 1656 0 discriminator 4
 3442 007e B9F1000F 		cmp	r9, #0
 3443 0082 04DA     		bge	.L231
1657:../src/sam/components/display/ili93xx/ili93xx.c **** 		} else {
 3444              		.loc 1 1657 0
 3445 0084 09EB8409 		add	r9, r9, r4, lsl #2
 3446              	.LVL423:
 3447 0088 09F10609 		add	r9, r9, #6
 3448              	.LVL424:
 3449 008c 05E0     		b	.L232
 3450              	.L231:
1659:../src/sam/components/display/ili93xx/ili93xx.c **** 			dwCurY--;
 3451              		.loc 1 1659 0
 3452 008e 631B     		subs	r3, r4, r5
 3453 0090 09EB8309 		add	r9, r9, r3, lsl #2
 3454              	.LVL425:
 3455 0094 09F10A09 		add	r9, r9, #10
 3456              	.LVL426:
1660:../src/sam/components/display/ili93xx/ili93xx.c **** 		}
 3457              		.loc 1 1660 0
 3458 0098 013D     		subs	r5, r5, #1
 3459              	.LVL427:
 3460              	.L232:
1663:../src/sam/components/display/ili93xx/ili93xx.c **** 	}
 3461              		.loc 1 1663 0
 3462 009a 0134     		adds	r4, r4, #1
 3463              	.LVL428:
 3464              	.L226:
1642:../src/sam/components/display/ili93xx/ili93xx.c **** 		dwXmin = (dwCurX > ul_x) ? 0 : ul_x - dwCurX;
 3465              		.loc 1 1642 0
 3466 009c AC42     		cmp	r4, r5
 3467 009e BCD9     		bls	.L233
1666:../src/sam/components/display/ili93xx/ili93xx.c **** }
 3468              		.loc 1 1666 0
 3469 00a0 0020     		movs	r0, #0
 3470 00a2 BDE8F087 		pop	{r4, r5, r6, r7, r8, r9, r10, pc}
 3471              	.LVL429:
 3472              	.L234:
 3473              		.cfi_def_cfa_offset 0
 3474              		.cfi_restore 4
 3475              		.cfi_restore 5
 3476              		.cfi_restore 6
 3477              		.cfi_restore 7
 3478              		.cfi_restore 8
 3479              		.cfi_restore 9
 3480              		.cfi_restore 10
 3481              		.cfi_restore 14
1635:../src/sam/components/display/ili93xx/ili93xx.c **** 	}
 3482              		.loc 1 1635 0
 3483 00a6 0120     		movs	r0, #1
 3484              	.LVL430:
 3485 00a8 7047     		bx	lr
 3486              		.cfi_endproc
 3487              	.LFE211:
 3489 00aa 00BF     		.section	.text.ili93xx_draw_string,"ax",%progbits
 3490              		.align	2
 3491              		.global	ili93xx_draw_string
 3492              		.thumb
 3493              		.thumb_func
 3495              	ili93xx_draw_string:
 3496              	.LFB213:
1709:../src/sam/components/display/ili93xx/ili93xx.c **** 
1710:../src/sam/components/display/ili93xx/ili93xx.c **** /**
1711:../src/sam/components/display/ili93xx/ili93xx.c ****  * \brief Draw a string on LCD.
1712:../src/sam/components/display/ili93xx/ili93xx.c ****  *
1713:../src/sam/components/display/ili93xx/ili93xx.c ****  * \param ul_x X coordinate of string top-left corner.
1714:../src/sam/components/display/ili93xx/ili93xx.c ****  * \param ul_y Y coordinate of string top-left corner.
1715:../src/sam/components/display/ili93xx/ili93xx.c ****  * \param p_str String to display.
1716:../src/sam/components/display/ili93xx/ili93xx.c ****  */
1717:../src/sam/components/display/ili93xx/ili93xx.c **** void ili93xx_draw_string(uint32_t ul_x, uint32_t ul_y, const uint8_t *p_str)
1718:../src/sam/components/display/ili93xx/ili93xx.c **** {
 3497              		.loc 1 1718 0
 3498              		.cfi_startproc
 3499              		@ args = 0, pretend = 0, frame = 0
 3500              		@ frame_needed = 0, uses_anonymous_args = 0
 3501              	.LVL431:
 3502 0000 F8B5     		push	{r3, r4, r5, r6, r7, lr}
 3503              		.cfi_def_cfa_offset 24
 3504              		.cfi_offset 3, -24
 3505              		.cfi_offset 4, -20
 3506              		.cfi_offset 5, -16
 3507              		.cfi_offset 6, -12
 3508              		.cfi_offset 7, -8
 3509              		.cfi_offset 14, -4
 3510 0002 0746     		mov	r7, r0
 3511 0004 0E46     		mov	r6, r1
 3512 0006 1446     		mov	r4, r2
 3513              	.LVL432:
1719:../src/sam/components/display/ili93xx/ili93xx.c **** 	uint32_t xorg = ul_x;
1720:../src/sam/components/display/ili93xx/ili93xx.c **** 
1721:../src/sam/components/display/ili93xx/ili93xx.c **** 	while (*p_str != 0) {
 3514              		.loc 1 1721 0
 3515 0008 0546     		mov	r5, r0
 3516 000a 0AE0     		b	.L242
 3517              	.LVL433:
 3518              	.L245:
1722:../src/sam/components/display/ili93xx/ili93xx.c **** 		/** If newline, jump to the next line (font height + 2) */
1723:../src/sam/components/display/ili93xx/ili93xx.c **** 		if (*p_str == '\n') {
 3519              		.loc 1 1723 0
 3520 000c 0A2A     		cmp	r2, #10
 3521 000e 02D1     		bne	.L243
1724:../src/sam/components/display/ili93xx/ili93xx.c **** 			ul_y += gfont.height + 2;
 3522              		.loc 1 1724 0
 3523 0010 1036     		adds	r6, r6, #16
 3524              	.LVL434:
1725:../src/sam/components/display/ili93xx/ili93xx.c **** 			ul_x = xorg;
 3525              		.loc 1 1725 0
 3526 0012 3D46     		mov	r5, r7
 3527 0014 04E0     		b	.L244
 3528              	.LVL435:
 3529              	.L243:
1726:../src/sam/components/display/ili93xx/ili93xx.c **** 		} else {
1727:../src/sam/components/display/ili93xx/ili93xx.c **** 			/**
1728:../src/sam/components/display/ili93xx/ili93xx.c **** 			 * Draw the character and place cursor right after (font
1729:../src/sam/components/display/ili93xx/ili93xx.c **** 			 * width + 2)
1730:../src/sam/components/display/ili93xx/ili93xx.c **** 			 */
1731:../src/sam/components/display/ili93xx/ili93xx.c **** 			ili93xx_draw_char(ul_x, ul_y, *p_str);
 3530              		.loc 1 1731 0
 3531 0016 3146     		mov	r1, r6
 3532 0018 2846     		mov	r0, r5
 3533 001a FFF7FEFF 		bl	ili93xx_draw_char
 3534              	.LVL436:
1732:../src/sam/components/display/ili93xx/ili93xx.c **** 			ul_x += gfont.width + 2;
 3535              		.loc 1 1732 0
 3536 001e 0C35     		adds	r5, r5, #12
 3537              	.LVL437:
 3538              	.L244:
1733:../src/sam/components/display/ili93xx/ili93xx.c **** 		}
1734:../src/sam/components/display/ili93xx/ili93xx.c **** 
1735:../src/sam/components/display/ili93xx/ili93xx.c **** 		p_str++;
 3539              		.loc 1 1735 0
 3540 0020 0134     		adds	r4, r4, #1
 3541              	.LVL438:
 3542              	.L242:
1721:../src/sam/components/display/ili93xx/ili93xx.c **** 		/** If newline, jump to the next line (font height + 2) */
 3543              		.loc 1 1721 0
 3544 0022 2278     		ldrb	r2, [r4]	@ zero_extendqisi2
 3545 0024 002A     		cmp	r2, #0
 3546 0026 F1D1     		bne	.L245
1736:../src/sam/components/display/ili93xx/ili93xx.c **** 	}
1737:../src/sam/components/display/ili93xx/ili93xx.c **** }
 3547              		.loc 1 1737 0
 3548 0028 F8BD     		pop	{r3, r4, r5, r6, r7, pc}
 3549              		.cfi_endproc
 3550              	.LFE213:
 3552 002a 00BF     		.section	.text.ili93xx_draw_pixmap,"ax",%progbits
 3553              		.align	2
 3554              		.global	ili93xx_draw_pixmap
 3555              		.thumb
 3556              		.thumb_func
 3558              	ili93xx_draw_pixmap:
 3559              	.LFB214:
1738:../src/sam/components/display/ili93xx/ili93xx.c **** 
1739:../src/sam/components/display/ili93xx/ili93xx.c **** /**
1740:../src/sam/components/display/ili93xx/ili93xx.c ****  * \brief Draw a pixmap on LCD.
1741:../src/sam/components/display/ili93xx/ili93xx.c ****  *
1742:../src/sam/components/display/ili93xx/ili93xx.c ****  * \param ul_x X coordinate of upper-left corner on LCD.
1743:../src/sam/components/display/ili93xx/ili93xx.c ****  * \param ul_y Y coordinate of upper-left corner on LCD.
1744:../src/sam/components/display/ili93xx/ili93xx.c ****  * \param ul_width width of the picture.
1745:../src/sam/components/display/ili93xx/ili93xx.c ****  * \param ul_height height of the picture.
1746:../src/sam/components/display/ili93xx/ili93xx.c ****  * \param p_ul_pixmap pixmap of the image.
1747:../src/sam/components/display/ili93xx/ili93xx.c ****  */
1748:../src/sam/components/display/ili93xx/ili93xx.c **** void ili93xx_draw_pixmap(uint32_t ul_x, uint32_t ul_y, uint32_t ul_width,
1749:../src/sam/components/display/ili93xx/ili93xx.c **** 		uint32_t ul_height, const ili93xx_color_t *p_ul_pixmap)
1750:../src/sam/components/display/ili93xx/ili93xx.c **** {
 3560              		.loc 1 1750 0
 3561              		.cfi_startproc
 3562              		@ args = 4, pretend = 0, frame = 16
 3563              		@ frame_needed = 0, uses_anonymous_args = 0
 3564              	.LVL439:
 3565 0000 00B5     		push	{lr}
 3566              		.cfi_def_cfa_offset 4
 3567              		.cfi_offset 14, -4
 3568 0002 85B0     		sub	sp, sp, #20
 3569              		.cfi_def_cfa_offset 24
1751:../src/sam/components/display/ili93xx/ili93xx.c **** 	uint32_t size;
1752:../src/sam/components/display/ili93xx/ili93xx.c **** 	uint32_t dwX1, dwY1, dwX2, dwY2;
1753:../src/sam/components/display/ili93xx/ili93xx.c **** 	dwX1 = ul_x;
 3570              		.loc 1 1753 0
 3571 0004 0390     		str	r0, [sp, #12]
1754:../src/sam/components/display/ili93xx/ili93xx.c **** 	dwY1 = ul_y;
 3572              		.loc 1 1754 0
 3573 0006 0291     		str	r1, [sp, #8]
1755:../src/sam/components/display/ili93xx/ili93xx.c **** 	dwX2 = ul_x + ul_width;
 3574              		.loc 1 1755 0
 3575 0008 0244     		add	r2, r2, r0
 3576              	.LVL440:
 3577 000a 0192     		str	r2, [sp, #4]
1756:../src/sam/components/display/ili93xx/ili93xx.c **** 	dwY2 = ul_y + ul_height;
 3578              		.loc 1 1756 0
 3579 000c 1944     		add	r1, r1, r3
 3580              	.LVL441:
 3581 000e 04AB     		add	r3, sp, #16
 3582              	.LVL442:
 3583 0010 43F8101D 		str	r1, [r3, #-16]!
1757:../src/sam/components/display/ili93xx/ili93xx.c **** 
1758:../src/sam/components/display/ili93xx/ili93xx.c **** 	/** Swap coordinates if necessary */
1759:../src/sam/components/display/ili93xx/ili93xx.c **** 	ili93xx_check_box_coordinates(&dwX1, &dwY1, &dwX2, &dwY2);
 3584              		.loc 1 1759 0
 3585 0014 01AA     		add	r2, sp, #4
 3586 0016 02A9     		add	r1, sp, #8
 3587              	.LVL443:
 3588 0018 03A8     		add	r0, sp, #12
 3589              	.LVL444:
 3590 001a FFF7FEFF 		bl	ili93xx_check_box_coordinates
 3591              	.LVL445:
1760:../src/sam/components/display/ili93xx/ili93xx.c **** 
1761:../src/sam/components/display/ili93xx/ili93xx.c **** 	/** Determine the refresh window area */
1762:../src/sam/components/display/ili93xx/ili93xx.c **** 	ili93xx_set_window(dwX1, dwY1, (dwX2 - dwX1 + 1), (dwY2 - dwY1 + 1));
 3592              		.loc 1 1762 0
 3593 001e 0398     		ldr	r0, [sp, #12]
 3594 0020 019A     		ldr	r2, [sp, #4]
 3595 0022 121A     		subs	r2, r2, r0
 3596 0024 0299     		ldr	r1, [sp, #8]
 3597 0026 009B     		ldr	r3, [sp]
 3598 0028 5B1A     		subs	r3, r3, r1
 3599 002a 0133     		adds	r3, r3, #1
 3600 002c 0132     		adds	r2, r2, #1
 3601 002e FFF7FEFF 		bl	ili93xx_set_window
 3602              	.LVL446:
1763:../src/sam/components/display/ili93xx/ili93xx.c **** 
1764:../src/sam/components/display/ili93xx/ili93xx.c **** 	if (g_uc_device_type == DEVICE_TYPE_ILI9325) {
 3603              		.loc 1 1764 0
 3604 0032 1D4B     		ldr	r3, .L251
 3605 0034 1B78     		ldrb	r3, [r3]	@ zero_extendqisi2
 3606 0036 012B     		cmp	r3, #1
 3607 0038 1BD1     		bne	.L248
1765:../src/sam/components/display/ili93xx/ili93xx.c **** 		/** Set cursor */
1766:../src/sam/components/display/ili93xx/ili93xx.c **** 		ili93xx_set_cursor_position(dwX1, dwY1);
 3608              		.loc 1 1766 0
 3609 003a BDF80810 		ldrh	r1, [sp, #8]
 3610 003e BDF80C00 		ldrh	r0, [sp, #12]
 3611 0042 FFF7FEFF 		bl	ili93xx_set_cursor_position
 3612              	.LVL447:
1767:../src/sam/components/display/ili93xx/ili93xx.c **** 		/** Prepare to write in GRAM */
1768:../src/sam/components/display/ili93xx/ili93xx.c **** 		ili93xx_write_ram_prepare();
 3613              		.loc 1 1768 0
 3614 0046 FFF7FEFF 		bl	ili93xx_write_ram_prepare
 3615              	.LVL448:
1769:../src/sam/components/display/ili93xx/ili93xx.c **** 
1770:../src/sam/components/display/ili93xx/ili93xx.c **** 		size = (dwX2 - dwX1) * (dwY2 - dwY1);
 3616              		.loc 1 1770 0
 3617 004a 0399     		ldr	r1, [sp, #12]
 3618 004c 019B     		ldr	r3, [sp, #4]
 3619 004e 5B1A     		subs	r3, r3, r1
 3620 0050 0299     		ldr	r1, [sp, #8]
 3621 0052 009A     		ldr	r2, [sp]
 3622 0054 511A     		subs	r1, r2, r1
 3623              	.LVL449:
1771:../src/sam/components/display/ili93xx/ili93xx.c **** 
1772:../src/sam/components/display/ili93xx/ili93xx.c **** 		ili93xx_write_ram_buffer(p_ul_pixmap, size);
 3624              		.loc 1 1772 0
 3625 0056 01FB03F1 		mul	r1, r1, r3
 3626              	.LVL450:
 3627 005a 0698     		ldr	r0, [sp, #24]
 3628 005c FFF7FEFF 		bl	ili93xx_write_ram_buffer
 3629              	.LVL451:
1773:../src/sam/components/display/ili93xx/ili93xx.c **** 
1774:../src/sam/components/display/ili93xx/ili93xx.c **** 		/** Reset the refresh window area */
1775:../src/sam/components/display/ili93xx/ili93xx.c **** 		ili93xx_set_window(0, 0, g_ul_lcd_x_length, g_ul_lcd_y_length);
 3630              		.loc 1 1775 0
 3631 0060 124B     		ldr	r3, .L251+4
 3632 0062 1B68     		ldr	r3, [r3]
 3633 0064 124A     		ldr	r2, .L251+8
 3634 0066 1268     		ldr	r2, [r2]
 3635 0068 0021     		movs	r1, #0
 3636 006a 0846     		mov	r0, r1
 3637 006c FFF7FEFF 		bl	ili93xx_set_window
 3638              	.LVL452:
 3639 0070 16E0     		b	.L247
 3640              	.L248:
1776:../src/sam/components/display/ili93xx/ili93xx.c **** 	} else if (g_uc_device_type == DEVICE_TYPE_ILI9341) {
 3641              		.loc 1 1776 0
 3642 0072 022B     		cmp	r3, #2
 3643 0074 14D1     		bne	.L247
1777:../src/sam/components/display/ili93xx/ili93xx.c **** 		/** Prepare to write in GRAM */
1778:../src/sam/components/display/ili93xx/ili93xx.c **** 		ili93xx_write_ram_prepare();
 3644              		.loc 1 1778 0
 3645 0076 FFF7FEFF 		bl	ili93xx_write_ram_prepare
 3646              	.LVL453:
1779:../src/sam/components/display/ili93xx/ili93xx.c **** 
1780:../src/sam/components/display/ili93xx/ili93xx.c **** 		size = (dwX2 - dwX1) * (dwY2 - dwY1);
 3647              		.loc 1 1780 0
 3648 007a 0399     		ldr	r1, [sp, #12]
 3649 007c 019B     		ldr	r3, [sp, #4]
 3650 007e 5B1A     		subs	r3, r3, r1
 3651 0080 0299     		ldr	r1, [sp, #8]
 3652 0082 009A     		ldr	r2, [sp]
 3653 0084 511A     		subs	r1, r2, r1
 3654              	.LVL454:
1781:../src/sam/components/display/ili93xx/ili93xx.c **** 
1782:../src/sam/components/display/ili93xx/ili93xx.c **** 		ili93xx_write_ram_buffer(p_ul_pixmap, size);
 3655              		.loc 1 1782 0
 3656 0086 01FB03F1 		mul	r1, r1, r3
 3657              	.LVL455:
 3658 008a 0698     		ldr	r0, [sp, #24]
 3659 008c FFF7FEFF 		bl	ili93xx_write_ram_buffer
 3660              	.LVL456:
1783:../src/sam/components/display/ili93xx/ili93xx.c **** 
1784:../src/sam/components/display/ili93xx/ili93xx.c **** 		/** Reset the refresh window area */
1785:../src/sam/components/display/ili93xx/ili93xx.c **** 		ili93xx_set_window(0, 0, g_ul_lcd_x_length, g_ul_lcd_y_length);
 3661              		.loc 1 1785 0
 3662 0090 064B     		ldr	r3, .L251+4
 3663 0092 1B68     		ldr	r3, [r3]
 3664 0094 064A     		ldr	r2, .L251+8
 3665 0096 1268     		ldr	r2, [r2]
 3666 0098 0021     		movs	r1, #0
 3667 009a 0846     		mov	r0, r1
 3668 009c FFF7FEFF 		bl	ili93xx_set_window
 3669              	.LVL457:
 3670              	.L247:
1786:../src/sam/components/display/ili93xx/ili93xx.c **** 	}
1787:../src/sam/components/display/ili93xx/ili93xx.c **** }
 3671              		.loc 1 1787 0
 3672 00a0 05B0     		add	sp, sp, #20
 3673              		.cfi_def_cfa_offset 4
 3674              		@ sp needed
 3675 00a2 5DF804FB 		ldr	pc, [sp], #4
 3676              	.LVL458:
 3677              	.L252:
 3678 00a6 00BF     		.align	2
 3679              	.L251:
 3680 00a8 00000000 		.word	.LANCHOR2
 3681 00ac 00000000 		.word	.LANCHOR1
 3682 00b0 00000000 		.word	.LANCHOR0
 3683              		.cfi_endproc
 3684              	.LFE214:
 3686              		.section	.text.ili93xx_set_top_left_limit,"ax",%progbits
 3687              		.align	2
 3688              		.global	ili93xx_set_top_left_limit
 3689              		.thumb
 3690              		.thumb_func
 3692              	ili93xx_set_top_left_limit:
 3693              	.LFB216:
1788:../src/sam/components/display/ili93xx/ili93xx.c **** 
1789:../src/sam/components/display/ili93xx/ili93xx.c **** /**
1790:../src/sam/components/display/ili93xx/ili93xx.c ****  * \internal
1791:../src/sam/components/display/ili93xx/ili93xx.c ****  * \brief Helper function to send the drawing limits (boundaries) to the display
1792:../src/sam/components/display/ili93xx/ili93xx.c ****  *
1793:../src/sam/components/display/ili93xx/ili93xx.c ****  * This function is used to send the currently set upper-left and lower-right
1794:../src/sam/components/display/ili93xx/ili93xx.c ****  * drawing limits to the display, as set through the various limit functions.
1795:../src/sam/components/display/ili93xx/ili93xx.c ****  *
1796:../src/sam/components/display/ili93xx/ili93xx.c ****  * \param send_end_limits  True to also send the lower-right drawing limits
1797:../src/sam/components/display/ili93xx/ili93xx.c ****  */
1798:../src/sam/components/display/ili93xx/ili93xx.c **** static inline void ili93xx_send_draw_limits(const bool send_end_limits)
1799:../src/sam/components/display/ili93xx/ili93xx.c **** {
1800:../src/sam/components/display/ili93xx/ili93xx.c **** 	if (g_uc_device_type == DEVICE_TYPE_ILI9325) {
1801:../src/sam/components/display/ili93xx/ili93xx.c **** 		/** Set Horizontal Address Start Position */
1802:../src/sam/components/display/ili93xx/ili93xx.c **** 		ili93xx_write_register_word(ILI9325_HORIZONTAL_ADDR_START,
1803:../src/sam/components/display/ili93xx/ili93xx.c **** 				(uint16_t)limit_start_x);
1804:../src/sam/components/display/ili93xx/ili93xx.c **** 
1805:../src/sam/components/display/ili93xx/ili93xx.c **** 		if (send_end_limits) {
1806:../src/sam/components/display/ili93xx/ili93xx.c **** 			/** Set Horizontal Address End Position */
1807:../src/sam/components/display/ili93xx/ili93xx.c **** 			ili93xx_write_register_word(ILI9325_HORIZONTAL_ADDR_END,
1808:../src/sam/components/display/ili93xx/ili93xx.c **** 					(uint16_t)(limit_end_x));
1809:../src/sam/components/display/ili93xx/ili93xx.c **** 		}
1810:../src/sam/components/display/ili93xx/ili93xx.c **** 
1811:../src/sam/components/display/ili93xx/ili93xx.c **** 		/** Set Vertical Address Start Position */
1812:../src/sam/components/display/ili93xx/ili93xx.c **** 		ili93xx_write_register_word(ILI9325_VERTICAL_ADDR_START,
1813:../src/sam/components/display/ili93xx/ili93xx.c **** 				(uint16_t)limit_start_y);
1814:../src/sam/components/display/ili93xx/ili93xx.c **** 		if (send_end_limits) {
1815:../src/sam/components/display/ili93xx/ili93xx.c **** 			/** Set Vertical Address End Position */
1816:../src/sam/components/display/ili93xx/ili93xx.c **** 			ili93xx_write_register_word(ILI9325_VERTICAL_ADDR_END,
1817:../src/sam/components/display/ili93xx/ili93xx.c **** 					(uint16_t)(limit_end_y));
1818:../src/sam/components/display/ili93xx/ili93xx.c **** 		}
1819:../src/sam/components/display/ili93xx/ili93xx.c **** 
1820:../src/sam/components/display/ili93xx/ili93xx.c **** 		/** GRAM Horizontal/Vertical Address Set (R20h, R21h) */
1821:../src/sam/components/display/ili93xx/ili93xx.c **** 		ili93xx_write_register_word(ILI9325_HORIZONTAL_GRAM_ADDR_SET,
1822:../src/sam/components/display/ili93xx/ili93xx.c **** 				limit_start_x);
1823:../src/sam/components/display/ili93xx/ili93xx.c **** 		ili93xx_write_register_word(ILI9325_VERTICAL_GRAM_ADDR_SET,
1824:../src/sam/components/display/ili93xx/ili93xx.c **** 				limit_start_y);
1825:../src/sam/components/display/ili93xx/ili93xx.c **** 
1826:../src/sam/components/display/ili93xx/ili93xx.c **** 	} else if (g_uc_device_type == DEVICE_TYPE_ILI9341) {
1827:../src/sam/components/display/ili93xx/ili93xx.c **** 
1828:../src/sam/components/display/ili93xx/ili93xx.c **** 		if (send_end_limits) {
1829:../src/sam/components/display/ili93xx/ili93xx.c **** 			uint8_t paratable[4];
1830:../src/sam/components/display/ili93xx/ili93xx.c **** 			
1831:../src/sam/components/display/ili93xx/ili93xx.c **** 			/** Set Column Address Position */
1832:../src/sam/components/display/ili93xx/ili93xx.c **** 			paratable[0] = (limit_start_x >> 8) & 0xFF;
1833:../src/sam/components/display/ili93xx/ili93xx.c **** 			paratable[1] = limit_start_x & 0xFF;
1834:../src/sam/components/display/ili93xx/ili93xx.c **** 			paratable[2] = (limit_end_x >> 8) & 0xFF;
1835:../src/sam/components/display/ili93xx/ili93xx.c **** 			paratable[3] = limit_end_x & 0xFF;
1836:../src/sam/components/display/ili93xx/ili93xx.c **** 			ili93xx_write_register(ILI9341_CMD_COLUMN_ADDRESS_SET,
1837:../src/sam/components/display/ili93xx/ili93xx.c **** 					paratable, 4);
1838:../src/sam/components/display/ili93xx/ili93xx.c **** 			
1839:../src/sam/components/display/ili93xx/ili93xx.c **** 			/** Set Page Address Position */
1840:../src/sam/components/display/ili93xx/ili93xx.c **** 			paratable[0] = (limit_start_y >> 8) & 0xFF;
1841:../src/sam/components/display/ili93xx/ili93xx.c **** 			paratable[1] = limit_start_y & 0xFF;
1842:../src/sam/components/display/ili93xx/ili93xx.c **** 			paratable[2] = (limit_end_y >> 8) & 0xFF;
1843:../src/sam/components/display/ili93xx/ili93xx.c **** 			paratable[3] = limit_end_y & 0xFF;
1844:../src/sam/components/display/ili93xx/ili93xx.c **** 			ili93xx_write_register(ILI9341_CMD_PAGE_ADDRESS_SET,
1845:../src/sam/components/display/ili93xx/ili93xx.c **** 						   paratable, 4);
1846:../src/sam/components/display/ili93xx/ili93xx.c **** 
1847:../src/sam/components/display/ili93xx/ili93xx.c **** 		} else {
1848:../src/sam/components/display/ili93xx/ili93xx.c **** 		/** Set Horizontal Address Start Position */
1849:../src/sam/components/display/ili93xx/ili93xx.c **** 		ili93xx_write_register_word(ILI9341_CMD_COLUMN_ADDRESS_SET,
1850:../src/sam/components/display/ili93xx/ili93xx.c **** 				(uint16_t)limit_start_x);
1851:../src/sam/components/display/ili93xx/ili93xx.c **** 
1852:../src/sam/components/display/ili93xx/ili93xx.c **** 		/** Set Vertical Address Start Position */
1853:../src/sam/components/display/ili93xx/ili93xx.c **** 		ili93xx_write_register_word(ILI9341_CMD_PAGE_ADDRESS_SET,
1854:../src/sam/components/display/ili93xx/ili93xx.c **** 				(uint16_t)limit_start_y);
1855:../src/sam/components/display/ili93xx/ili93xx.c **** 
1856:../src/sam/components/display/ili93xx/ili93xx.c **** 		}
1857:../src/sam/components/display/ili93xx/ili93xx.c **** 	}
1858:../src/sam/components/display/ili93xx/ili93xx.c **** }
1859:../src/sam/components/display/ili93xx/ili93xx.c **** 
1860:../src/sam/components/display/ili93xx/ili93xx.c **** /**
1861:../src/sam/components/display/ili93xx/ili93xx.c ****  * \brief Set the display top left drawing limit
1862:../src/sam/components/display/ili93xx/ili93xx.c ****  *
1863:../src/sam/components/display/ili93xx/ili93xx.c ****  * Use this function to set the top left limit of the drawing limit box.
1864:../src/sam/components/display/ili93xx/ili93xx.c ****  *
1865:../src/sam/components/display/ili93xx/ili93xx.c ****  * \param x The x coordinate of the top left corner
1866:../src/sam/components/display/ili93xx/ili93xx.c ****  * \param y The y coordinate of the top left corner
1867:../src/sam/components/display/ili93xx/ili93xx.c ****  */
1868:../src/sam/components/display/ili93xx/ili93xx.c **** void ili93xx_set_top_left_limit(ili93xx_coord_t x, ili93xx_coord_t y)
1869:../src/sam/components/display/ili93xx/ili93xx.c **** {
 3694              		.loc 1 1869 0
 3695              		.cfi_startproc
 3696              		@ args = 0, pretend = 0, frame = 0
 3697              		@ frame_needed = 0, uses_anonymous_args = 0
 3698              	.LVL459:
 3699 0000 38B5     		push	{r3, r4, r5, lr}
 3700              		.cfi_def_cfa_offset 16
 3701              		.cfi_offset 3, -16
 3702              		.cfi_offset 4, -12
 3703              		.cfi_offset 5, -8
 3704              		.cfi_offset 14, -4
1870:../src/sam/components/display/ili93xx/ili93xx.c **** 	limit_start_x = x;
 3705              		.loc 1 1870 0
 3706 0002 174B     		ldr	r3, .L257
 3707 0004 1880     		strh	r0, [r3]	@ movhi
1871:../src/sam/components/display/ili93xx/ili93xx.c **** 	limit_start_y = y;
 3708              		.loc 1 1871 0
 3709 0006 174B     		ldr	r3, .L257+4
 3710 0008 1980     		strh	r1, [r3]	@ movhi
 3711              	.LVL460:
 3712              	.LBB52:
 3713              	.LBB53:
1800:../src/sam/components/display/ili93xx/ili93xx.c **** 		/** Set Horizontal Address Start Position */
 3714              		.loc 1 1800 0
 3715 000a 174B     		ldr	r3, .L257+8
 3716 000c 1B78     		ldrb	r3, [r3]	@ zero_extendqisi2
 3717 000e 012B     		cmp	r3, #1
 3718 0010 16D1     		bne	.L254
1802:../src/sam/components/display/ili93xx/ili93xx.c **** 				(uint16_t)limit_start_x);
 3719              		.loc 1 1802 0
 3720 0012 134D     		ldr	r5, .L257
 3721 0014 2988     		ldrh	r1, [r5]
 3722              	.LVL461:
 3723 0016 89B2     		uxth	r1, r1
 3724 0018 5020     		movs	r0, #80
 3725              	.LVL462:
 3726 001a FFF7FEFF 		bl	ili93xx_write_register_word
 3727              	.LVL463:
1812:../src/sam/components/display/ili93xx/ili93xx.c **** 				(uint16_t)limit_start_y);
 3728              		.loc 1 1812 0
 3729 001e 114C     		ldr	r4, .L257+4
 3730 0020 2188     		ldrh	r1, [r4]
 3731 0022 89B2     		uxth	r1, r1
 3732 0024 5220     		movs	r0, #82
 3733 0026 FFF7FEFF 		bl	ili93xx_write_register_word
 3734              	.LVL464:
1821:../src/sam/components/display/ili93xx/ili93xx.c **** 				limit_start_x);
 3735              		.loc 1 1821 0
 3736 002a 2988     		ldrh	r1, [r5]
 3737 002c 89B2     		uxth	r1, r1
 3738 002e 2020     		movs	r0, #32
 3739 0030 FFF7FEFF 		bl	ili93xx_write_register_word
 3740              	.LVL465:
1823:../src/sam/components/display/ili93xx/ili93xx.c **** 				limit_start_y);
 3741              		.loc 1 1823 0
 3742 0034 2188     		ldrh	r1, [r4]
 3743 0036 89B2     		uxth	r1, r1
 3744 0038 2120     		movs	r0, #33
 3745 003a FFF7FEFF 		bl	ili93xx_write_register_word
 3746              	.LVL466:
 3747 003e 38BD     		pop	{r3, r4, r5, pc}
 3748              	.LVL467:
 3749              	.L254:
1826:../src/sam/components/display/ili93xx/ili93xx.c **** 
 3750              		.loc 1 1826 0
 3751 0040 022B     		cmp	r3, #2
 3752 0042 0BD1     		bne	.L253
1849:../src/sam/components/display/ili93xx/ili93xx.c **** 				(uint16_t)limit_start_x);
 3753              		.loc 1 1849 0
 3754 0044 064B     		ldr	r3, .L257
 3755 0046 1988     		ldrh	r1, [r3]
 3756              	.LVL468:
 3757 0048 89B2     		uxth	r1, r1
 3758 004a 2A20     		movs	r0, #42
 3759              	.LVL469:
 3760 004c FFF7FEFF 		bl	ili93xx_write_register_word
 3761              	.LVL470:
1853:../src/sam/components/display/ili93xx/ili93xx.c **** 				(uint16_t)limit_start_y);
 3762              		.loc 1 1853 0
 3763 0050 044B     		ldr	r3, .L257+4
 3764 0052 1988     		ldrh	r1, [r3]
 3765 0054 89B2     		uxth	r1, r1
 3766 0056 2B20     		movs	r0, #43
 3767 0058 FFF7FEFF 		bl	ili93xx_write_register_word
 3768              	.LVL471:
 3769              	.L253:
 3770 005c 38BD     		pop	{r3, r4, r5, pc}
 3771              	.L258:
 3772 005e 00BF     		.align	2
 3773              	.L257:
 3774 0060 00000000 		.word	.LANCHOR5
 3775 0064 00000000 		.word	.LANCHOR6
 3776 0068 00000000 		.word	.LANCHOR2
 3777              	.LBE53:
 3778              	.LBE52:
 3779              		.cfi_endproc
 3780              	.LFE216:
 3782              		.section	.text.ili93xx_set_bottom_right_limit,"ax",%progbits
 3783              		.align	2
 3784              		.global	ili93xx_set_bottom_right_limit
 3785              		.thumb
 3786              		.thumb_func
 3788              	ili93xx_set_bottom_right_limit:
 3789              	.LFB217:
1872:../src/sam/components/display/ili93xx/ili93xx.c **** 
1873:../src/sam/components/display/ili93xx/ili93xx.c **** 	ili93xx_send_draw_limits(false);
1874:../src/sam/components/display/ili93xx/ili93xx.c **** }
1875:../src/sam/components/display/ili93xx/ili93xx.c **** 
1876:../src/sam/components/display/ili93xx/ili93xx.c **** /**
1877:../src/sam/components/display/ili93xx/ili93xx.c ****  * \brief Set the display bottom right drawing limit
1878:../src/sam/components/display/ili93xx/ili93xx.c ****  *
1879:../src/sam/components/display/ili93xx/ili93xx.c ****  * Use this function to set the bottom right corner of the drawing limit box.
1880:../src/sam/components/display/ili93xx/ili93xx.c ****  *
1881:../src/sam/components/display/ili93xx/ili93xx.c ****  * \param x The x coordinate of the bottom right corner
1882:../src/sam/components/display/ili93xx/ili93xx.c ****  * \param y The y coordinate of the bottom right corner
1883:../src/sam/components/display/ili93xx/ili93xx.c ****  */
1884:../src/sam/components/display/ili93xx/ili93xx.c **** void ili93xx_set_bottom_right_limit(ili93xx_coord_t x, ili93xx_coord_t y)
1885:../src/sam/components/display/ili93xx/ili93xx.c **** {
 3790              		.loc 1 1885 0
 3791              		.cfi_startproc
 3792              		@ args = 0, pretend = 0, frame = 8
 3793              		@ frame_needed = 0, uses_anonymous_args = 0
 3794              	.LVL472:
 3795 0000 30B5     		push	{r4, r5, lr}
 3796              		.cfi_def_cfa_offset 12
 3797              		.cfi_offset 4, -12
 3798              		.cfi_offset 5, -8
 3799              		.cfi_offset 14, -4
 3800 0002 83B0     		sub	sp, sp, #12
 3801              		.cfi_def_cfa_offset 24
1886:../src/sam/components/display/ili93xx/ili93xx.c **** 	limit_end_x = x;
 3802              		.loc 1 1886 0
 3803 0004 2F4B     		ldr	r3, .L263
 3804 0006 1880     		strh	r0, [r3]	@ movhi
1887:../src/sam/components/display/ili93xx/ili93xx.c **** 	limit_end_y = y;
 3805              		.loc 1 1887 0
 3806 0008 2F4B     		ldr	r3, .L263+4
 3807 000a 1980     		strh	r1, [r3]	@ movhi
 3808              	.LVL473:
 3809              	.LBB57:
 3810              	.LBB58:
1800:../src/sam/components/display/ili93xx/ili93xx.c **** 		/** Set Horizontal Address Start Position */
 3811              		.loc 1 1800 0
 3812 000c 2F4B     		ldr	r3, .L263+8
 3813 000e 1B78     		ldrb	r3, [r3]	@ zero_extendqisi2
 3814 0010 012B     		cmp	r3, #1
 3815 0012 22D1     		bne	.L260
1802:../src/sam/components/display/ili93xx/ili93xx.c **** 				(uint16_t)limit_start_x);
 3816              		.loc 1 1802 0
 3817 0014 2E4D     		ldr	r5, .L263+12
 3818 0016 2988     		ldrh	r1, [r5]
 3819              	.LVL474:
 3820 0018 89B2     		uxth	r1, r1
 3821 001a 5020     		movs	r0, #80
 3822              	.LVL475:
 3823 001c FFF7FEFF 		bl	ili93xx_write_register_word
 3824              	.LVL476:
1807:../src/sam/components/display/ili93xx/ili93xx.c **** 					(uint16_t)(limit_end_x));
 3825              		.loc 1 1807 0
 3826 0020 284B     		ldr	r3, .L263
 3827 0022 1988     		ldrh	r1, [r3]
 3828 0024 89B2     		uxth	r1, r1
 3829 0026 5120     		movs	r0, #81
 3830 0028 FFF7FEFF 		bl	ili93xx_write_register_word
 3831              	.LVL477:
1812:../src/sam/components/display/ili93xx/ili93xx.c **** 				(uint16_t)limit_start_y);
 3832              		.loc 1 1812 0
 3833 002c 294C     		ldr	r4, .L263+16
 3834 002e 2188     		ldrh	r1, [r4]
 3835 0030 89B2     		uxth	r1, r1
 3836 0032 5220     		movs	r0, #82
 3837 0034 FFF7FEFF 		bl	ili93xx_write_register_word
 3838              	.LVL478:
1816:../src/sam/components/display/ili93xx/ili93xx.c **** 					(uint16_t)(limit_end_y));
 3839              		.loc 1 1816 0
 3840 0038 234B     		ldr	r3, .L263+4
 3841 003a 1988     		ldrh	r1, [r3]
 3842 003c 89B2     		uxth	r1, r1
 3843 003e 5320     		movs	r0, #83
 3844 0040 FFF7FEFF 		bl	ili93xx_write_register_word
 3845              	.LVL479:
1821:../src/sam/components/display/ili93xx/ili93xx.c **** 				limit_start_x);
 3846              		.loc 1 1821 0
 3847 0044 2988     		ldrh	r1, [r5]
 3848 0046 89B2     		uxth	r1, r1
 3849 0048 2020     		movs	r0, #32
 3850 004a FFF7FEFF 		bl	ili93xx_write_register_word
 3851              	.LVL480:
1823:../src/sam/components/display/ili93xx/ili93xx.c **** 				limit_start_y);
 3852              		.loc 1 1823 0
 3853 004e 2188     		ldrh	r1, [r4]
 3854 0050 89B2     		uxth	r1, r1
 3855 0052 2120     		movs	r0, #33
 3856 0054 FFF7FEFF 		bl	ili93xx_write_register_word
 3857              	.LVL481:
 3858 0058 31E0     		b	.L259
 3859              	.LVL482:
 3860              	.L260:
1826:../src/sam/components/display/ili93xx/ili93xx.c **** 
 3861              		.loc 1 1826 0
 3862 005a 022B     		cmp	r3, #2
 3863 005c 2FD1     		bne	.L259
 3864              	.LBB59:
1832:../src/sam/components/display/ili93xx/ili93xx.c **** 			paratable[1] = limit_start_x & 0xFF;
 3865              		.loc 1 1832 0
 3866 005e 1C4A     		ldr	r2, .L263+12
 3867 0060 1388     		ldrh	r3, [r2]
 3868 0062 43F30723 		sbfx	r3, r3, #8, #8
 3869 0066 8DF80430 		strb	r3, [sp, #4]
1833:../src/sam/components/display/ili93xx/ili93xx.c **** 			paratable[2] = (limit_end_x >> 8) & 0xFF;
 3870              		.loc 1 1833 0
 3871 006a 1388     		ldrh	r3, [r2]
 3872 006c 8DF80530 		strb	r3, [sp, #5]
1834:../src/sam/components/display/ili93xx/ili93xx.c **** 			paratable[3] = limit_end_x & 0xFF;
 3873              		.loc 1 1834 0
 3874 0070 144A     		ldr	r2, .L263
 3875 0072 1388     		ldrh	r3, [r2]
 3876 0074 43F30723 		sbfx	r3, r3, #8, #8
 3877 0078 8DF80630 		strb	r3, [sp, #6]
1835:../src/sam/components/display/ili93xx/ili93xx.c **** 			ili93xx_write_register(ILI9341_CMD_COLUMN_ADDRESS_SET,
 3878              		.loc 1 1835 0
 3879 007c 1388     		ldrh	r3, [r2]
 3880 007e 8DF80730 		strb	r3, [sp, #7]
1836:../src/sam/components/display/ili93xx/ili93xx.c **** 					paratable, 4);
 3881              		.loc 1 1836 0
 3882 0082 0422     		movs	r2, #4
 3883 0084 0DEB0201 		add	r1, sp, r2
 3884              	.LVL483:
 3885 0088 2A20     		movs	r0, #42
 3886              	.LVL484:
 3887 008a FFF7FEFF 		bl	ili93xx_write_register
 3888              	.LVL485:
1840:../src/sam/components/display/ili93xx/ili93xx.c **** 			paratable[1] = limit_start_y & 0xFF;
 3889              		.loc 1 1840 0
 3890 008e 114A     		ldr	r2, .L263+16
 3891 0090 1388     		ldrh	r3, [r2]
 3892 0092 43F30723 		sbfx	r3, r3, #8, #8
 3893 0096 8DF80430 		strb	r3, [sp, #4]
1841:../src/sam/components/display/ili93xx/ili93xx.c **** 			paratable[2] = (limit_end_y >> 8) & 0xFF;
 3894              		.loc 1 1841 0
 3895 009a 1388     		ldrh	r3, [r2]
 3896 009c 8DF80530 		strb	r3, [sp, #5]
1842:../src/sam/components/display/ili93xx/ili93xx.c **** 			paratable[3] = limit_end_y & 0xFF;
 3897              		.loc 1 1842 0
 3898 00a0 094A     		ldr	r2, .L263+4
 3899 00a2 1388     		ldrh	r3, [r2]
 3900 00a4 43F30723 		sbfx	r3, r3, #8, #8
 3901 00a8 8DF80630 		strb	r3, [sp, #6]
1843:../src/sam/components/display/ili93xx/ili93xx.c **** 			ili93xx_write_register(ILI9341_CMD_PAGE_ADDRESS_SET,
 3902              		.loc 1 1843 0
 3903 00ac 1388     		ldrh	r3, [r2]
 3904 00ae 8DF80730 		strb	r3, [sp, #7]
1844:../src/sam/components/display/ili93xx/ili93xx.c **** 						   paratable, 4);
 3905              		.loc 1 1844 0
 3906 00b2 0422     		movs	r2, #4
 3907 00b4 0DEB0201 		add	r1, sp, r2
 3908 00b8 2B20     		movs	r0, #43
 3909 00ba FFF7FEFF 		bl	ili93xx_write_register
 3910              	.LVL486:
 3911              	.L259:
 3912              	.LBE59:
 3913              	.LBE58:
 3914              	.LBE57:
1888:../src/sam/components/display/ili93xx/ili93xx.c **** 
1889:../src/sam/components/display/ili93xx/ili93xx.c **** 	ili93xx_send_draw_limits(true);
1890:../src/sam/components/display/ili93xx/ili93xx.c **** }
 3915              		.loc 1 1890 0
 3916 00be 03B0     		add	sp, sp, #12
 3917              		.cfi_def_cfa_offset 12
 3918              		@ sp needed
 3919 00c0 30BD     		pop	{r4, r5, pc}
 3920              	.L264:
 3921 00c2 00BF     		.align	2
 3922              	.L263:
 3923 00c4 00000000 		.word	.LANCHOR7
 3924 00c8 00000000 		.word	.LANCHOR8
 3925 00cc 00000000 		.word	.LANCHOR2
 3926 00d0 00000000 		.word	.LANCHOR5
 3927 00d4 00000000 		.word	.LANCHOR6
 3928              		.cfi_endproc
 3929              	.LFE217:
 3931              		.section	.text.ili93xx_set_limits,"ax",%progbits
 3932              		.align	2
 3933              		.global	ili93xx_set_limits
 3934              		.thumb
 3935              		.thumb_func
 3937              	ili93xx_set_limits:
 3938              	.LFB218:
1891:../src/sam/components/display/ili93xx/ili93xx.c **** 
1892:../src/sam/components/display/ili93xx/ili93xx.c **** /**
1893:../src/sam/components/display/ili93xx/ili93xx.c ****  * \brief Set the full display drawing limits
1894:../src/sam/components/display/ili93xx/ili93xx.c ****  *
1895:../src/sam/components/display/ili93xx/ili93xx.c ****  * Use this function to set the full drawing limit box.
1896:../src/sam/components/display/ili93xx/ili93xx.c ****  *
1897:../src/sam/components/display/ili93xx/ili93xx.c ****  * \param start_x The x coordinate of the top left corner
1898:../src/sam/components/display/ili93xx/ili93xx.c ****  * \param start_y The y coordinate of the top left corner
1899:../src/sam/components/display/ili93xx/ili93xx.c ****  * \param end_x The x coordinate of the bottom right corner
1900:../src/sam/components/display/ili93xx/ili93xx.c ****  * \param end_y The y coordinate of the bottom right corner
1901:../src/sam/components/display/ili93xx/ili93xx.c ****  */
1902:../src/sam/components/display/ili93xx/ili93xx.c **** void ili93xx_set_limits(ili93xx_coord_t start_x, ili93xx_coord_t start_y,
1903:../src/sam/components/display/ili93xx/ili93xx.c **** 		ili93xx_coord_t end_x, ili93xx_coord_t end_y)
1904:../src/sam/components/display/ili93xx/ili93xx.c **** {
 3939              		.loc 1 1904 0
 3940              		.cfi_startproc
 3941              		@ args = 0, pretend = 0, frame = 8
 3942              		@ frame_needed = 0, uses_anonymous_args = 0
 3943              	.LVL487:
 3944 0000 30B5     		push	{r4, r5, lr}
 3945              		.cfi_def_cfa_offset 12
 3946              		.cfi_offset 4, -12
 3947              		.cfi_offset 5, -8
 3948              		.cfi_offset 14, -4
 3949 0002 83B0     		sub	sp, sp, #12
 3950              		.cfi_def_cfa_offset 24
1905:../src/sam/components/display/ili93xx/ili93xx.c **** 	limit_start_x = start_x;
 3951              		.loc 1 1905 0
 3952 0004 314C     		ldr	r4, .L269
 3953 0006 2080     		strh	r0, [r4]	@ movhi
1906:../src/sam/components/display/ili93xx/ili93xx.c **** 	limit_start_y = start_y;
 3954              		.loc 1 1906 0
 3955 0008 3148     		ldr	r0, .L269+4
 3956              	.LVL488:
 3957 000a 0180     		strh	r1, [r0]	@ movhi
 3958              	.LVL489:
1907:../src/sam/components/display/ili93xx/ili93xx.c **** 	limit_end_x = end_x;
 3959              		.loc 1 1907 0
 3960 000c 3149     		ldr	r1, .L269+8
 3961              	.LVL490:
 3962 000e 0A80     		strh	r2, [r1]	@ movhi
 3963              	.LVL491:
1908:../src/sam/components/display/ili93xx/ili93xx.c **** 	limit_end_y = end_y;
 3964              		.loc 1 1908 0
 3965 0010 314A     		ldr	r2, .L269+12
 3966              	.LVL492:
 3967 0012 1380     		strh	r3, [r2]	@ movhi
 3968              	.LVL493:
 3969              	.LBB63:
 3970              	.LBB64:
1800:../src/sam/components/display/ili93xx/ili93xx.c **** 		/** Set Horizontal Address Start Position */
 3971              		.loc 1 1800 0
 3972 0014 314B     		ldr	r3, .L269+16
 3973              	.LVL494:
 3974 0016 1B78     		ldrb	r3, [r3]	@ zero_extendqisi2
 3975 0018 012B     		cmp	r3, #1
 3976 001a 22D1     		bne	.L266
1802:../src/sam/components/display/ili93xx/ili93xx.c **** 				(uint16_t)limit_start_x);
 3977              		.loc 1 1802 0
 3978 001c 2546     		mov	r5, r4
 3979 001e 2188     		ldrh	r1, [r4]
 3980 0020 89B2     		uxth	r1, r1
 3981 0022 5020     		movs	r0, #80
 3982 0024 FFF7FEFF 		bl	ili93xx_write_register_word
 3983              	.LVL495:
1807:../src/sam/components/display/ili93xx/ili93xx.c **** 					(uint16_t)(limit_end_x));
 3984              		.loc 1 1807 0
 3985 0028 2A4B     		ldr	r3, .L269+8
 3986 002a 1988     		ldrh	r1, [r3]
 3987 002c 89B2     		uxth	r1, r1
 3988 002e 5120     		movs	r0, #81
 3989 0030 FFF7FEFF 		bl	ili93xx_write_register_word
 3990              	.LVL496:
1812:../src/sam/components/display/ili93xx/ili93xx.c **** 				(uint16_t)limit_start_y);
 3991              		.loc 1 1812 0
 3992 0034 264C     		ldr	r4, .L269+4
 3993 0036 2188     		ldrh	r1, [r4]
 3994 0038 89B2     		uxth	r1, r1
 3995 003a 5220     		movs	r0, #82
 3996 003c FFF7FEFF 		bl	ili93xx_write_register_word
 3997              	.LVL497:
1816:../src/sam/components/display/ili93xx/ili93xx.c **** 					(uint16_t)(limit_end_y));
 3998              		.loc 1 1816 0
 3999 0040 254B     		ldr	r3, .L269+12
 4000 0042 1988     		ldrh	r1, [r3]
 4001 0044 89B2     		uxth	r1, r1
 4002 0046 5320     		movs	r0, #83
 4003 0048 FFF7FEFF 		bl	ili93xx_write_register_word
 4004              	.LVL498:
1821:../src/sam/components/display/ili93xx/ili93xx.c **** 				limit_start_x);
 4005              		.loc 1 1821 0
 4006 004c 2988     		ldrh	r1, [r5]
 4007 004e 89B2     		uxth	r1, r1
 4008 0050 2020     		movs	r0, #32
 4009 0052 FFF7FEFF 		bl	ili93xx_write_register_word
 4010              	.LVL499:
1823:../src/sam/components/display/ili93xx/ili93xx.c **** 				limit_start_y);
 4011              		.loc 1 1823 0
 4012 0056 2188     		ldrh	r1, [r4]
 4013 0058 89B2     		uxth	r1, r1
 4014 005a 2120     		movs	r0, #33
 4015 005c FFF7FEFF 		bl	ili93xx_write_register_word
 4016              	.LVL500:
 4017 0060 31E0     		b	.L265
 4018              	.LVL501:
 4019              	.L266:
1826:../src/sam/components/display/ili93xx/ili93xx.c **** 
 4020              		.loc 1 1826 0
 4021 0062 022B     		cmp	r3, #2
 4022 0064 2FD1     		bne	.L265
 4023              	.LBB65:
1832:../src/sam/components/display/ili93xx/ili93xx.c **** 			paratable[1] = limit_start_x & 0xFF;
 4024              		.loc 1 1832 0
 4025 0066 194A     		ldr	r2, .L269
 4026 0068 1388     		ldrh	r3, [r2]
 4027 006a 43F30723 		sbfx	r3, r3, #8, #8
 4028 006e 8DF80430 		strb	r3, [sp, #4]
1833:../src/sam/components/display/ili93xx/ili93xx.c **** 			paratable[2] = (limit_end_x >> 8) & 0xFF;
 4029              		.loc 1 1833 0
 4030 0072 1388     		ldrh	r3, [r2]
 4031 0074 8DF80530 		strb	r3, [sp, #5]
1834:../src/sam/components/display/ili93xx/ili93xx.c **** 			paratable[3] = limit_end_x & 0xFF;
 4032              		.loc 1 1834 0
 4033 0078 164A     		ldr	r2, .L269+8
 4034 007a 1388     		ldrh	r3, [r2]
 4035 007c 43F30723 		sbfx	r3, r3, #8, #8
 4036 0080 8DF80630 		strb	r3, [sp, #6]
1835:../src/sam/components/display/ili93xx/ili93xx.c **** 			ili93xx_write_register(ILI9341_CMD_COLUMN_ADDRESS_SET,
 4037              		.loc 1 1835 0
 4038 0084 1388     		ldrh	r3, [r2]
 4039 0086 8DF80730 		strb	r3, [sp, #7]
1836:../src/sam/components/display/ili93xx/ili93xx.c **** 					paratable, 4);
 4040              		.loc 1 1836 0
 4041 008a 0422     		movs	r2, #4
 4042 008c 0DEB0201 		add	r1, sp, r2
 4043 0090 2A20     		movs	r0, #42
 4044 0092 FFF7FEFF 		bl	ili93xx_write_register
 4045              	.LVL502:
1840:../src/sam/components/display/ili93xx/ili93xx.c **** 			paratable[1] = limit_start_y & 0xFF;
 4046              		.loc 1 1840 0
 4047 0096 0E4A     		ldr	r2, .L269+4
 4048 0098 1388     		ldrh	r3, [r2]
 4049 009a 43F30723 		sbfx	r3, r3, #8, #8
 4050 009e 8DF80430 		strb	r3, [sp, #4]
1841:../src/sam/components/display/ili93xx/ili93xx.c **** 			paratable[2] = (limit_end_y >> 8) & 0xFF;
 4051              		.loc 1 1841 0
 4052 00a2 1388     		ldrh	r3, [r2]
 4053 00a4 8DF80530 		strb	r3, [sp, #5]
1842:../src/sam/components/display/ili93xx/ili93xx.c **** 			paratable[3] = limit_end_y & 0xFF;
 4054              		.loc 1 1842 0
 4055 00a8 0B4A     		ldr	r2, .L269+12
 4056 00aa 1388     		ldrh	r3, [r2]
 4057 00ac 43F30723 		sbfx	r3, r3, #8, #8
 4058 00b0 8DF80630 		strb	r3, [sp, #6]
1843:../src/sam/components/display/ili93xx/ili93xx.c **** 			ili93xx_write_register(ILI9341_CMD_PAGE_ADDRESS_SET,
 4059              		.loc 1 1843 0
 4060 00b4 1388     		ldrh	r3, [r2]
 4061 00b6 8DF80730 		strb	r3, [sp, #7]
1844:../src/sam/components/display/ili93xx/ili93xx.c **** 						   paratable, 4);
 4062              		.loc 1 1844 0
 4063 00ba 0422     		movs	r2, #4
 4064 00bc 0DEB0201 		add	r1, sp, r2
 4065 00c0 2B20     		movs	r0, #43
 4066 00c2 FFF7FEFF 		bl	ili93xx_write_register
 4067              	.LVL503:
 4068              	.L265:
 4069              	.LBE65:
 4070              	.LBE64:
 4071              	.LBE63:
1909:../src/sam/components/display/ili93xx/ili93xx.c **** 
1910:../src/sam/components/display/ili93xx/ili93xx.c **** 	ili93xx_send_draw_limits(true);
1911:../src/sam/components/display/ili93xx/ili93xx.c **** }
 4072              		.loc 1 1911 0
 4073 00c6 03B0     		add	sp, sp, #12
 4074              		.cfi_def_cfa_offset 12
 4075              		@ sp needed
 4076 00c8 30BD     		pop	{r4, r5, pc}
 4077              	.L270:
 4078 00ca 00BF     		.align	2
 4079              	.L269:
 4080 00cc 00000000 		.word	.LANCHOR5
 4081 00d0 00000000 		.word	.LANCHOR6
 4082 00d4 00000000 		.word	.LANCHOR7
 4083 00d8 00000000 		.word	.LANCHOR8
 4084 00dc 00000000 		.word	.LANCHOR2
 4085              		.cfi_endproc
 4086              	.LFE218:
 4088              		.section	.text.ili93xx_read_gram,"ax",%progbits
 4089              		.align	2
 4090              		.global	ili93xx_read_gram
 4091              		.thumb
 4092              		.thumb_func
 4094              	ili93xx_read_gram:
 4095              	.LFB219:
1912:../src/sam/components/display/ili93xx/ili93xx.c **** 
1913:../src/sam/components/display/ili93xx/ili93xx.c **** /**
1914:../src/sam/components/display/ili93xx/ili93xx.c ****  * \brief Read a single color from the graphical memory
1915:../src/sam/components/display/ili93xx/ili93xx.c ****  *
1916:../src/sam/components/display/ili93xx/ili93xx.c ****  * Use this function to read a color from the graphical memory of the
1917:../src/sam/components/display/ili93xx/ili93xx.c ****  * controller.
1918:../src/sam/components/display/ili93xx/ili93xx.c ****  *
1919:../src/sam/components/display/ili93xx/ili93xx.c ****  * \retval ili93xx_color_t The read color pixel
1920:../src/sam/components/display/ili93xx/ili93xx.c ****  */
1921:../src/sam/components/display/ili93xx/ili93xx.c **** ili93xx_color_t ili93xx_read_gram(void)
1922:../src/sam/components/display/ili93xx/ili93xx.c **** {
 4096              		.loc 1 1922 0
 4097              		.cfi_startproc
 4098              		@ args = 0, pretend = 0, frame = 0
 4099              		@ frame_needed = 0, uses_anonymous_args = 0
 4100 0000 38B5     		push	{r3, r4, r5, lr}
 4101              		.cfi_def_cfa_offset 16
 4102              		.cfi_offset 3, -16
 4103              		.cfi_offset 4, -12
 4104              		.cfi_offset 5, -8
 4105              		.cfi_offset 14, -4
1923:../src/sam/components/display/ili93xx/ili93xx.c **** 	uint8_t value[3];
1924:../src/sam/components/display/ili93xx/ili93xx.c **** 	ili93xx_color_t color;
1925:../src/sam/components/display/ili93xx/ili93xx.c **** 
1926:../src/sam/components/display/ili93xx/ili93xx.c **** 	if (g_uc_device_type == DEVICE_TYPE_ILI9325) {
 4106              		.loc 1 1926 0
 4107 0002 1B4B     		ldr	r3, .L275
 4108 0004 1B78     		ldrb	r3, [r3]	@ zero_extendqisi2
 4109 0006 012B     		cmp	r3, #1
 4110 0008 19D1     		bne	.L272
 4111              	.LBB66:
1927:../src/sam/components/display/ili93xx/ili93xx.c **** 		LCD_IR(0);
 4112              		.loc 1 1927 0
 4113 000a 0020     		movs	r0, #0
 4114 000c FFF7FEFF 		bl	LCD_IR
 4115              	.LVL504:
1928:../src/sam/components/display/ili93xx/ili93xx.c **** 		/** Write Data to GRAM (R22h) */
1929:../src/sam/components/display/ili93xx/ili93xx.c **** 		LCD_IR(ILI9325_GRAM_DATA_REG);
 4116              		.loc 1 1929 0
 4117 0010 2220     		movs	r0, #34
 4118 0012 FFF7FEFF 		bl	LCD_IR
 4119              	.LVL505:
1930:../src/sam/components/display/ili93xx/ili93xx.c **** 		/** two dummy read */
1931:../src/sam/components/display/ili93xx/ili93xx.c **** 		value[0] = LCD_RD();
 4120              		.loc 1 1931 0
 4121 0016 FFF7FEFF 		bl	LCD_RD
 4122              	.LVL506:
1932:../src/sam/components/display/ili93xx/ili93xx.c **** 		value[1] = LCD_RD();
 4123              		.loc 1 1932 0
 4124 001a FFF7FEFF 		bl	LCD_RD
 4125              	.LVL507:
1933:../src/sam/components/display/ili93xx/ili93xx.c **** 		/** data upper byte */
1934:../src/sam/components/display/ili93xx/ili93xx.c **** 		value[0] = LCD_RD();
 4126              		.loc 1 1934 0
 4127 001e FFF7FEFF 		bl	LCD_RD
 4128              	.LVL508:
 4129 0022 C4B2     		uxtb	r4, r0
1935:../src/sam/components/display/ili93xx/ili93xx.c **** 		/** data lower byte */
1936:../src/sam/components/display/ili93xx/ili93xx.c **** 		value[1] = LCD_RD();
 4130              		.loc 1 1936 0
 4131 0024 FFF7FEFF 		bl	LCD_RD
 4132              	.LVL509:
 4133 0028 C0B2     		uxtb	r0, r0
1937:../src/sam/components/display/ili93xx/ili93xx.c **** 
1938:../src/sam/components/display/ili93xx/ili93xx.c **** 		/** Convert RGB565 to RGB888 */
1939:../src/sam/components/display/ili93xx/ili93xx.c **** 		/** For BGR format */
1940:../src/sam/components/display/ili93xx/ili93xx.c **** 		color = ((value[0] & 0xF8)) |
1941:../src/sam/components/display/ili93xx/ili93xx.c **** 				((value[0] & 0x07) << 13) | ((value[1] & 0xE0) << 5) |
 4134              		.loc 1 1941 0
 4135 002a 4001     		lsls	r0, r0, #5
1940:../src/sam/components/display/ili93xx/ili93xx.c **** 				((value[0] & 0x07) << 13) | ((value[1] & 0xE0) << 5) |
 4136              		.loc 1 1940 0
 4137 002c 04F0F803 		and	r3, r4, #248
 4138 0030 43EA4433 		orr	r3, r3, r4, lsl #13
 4139 0034 00F4E050 		and	r0, r0, #7168
 4140 0038 1843     		orrs	r0, r0, r3
 4141 003a 80B2     		uxth	r0, r0
 4142              	.LVL510:
 4143              	.LBE66:
 4144 003c 38BD     		pop	{r3, r4, r5, pc}
 4145              	.LVL511:
 4146              	.L272:
1942:../src/sam/components/display/ili93xx/ili93xx.c **** 				((value[1] & 0x1F) << 19);
1943:../src/sam/components/display/ili93xx/ili93xx.c **** 	} else if (g_uc_device_type == DEVICE_TYPE_ILI9341) {
 4147              		.loc 1 1943 0
 4148 003e 022B     		cmp	r3, #2
 4149 0040 15D1     		bne	.L273
 4150              	.LBB67:
1944:../src/sam/components/display/ili93xx/ili93xx.c **** 		LCD_IR(0);
 4151              		.loc 1 1944 0
 4152 0042 0020     		movs	r0, #0
 4153 0044 FFF7FEFF 		bl	LCD_IR
 4154              	.LVL512:
1945:../src/sam/components/display/ili93xx/ili93xx.c **** 		/** Write Data to GRAM (R2Eh) */
1946:../src/sam/components/display/ili93xx/ili93xx.c **** 		LCD_IR(ILI9341_CMD_MEMORY_READ);
 4155              		.loc 1 1946 0
 4156 0048 2E20     		movs	r0, #46
 4157 004a FFF7FEFF 		bl	LCD_IR
 4158              	.LVL513:
1947:../src/sam/components/display/ili93xx/ili93xx.c **** 		/** dummy read */
1948:../src/sam/components/display/ili93xx/ili93xx.c **** 		value[0] = LCD_RD();
 4159              		.loc 1 1948 0
 4160 004e FFF7FEFF 		bl	LCD_RD
 4161              	.LVL514:
1949:../src/sam/components/display/ili93xx/ili93xx.c **** 		/** the highest byte - R byte*/
1950:../src/sam/components/display/ili93xx/ili93xx.c **** 		value[0] = LCD_RD();
 4162              		.loc 1 1950 0
 4163 0052 FFF7FEFF 		bl	LCD_RD
 4164              	.LVL515:
 4165 0056 C5B2     		uxtb	r5, r0
1951:../src/sam/components/display/ili93xx/ili93xx.c **** 		/** the middle byte - G byte*/
1952:../src/sam/components/display/ili93xx/ili93xx.c **** 		value[1] = LCD_RD();
 4166              		.loc 1 1952 0
 4167 0058 FFF7FEFF 		bl	LCD_RD
 4168              	.LVL516:
 4169 005c C4B2     		uxtb	r4, r0
1953:../src/sam/components/display/ili93xx/ili93xx.c **** 		/** the lowest byte - B byte*/
1954:../src/sam/components/display/ili93xx/ili93xx.c **** 		value[2] = LCD_RD();
 4170              		.loc 1 1954 0
 4171 005e FFF7FEFF 		bl	LCD_RD
 4172              	.LVL517:
 4173 0062 C0B2     		uxtb	r0, r0
1955:../src/sam/components/display/ili93xx/ili93xx.c **** 		/** combine R, G, B byte to a color value */
1956:../src/sam/components/display/ili93xx/ili93xx.c **** 		color = (value[0] << 16) | (value[1] << 8) | value[2];
 4174              		.loc 1 1956 0
 4175 0064 2402     		lsls	r4, r4, #8
 4176 0066 44EA0544 		orr	r4, r4, r5, lsl #16
 4177 006a 2043     		orrs	r0, r0, r4
 4178 006c 80B2     		uxth	r0, r0
 4179              	.LVL518:
 4180              	.L273:
 4181              	.LBE67:
1957:../src/sam/components/display/ili93xx/ili93xx.c **** 	}
1958:../src/sam/components/display/ili93xx/ili93xx.c **** 	return color;
1959:../src/sam/components/display/ili93xx/ili93xx.c **** }
 4182              		.loc 1 1959 0
 4183 006e 38BD     		pop	{r3, r4, r5, pc}
 4184              	.L276:
 4185              		.align	2
 4186              	.L275:
 4187 0070 00000000 		.word	.LANCHOR2
 4188              		.cfi_endproc
 4189              	.LFE219:
 4191              		.section	.text.ili93xx_write_gram,"ax",%progbits
 4192              		.align	2
 4193              		.global	ili93xx_write_gram
 4194              		.thumb
 4195              		.thumb_func
 4197              	ili93xx_write_gram:
 4198              	.LFB220:
1960:../src/sam/components/display/ili93xx/ili93xx.c **** 
1961:../src/sam/components/display/ili93xx/ili93xx.c **** /**
1962:../src/sam/components/display/ili93xx/ili93xx.c ****  * \brief Write the graphical memory with a single color pixel
1963:../src/sam/components/display/ili93xx/ili93xx.c ****  *
1964:../src/sam/components/display/ili93xx/ili93xx.c ****  * Use this function to write a single color pixel to the controller memory.
1965:../src/sam/components/display/ili93xx/ili93xx.c ****  *
1966:../src/sam/components/display/ili93xx/ili93xx.c ****  * \param color The color pixel to write to the screen
1967:../src/sam/components/display/ili93xx/ili93xx.c ****  */
1968:../src/sam/components/display/ili93xx/ili93xx.c **** void ili93xx_write_gram(ili93xx_color_t color)
1969:../src/sam/components/display/ili93xx/ili93xx.c **** {
 4199              		.loc 1 1969 0
 4200              		.cfi_startproc
 4201              		@ args = 0, pretend = 0, frame = 0
 4202              		@ frame_needed = 0, uses_anonymous_args = 0
 4203              	.LVL519:
 4204 0000 10B5     		push	{r4, lr}
 4205              		.cfi_def_cfa_offset 8
 4206              		.cfi_offset 4, -8
 4207              		.cfi_offset 14, -4
 4208 0002 0446     		mov	r4, r0
1970:../src/sam/components/display/ili93xx/ili93xx.c **** 	if (g_uc_device_type == DEVICE_TYPE_ILI9325) {
 4209              		.loc 1 1970 0
 4210 0004 0F4B     		ldr	r3, .L281
 4211 0006 1B78     		ldrb	r3, [r3]	@ zero_extendqisi2
 4212 0008 012B     		cmp	r3, #1
 4213 000a 06D1     		bne	.L278
 4214              	.LBB68:
1971:../src/sam/components/display/ili93xx/ili93xx.c **** 		LCD_IR(0);
 4215              		.loc 1 1971 0
 4216 000c 0020     		movs	r0, #0
 4217              	.LVL520:
 4218 000e FFF7FEFF 		bl	LCD_IR
 4219              	.LVL521:
1972:../src/sam/components/display/ili93xx/ili93xx.c **** 		/** Write Data to GRAM (R22h) */
1973:../src/sam/components/display/ili93xx/ili93xx.c **** 		LCD_IR(ILI9325_GRAM_DATA_REG);
 4220              		.loc 1 1973 0
 4221 0012 2220     		movs	r0, #34
 4222 0014 FFF7FEFF 		bl	LCD_IR
 4223              	.LVL522:
 4224              	.LBE68:
 4225 0018 0AE0     		b	.L279
 4226              	.LVL523:
 4227              	.L278:
1974:../src/sam/components/display/ili93xx/ili93xx.c **** 	} else if (g_uc_device_type == DEVICE_TYPE_ILI9341) {
 4228              		.loc 1 1974 0
 4229 001a 022B     		cmp	r3, #2
 4230 001c 08D1     		bne	.L279
 4231              	.LBB69:
1975:../src/sam/components/display/ili93xx/ili93xx.c **** 		/** memory write command (R2Ch)*/
1976:../src/sam/components/display/ili93xx/ili93xx.c **** 		LCD_IR(ILI9341_CMD_MEMORY_WRITE);
 4232              		.loc 1 1976 0
 4233 001e 2C20     		movs	r0, #44
 4234              	.LVL524:
 4235 0020 FFF7FEFF 		bl	LCD_IR
 4236              	.LVL525:
1977:../src/sam/components/display/ili93xx/ili93xx.c **** 		LCD_IR(0);
 4237              		.loc 1 1977 0
 4238 0024 0020     		movs	r0, #0
 4239 0026 FFF7FEFF 		bl	LCD_IR
 4240              	.LVL526:
1978:../src/sam/components/display/ili93xx/ili93xx.c **** 		LCD_IR(ILI9341_CMD_WRITE_MEMORY_CONTINUE);
 4241              		.loc 1 1978 0
 4242 002a 3C20     		movs	r0, #60
 4243 002c FFF7FEFF 		bl	LCD_IR
 4244              	.LVL527:
 4245              	.L279:
 4246              	.LBE69:
1979:../src/sam/components/display/ili93xx/ili93xx.c **** 	}
1980:../src/sam/components/display/ili93xx/ili93xx.c **** 	LCD_WD((color >> 16) & 0xFF);
 4247              		.loc 1 1980 0
 4248 0030 0020     		movs	r0, #0
 4249 0032 FFF7FEFF 		bl	LCD_WD
 4250              	.LVL528:
1981:../src/sam/components/display/ili93xx/ili93xx.c **** 	LCD_WD((color >> 8) & 0xFF);
 4251              		.loc 1 1981 0
 4252 0036 200A     		lsrs	r0, r4, #8
 4253 0038 FFF7FEFF 		bl	LCD_WD
 4254              	.LVL529:
1982:../src/sam/components/display/ili93xx/ili93xx.c **** 	LCD_WD(color & 0xFF);
 4255              		.loc 1 1982 0
 4256 003c E0B2     		uxtb	r0, r4
 4257 003e FFF7FEFF 		bl	LCD_WD
 4258              	.LVL530:
 4259 0042 10BD     		pop	{r4, pc}
 4260              	.L282:
 4261              		.align	2
 4262              	.L281:
 4263 0044 00000000 		.word	.LANCHOR2
 4264              		.cfi_endproc
 4265              	.LFE220:
 4267              		.section	.text.ili93xx_copy_pixels_to_screen,"ax",%progbits
 4268              		.align	2
 4269              		.global	ili93xx_copy_pixels_to_screen
 4270              		.thumb
 4271              		.thumb_func
 4273              	ili93xx_copy_pixels_to_screen:
 4274              	.LFB221:
1983:../src/sam/components/display/ili93xx/ili93xx.c **** }
1984:../src/sam/components/display/ili93xx/ili93xx.c **** 
1985:../src/sam/components/display/ili93xx/ili93xx.c **** /**
1986:../src/sam/components/display/ili93xx/ili93xx.c ****  * \brief Copy pixels from SRAM to the screen
1987:../src/sam/components/display/ili93xx/ili93xx.c ****  *
1988:../src/sam/components/display/ili93xx/ili93xx.c ****  * Used to copy a large quantitative of data to the screen in one go.
1989:../src/sam/components/display/ili93xx/ili93xx.c ****  *
1990:../src/sam/components/display/ili93xx/ili93xx.c ****  * \param pixels Pointer to the pixel data
1991:../src/sam/components/display/ili93xx/ili93xx.c ****  * \param count Number of pixels to copy to the screen
1992:../src/sam/components/display/ili93xx/ili93xx.c ****  */
1993:../src/sam/components/display/ili93xx/ili93xx.c **** void ili93xx_copy_pixels_to_screen(const ili93xx_color_t *pixels,
1994:../src/sam/components/display/ili93xx/ili93xx.c **** 		uint32_t count)
1995:../src/sam/components/display/ili93xx/ili93xx.c **** {
 4275              		.loc 1 1995 0
 4276              		.cfi_startproc
 4277              		@ args = 0, pretend = 0, frame = 0
 4278              		@ frame_needed = 0, uses_anonymous_args = 0
 4279              	.LVL531:
 4280 0000 70B5     		push	{r4, r5, r6, lr}
 4281              		.cfi_def_cfa_offset 16
 4282              		.cfi_offset 4, -16
 4283              		.cfi_offset 5, -12
 4284              		.cfi_offset 6, -8
 4285              		.cfi_offset 14, -4
 4286 0002 0546     		mov	r5, r0
 4287 0004 0C46     		mov	r4, r1
1996:../src/sam/components/display/ili93xx/ili93xx.c **** 	/** Sanity check to make sure that the pixel count is not zero */
1997:../src/sam/components/display/ili93xx/ili93xx.c **** 	Assert(count > 0);
1998:../src/sam/components/display/ili93xx/ili93xx.c **** 
1999:../src/sam/components/display/ili93xx/ili93xx.c **** 	if (g_uc_device_type == DEVICE_TYPE_ILI9325) {
 4288              		.loc 1 1999 0
 4289 0006 144B     		ldr	r3, .L289
 4290 0008 1B78     		ldrb	r3, [r3]	@ zero_extendqisi2
 4291 000a 012B     		cmp	r3, #1
 4292 000c 06D1     		bne	.L284
 4293              	.LBB70:
2000:../src/sam/components/display/ili93xx/ili93xx.c **** 		LCD_IR(0);
 4294              		.loc 1 2000 0
 4295 000e 0020     		movs	r0, #0
 4296              	.LVL532:
 4297 0010 FFF7FEFF 		bl	LCD_IR
 4298              	.LVL533:
2001:../src/sam/components/display/ili93xx/ili93xx.c **** 		LCD_IR(ILI9325_GRAM_DATA_REG);
 4299              		.loc 1 2001 0
 4300 0014 2220     		movs	r0, #34
 4301 0016 FFF7FEFF 		bl	LCD_IR
 4302              	.LVL534:
 4303              	.LBE70:
 4304 001a 18E0     		b	.L286
 4305              	.LVL535:
 4306              	.L284:
2002:../src/sam/components/display/ili93xx/ili93xx.c **** 	} else if (g_uc_device_type == DEVICE_TYPE_ILI9341) {
 4307              		.loc 1 2002 0
 4308 001c 022B     		cmp	r3, #2
 4309 001e 16D1     		bne	.L286
 4310              	.LBB71:
2003:../src/sam/components/display/ili93xx/ili93xx.c **** 		LCD_IR(ILI9341_CMD_MEMORY_WRITE);
 4311              		.loc 1 2003 0
 4312 0020 2C20     		movs	r0, #44
 4313              	.LVL536:
 4314 0022 FFF7FEFF 		bl	LCD_IR
 4315              	.LVL537:
2004:../src/sam/components/display/ili93xx/ili93xx.c **** 		LCD_IR(0);
 4316              		.loc 1 2004 0
 4317 0026 0020     		movs	r0, #0
 4318 0028 FFF7FEFF 		bl	LCD_IR
 4319              	.LVL538:
2005:../src/sam/components/display/ili93xx/ili93xx.c **** 		LCD_IR(ILI9341_CMD_WRITE_MEMORY_CONTINUE);
 4320              		.loc 1 2005 0
 4321 002c 3C20     		movs	r0, #60
 4322 002e FFF7FEFF 		bl	LCD_IR
 4323              	.LVL539:
 4324 0032 0CE0     		b	.L286
 4325              	.LVL540:
 4326              	.L287:
 4327              	.LBE71:
 4328              	.LBB72:
2006:../src/sam/components/display/ili93xx/ili93xx.c **** 	}
2007:../src/sam/components/display/ili93xx/ili93xx.c **** 
2008:../src/sam/components/display/ili93xx/ili93xx.c **** 	while (count--) {
2009:../src/sam/components/display/ili93xx/ili93xx.c **** 		LCD_WD((*pixels >> 16) & 0xFF);
 4329              		.loc 1 2009 0
 4330 0034 0020     		movs	r0, #0
 4331 0036 FFF7FEFF 		bl	LCD_WD
 4332              	.LVL541:
2010:../src/sam/components/display/ili93xx/ili93xx.c **** 		LCD_WD((*pixels >> 8) & 0xFF);
 4333              		.loc 1 2010 0
 4334 003a 2888     		ldrh	r0, [r5]
 4335 003c 000A     		lsrs	r0, r0, #8
 4336 003e FFF7FEFF 		bl	LCD_WD
 4337              	.LVL542:
2011:../src/sam/components/display/ili93xx/ili93xx.c **** 		LCD_WD(*pixels & 0xFF);
 4338              		.loc 1 2011 0
 4339 0042 35F8020B 		ldrh	r0, [r5], #2
 4340              	.LVL543:
 4341 0046 C0B2     		uxtb	r0, r0
 4342 0048 FFF7FEFF 		bl	LCD_WD
 4343              	.LVL544:
 4344              	.LBE72:
2008:../src/sam/components/display/ili93xx/ili93xx.c **** 		LCD_WD((*pixels >> 16) & 0xFF);
 4345              		.loc 1 2008 0
 4346 004c 3446     		mov	r4, r6
 4347              	.LVL545:
 4348              	.L286:
 4349 004e 661E     		subs	r6, r4, #1
 4350              	.LVL546:
 4351 0050 002C     		cmp	r4, #0
 4352 0052 EFD1     		bne	.L287
2012:../src/sam/components/display/ili93xx/ili93xx.c **** 		pixels++;
2013:../src/sam/components/display/ili93xx/ili93xx.c **** 	}
2014:../src/sam/components/display/ili93xx/ili93xx.c **** }
 4353              		.loc 1 2014 0
 4354 0054 70BD     		pop	{r4, r5, r6, pc}
 4355              	.LVL547:
 4356              	.L290:
 4357 0056 00BF     		.align	2
 4358              	.L289:
 4359 0058 00000000 		.word	.LANCHOR2
 4360              		.cfi_endproc
 4361              	.LFE221:
 4363              		.section	.text.ili93xx_copy_raw_pixel_24bits_to_screen,"ax",%progbits
 4364              		.align	2
 4365              		.global	ili93xx_copy_raw_pixel_24bits_to_screen
 4366              		.thumb
 4367              		.thumb_func
 4369              	ili93xx_copy_raw_pixel_24bits_to_screen:
 4370              	.LFB222:
2015:../src/sam/components/display/ili93xx/ili93xx.c **** 
2016:../src/sam/components/display/ili93xx/ili93xx.c **** /**
2017:../src/sam/components/display/ili93xx/ili93xx.c ****  * \brief Copy pixels from SRAM to the screen
2018:../src/sam/components/display/ili93xx/ili93xx.c ****  *
2019:../src/sam/components/display/ili93xx/ili93xx.c ****  * Used to copy a large quantitative of data to the screen in one go.
2020:../src/sam/components/display/ili93xx/ili93xx.c ****  *
2021:../src/sam/components/display/ili93xx/ili93xx.c ****  * \param pixels Pointer to the pixel data
2022:../src/sam/components/display/ili93xx/ili93xx.c ****  * \param count Number of pixels to copy to the screen
2023:../src/sam/components/display/ili93xx/ili93xx.c ****  */
2024:../src/sam/components/display/ili93xx/ili93xx.c **** void ili93xx_copy_raw_pixel_24bits_to_screen(const uint8_t *raw_pixels,
2025:../src/sam/components/display/ili93xx/ili93xx.c **** 		uint32_t count)
2026:../src/sam/components/display/ili93xx/ili93xx.c **** {
 4371              		.loc 1 2026 0
 4372              		.cfi_startproc
 4373              		@ args = 0, pretend = 0, frame = 0
 4374              		@ frame_needed = 0, uses_anonymous_args = 0
 4375              	.LVL548:
 4376 0000 70B5     		push	{r4, r5, r6, lr}
 4377              		.cfi_def_cfa_offset 16
 4378              		.cfi_offset 4, -16
 4379              		.cfi_offset 5, -12
 4380              		.cfi_offset 6, -8
 4381              		.cfi_offset 14, -4
 4382 0002 0546     		mov	r5, r0
 4383 0004 0C46     		mov	r4, r1
2027:../src/sam/components/display/ili93xx/ili93xx.c **** 	ili93xx_color_t pixels;
2028:../src/sam/components/display/ili93xx/ili93xx.c **** 
2029:../src/sam/components/display/ili93xx/ili93xx.c **** 	/** Sanity check to make sure that the pixel count is not zero */
2030:../src/sam/components/display/ili93xx/ili93xx.c **** 	Assert(count > 0);
2031:../src/sam/components/display/ili93xx/ili93xx.c **** 
2032:../src/sam/components/display/ili93xx/ili93xx.c **** 	if (g_uc_device_type == DEVICE_TYPE_ILI9325) {
 4384              		.loc 1 2032 0
 4385 0006 154B     		ldr	r3, .L297
 4386 0008 1B78     		ldrb	r3, [r3]	@ zero_extendqisi2
 4387 000a 012B     		cmp	r3, #1
 4388 000c 06D1     		bne	.L292
 4389              	.LBB73:
2033:../src/sam/components/display/ili93xx/ili93xx.c **** 		LCD_IR(0);
 4390              		.loc 1 2033 0
 4391 000e 0020     		movs	r0, #0
 4392              	.LVL549:
 4393 0010 FFF7FEFF 		bl	LCD_IR
 4394              	.LVL550:
2034:../src/sam/components/display/ili93xx/ili93xx.c **** 		LCD_IR(ILI9325_GRAM_DATA_REG);
 4395              		.loc 1 2034 0
 4396 0014 2220     		movs	r0, #34
 4397 0016 FFF7FEFF 		bl	LCD_IR
 4398              	.LVL551:
 4399              	.LBE73:
 4400 001a 1AE0     		b	.L294
 4401              	.LVL552:
 4402              	.L292:
2035:../src/sam/components/display/ili93xx/ili93xx.c **** 	} else if (g_uc_device_type == DEVICE_TYPE_ILI9341) {
 4403              		.loc 1 2035 0
 4404 001c 022B     		cmp	r3, #2
 4405 001e 18D1     		bne	.L294
 4406              	.LBB74:
2036:../src/sam/components/display/ili93xx/ili93xx.c **** 		LCD_IR(ILI9341_CMD_MEMORY_WRITE);
 4407              		.loc 1 2036 0
 4408 0020 2C20     		movs	r0, #44
 4409              	.LVL553:
 4410 0022 FFF7FEFF 		bl	LCD_IR
 4411              	.LVL554:
2037:../src/sam/components/display/ili93xx/ili93xx.c **** 		LCD_IR(0);
 4412              		.loc 1 2037 0
 4413 0026 0020     		movs	r0, #0
 4414 0028 FFF7FEFF 		bl	LCD_IR
 4415              	.LVL555:
2038:../src/sam/components/display/ili93xx/ili93xx.c **** 		LCD_IR(ILI9341_CMD_WRITE_MEMORY_CONTINUE);
 4416              		.loc 1 2038 0
 4417 002c 3C20     		movs	r0, #60
 4418 002e FFF7FEFF 		bl	LCD_IR
 4419              	.LVL556:
 4420 0032 0EE0     		b	.L294
 4421              	.LVL557:
 4422              	.L295:
 4423              	.LBE74:
 4424              	.LBB75:
2039:../src/sam/components/display/ili93xx/ili93xx.c **** 	}
2040:../src/sam/components/display/ili93xx/ili93xx.c **** 	while (count--) {
2041:../src/sam/components/display/ili93xx/ili93xx.c **** 		pixels = (*raw_pixels)  |
 4425              		.loc 1 2041 0
 4426 0034 2B78     		ldrb	r3, [r5]	@ zero_extendqisi2
2042:../src/sam/components/display/ili93xx/ili93xx.c **** 				(*(raw_pixels +1)) << 8 |
 4427              		.loc 1 2042 0
 4428 0036 6C78     		ldrb	r4, [r5, #1]	@ zero_extendqisi2
2041:../src/sam/components/display/ili93xx/ili93xx.c **** 				(*(raw_pixels +1)) << 8 |
 4429              		.loc 1 2041 0
 4430 0038 43EA0424 		orr	r4, r3, r4, lsl #8
 4431              	.LVL558:
2043:../src/sam/components/display/ili93xx/ili93xx.c **** 				(*(raw_pixels + 2)) << 16;
2044:../src/sam/components/display/ili93xx/ili93xx.c **** 		LCD_WD((pixels >> 16) & 0xFF);
 4432              		.loc 1 2044 0
 4433 003c 0020     		movs	r0, #0
 4434 003e FFF7FEFF 		bl	LCD_WD
 4435              	.LVL559:
2045:../src/sam/components/display/ili93xx/ili93xx.c **** 		LCD_WD((pixels >> 8) & 0xFF);
 4436              		.loc 1 2045 0
 4437 0042 200A     		lsrs	r0, r4, #8
 4438 0044 FFF7FEFF 		bl	LCD_WD
 4439              	.LVL560:
2046:../src/sam/components/display/ili93xx/ili93xx.c **** 		LCD_WD(pixels & 0xFF);
 4440              		.loc 1 2046 0
 4441 0048 E0B2     		uxtb	r0, r4
 4442 004a FFF7FEFF 		bl	LCD_WD
 4443              	.LVL561:
2047:../src/sam/components/display/ili93xx/ili93xx.c **** 		raw_pixels += 3;
 4444              		.loc 1 2047 0
 4445 004e 0335     		adds	r5, r5, #3
 4446              	.LVL562:
 4447              	.LBE75:
2040:../src/sam/components/display/ili93xx/ili93xx.c **** 		pixels = (*raw_pixels)  |
 4448              		.loc 1 2040 0
 4449 0050 3446     		mov	r4, r6
 4450              	.LVL563:
 4451              	.L294:
 4452 0052 661E     		subs	r6, r4, #1
 4453              	.LVL564:
 4454 0054 002C     		cmp	r4, #0
 4455 0056 EDD1     		bne	.L295
2048:../src/sam/components/display/ili93xx/ili93xx.c **** 	}
2049:../src/sam/components/display/ili93xx/ili93xx.c **** 
2050:../src/sam/components/display/ili93xx/ili93xx.c **** }
 4456              		.loc 1 2050 0
 4457 0058 70BD     		pop	{r4, r5, r6, pc}
 4458              	.LVL565:
 4459              	.L298:
 4460 005a 00BF     		.align	2
 4461              	.L297:
 4462 005c 00000000 		.word	.LANCHOR2
 4463              		.cfi_endproc
 4464              	.LFE222:
 4466              		.section	.text.ili93xx_duplicate_pixel,"ax",%progbits
 4467              		.align	2
 4468              		.global	ili93xx_duplicate_pixel
 4469              		.thumb
 4470              		.thumb_func
 4472              	ili93xx_duplicate_pixel:
 4473              	.LFB223:
2051:../src/sam/components/display/ili93xx/ili93xx.c **** 
2052:../src/sam/components/display/ili93xx/ili93xx.c **** /**
2053:../src/sam/components/display/ili93xx/ili93xx.c ****  * \brief Set a given number of pixels to the same color
2054:../src/sam/components/display/ili93xx/ili93xx.c ****  *
2055:../src/sam/components/display/ili93xx/ili93xx.c ****  * Use this function to write a certain number of pixels to the same color
2056:../src/sam/components/display/ili93xx/ili93xx.c ****  * within a set limit.
2057:../src/sam/components/display/ili93xx/ili93xx.c ****  *
2058:../src/sam/components/display/ili93xx/ili93xx.c ****  * \param color The color to write to the display
2059:../src/sam/components/display/ili93xx/ili93xx.c ****  * \param count The number of pixels to write with this color
2060:../src/sam/components/display/ili93xx/ili93xx.c ****  */
2061:../src/sam/components/display/ili93xx/ili93xx.c **** void ili93xx_duplicate_pixel(const ili93xx_color_t color, uint32_t count)
2062:../src/sam/components/display/ili93xx/ili93xx.c **** {
 4474              		.loc 1 2062 0
 4475              		.cfi_startproc
 4476              		@ args = 0, pretend = 0, frame = 0
 4477              		@ frame_needed = 0, uses_anonymous_args = 0
 4478              	.LVL566:
 4479 0000 70B5     		push	{r4, r5, r6, lr}
 4480              		.cfi_def_cfa_offset 16
 4481              		.cfi_offset 4, -16
 4482              		.cfi_offset 5, -12
 4483              		.cfi_offset 6, -8
 4484              		.cfi_offset 14, -4
 4485 0002 0546     		mov	r5, r0
 4486 0004 0C46     		mov	r4, r1
2063:../src/sam/components/display/ili93xx/ili93xx.c **** 	/** Sanity check to make sure that the pixel count is not zero */
2064:../src/sam/components/display/ili93xx/ili93xx.c **** 	Assert(count > 0);
2065:../src/sam/components/display/ili93xx/ili93xx.c **** 
2066:../src/sam/components/display/ili93xx/ili93xx.c **** 	if (g_uc_device_type == DEVICE_TYPE_ILI9325) {
 4487              		.loc 1 2066 0
 4488 0006 124B     		ldr	r3, .L305
 4489 0008 1B78     		ldrb	r3, [r3]	@ zero_extendqisi2
 4490 000a 012B     		cmp	r3, #1
 4491 000c 06D1     		bne	.L300
 4492              	.LBB76:
2067:../src/sam/components/display/ili93xx/ili93xx.c **** 		/** Write Data to GRAM (R22h) */
2068:../src/sam/components/display/ili93xx/ili93xx.c **** 		LCD_IR(0);
 4493              		.loc 1 2068 0
 4494 000e 0020     		movs	r0, #0
 4495              	.LVL567:
 4496 0010 FFF7FEFF 		bl	LCD_IR
 4497              	.LVL568:
2069:../src/sam/components/display/ili93xx/ili93xx.c **** 		LCD_IR(ILI9325_GRAM_DATA_REG);
 4498              		.loc 1 2069 0
 4499 0014 2220     		movs	r0, #34
 4500 0016 FFF7FEFF 		bl	LCD_IR
 4501              	.LVL569:
 4502              	.LBE76:
 4503 001a 15E0     		b	.L302
 4504              	.LVL570:
 4505              	.L300:
2070:../src/sam/components/display/ili93xx/ili93xx.c **** 	} else if (g_uc_device_type == DEVICE_TYPE_ILI9341) {
 4506              		.loc 1 2070 0
 4507 001c 022B     		cmp	r3, #2
 4508 001e 13D1     		bne	.L302
 4509              	.LBB77:
2071:../src/sam/components/display/ili93xx/ili93xx.c **** 		LCD_IR(ILI9341_CMD_MEMORY_WRITE);
 4510              		.loc 1 2071 0
 4511 0020 2C20     		movs	r0, #44
 4512              	.LVL571:
 4513 0022 FFF7FEFF 		bl	LCD_IR
 4514              	.LVL572:
2072:../src/sam/components/display/ili93xx/ili93xx.c **** 		LCD_IR(0);
 4515              		.loc 1 2072 0
 4516 0026 0020     		movs	r0, #0
 4517 0028 FFF7FEFF 		bl	LCD_IR
 4518              	.LVL573:
2073:../src/sam/components/display/ili93xx/ili93xx.c **** 		LCD_IR(ILI9341_CMD_WRITE_MEMORY_CONTINUE);
 4519              		.loc 1 2073 0
 4520 002c 3C20     		movs	r0, #60
 4521 002e FFF7FEFF 		bl	LCD_IR
 4522              	.LVL574:
 4523 0032 09E0     		b	.L302
 4524              	.LVL575:
 4525              	.L303:
 4526              	.LBE77:
 4527              	.LBB78:
2074:../src/sam/components/display/ili93xx/ili93xx.c **** 	}
2075:../src/sam/components/display/ili93xx/ili93xx.c **** 
2076:../src/sam/components/display/ili93xx/ili93xx.c **** 	while (count--) {
2077:../src/sam/components/display/ili93xx/ili93xx.c **** 		LCD_WD((color >> 16) & 0xFF);
 4528              		.loc 1 2077 0
 4529 0034 0020     		movs	r0, #0
 4530 0036 FFF7FEFF 		bl	LCD_WD
 4531              	.LVL576:
2078:../src/sam/components/display/ili93xx/ili93xx.c **** 		LCD_WD((color >> 8) & 0xFF);
 4532              		.loc 1 2078 0
 4533 003a 280A     		lsrs	r0, r5, #8
 4534 003c FFF7FEFF 		bl	LCD_WD
 4535              	.LVL577:
2079:../src/sam/components/display/ili93xx/ili93xx.c **** 		LCD_WD(color & 0xFF);
 4536              		.loc 1 2079 0
 4537 0040 E8B2     		uxtb	r0, r5
 4538 0042 FFF7FEFF 		bl	LCD_WD
 4539              	.LVL578:
 4540              	.LBE78:
2076:../src/sam/components/display/ili93xx/ili93xx.c **** 		LCD_WD((color >> 16) & 0xFF);
 4541              		.loc 1 2076 0
 4542 0046 3446     		mov	r4, r6
 4543              	.LVL579:
 4544              	.L302:
 4545 0048 661E     		subs	r6, r4, #1
 4546              	.LVL580:
 4547 004a 002C     		cmp	r4, #0
 4548 004c F2D1     		bne	.L303
2080:../src/sam/components/display/ili93xx/ili93xx.c **** 	}
2081:../src/sam/components/display/ili93xx/ili93xx.c **** }
 4549              		.loc 1 2081 0
 4550 004e 70BD     		pop	{r4, r5, r6, pc}
 4551              	.LVL581:
 4552              	.L306:
 4553              		.align	2
 4554              	.L305:
 4555 0050 00000000 		.word	.LANCHOR2
 4556              		.cfi_endproc
 4557              	.LFE223:
 4559              		.section	.text.ili93xx_copy_pixels_from_screen,"ax",%progbits
 4560              		.align	2
 4561              		.global	ili93xx_copy_pixels_from_screen
 4562              		.thumb
 4563              		.thumb_func
 4565              	ili93xx_copy_pixels_from_screen:
 4566              	.LFB224:
2082:../src/sam/components/display/ili93xx/ili93xx.c **** 
2083:../src/sam/components/display/ili93xx/ili93xx.c **** /**
2084:../src/sam/components/display/ili93xx/ili93xx.c ****  * \brief Copy pixels from the screen to a pixel buffer
2085:../src/sam/components/display/ili93xx/ili93xx.c ****  *
2086:../src/sam/components/display/ili93xx/ili93xx.c ****  * Use this function to copy pixels from the display to an internal SRAM buffer.
2087:../src/sam/components/display/ili93xx/ili93xx.c ****  *
2088:../src/sam/components/display/ili93xx/ili93xx.c ****  * \param pixels Pointer to the pixel buffer to read to
2089:../src/sam/components/display/ili93xx/ili93xx.c ****  * \param count Number of pixels to read
2090:../src/sam/components/display/ili93xx/ili93xx.c ****  */
2091:../src/sam/components/display/ili93xx/ili93xx.c **** void ili93xx_copy_pixels_from_screen(ili93xx_color_t *pixels, uint32_t count)
2092:../src/sam/components/display/ili93xx/ili93xx.c **** {
 4567              		.loc 1 2092 0
 4568              		.cfi_startproc
 4569              		@ args = 0, pretend = 0, frame = 0
 4570              		@ frame_needed = 0, uses_anonymous_args = 0
 4571              		@ link register save eliminated.
 4572              	.LVL582:
 4573 0000 7047     		bx	lr
 4574              		.cfi_endproc
 4575              	.LFE224:
 4577 0002 00BF     		.section	.text.ili93xx_set_orientation,"ax",%progbits
 4578              		.align	2
 4579              		.global	ili93xx_set_orientation
 4580              		.thumb
 4581              		.thumb_func
 4583              	ili93xx_set_orientation:
 4584              	.LFB225:
2093:../src/sam/components/display/ili93xx/ili93xx.c **** 	/** Remove warnings */
2094:../src/sam/components/display/ili93xx/ili93xx.c **** 	UNUSED(pixels);
2095:../src/sam/components/display/ili93xx/ili93xx.c **** 	UNUSED(count);
2096:../src/sam/components/display/ili93xx/ili93xx.c **** }
2097:../src/sam/components/display/ili93xx/ili93xx.c **** 
2098:../src/sam/components/display/ili93xx/ili93xx.c **** /**
2099:../src/sam/components/display/ili93xx/ili93xx.c ****  * \brief Sets the orientation of the display data
2100:../src/sam/components/display/ili93xx/ili93xx.c ****  *
2101:../src/sam/components/display/ili93xx/ili93xx.c ****  * Configures the display for a given orientation, including mirroring and/or
2102:../src/sam/components/display/ili93xx/ili93xx.c ****  * screen rotation.
2103:../src/sam/components/display/ili93xx/ili93xx.c ****  *
2104:../src/sam/components/display/ili93xx/ili93xx.c ****  * \param flags Orientation flags to use, see \ref ILI93XX_FLIP_X, \ref ILI93XX_FLIP_Y
2105:../src/sam/components/display/ili93xx/ili93xx.c ****  *        and \ref ILI93XX_SWITCH_XY.
2106:../src/sam/components/display/ili93xx/ili93xx.c ****  */
2107:../src/sam/components/display/ili93xx/ili93xx.c **** void ili93xx_set_orientation(uint8_t flags)
2108:../src/sam/components/display/ili93xx/ili93xx.c **** {
 4585              		.loc 1 2108 0
 4586              		.cfi_startproc
 4587              		@ args = 0, pretend = 0, frame = 8
 4588              		@ frame_needed = 0, uses_anonymous_args = 0
 4589              	.LVL583:
 4590              		.loc 1 2108 0
 4591 0000 00B5     		push	{lr}
 4592              		.cfi_def_cfa_offset 4
 4593              		.cfi_offset 14, -4
 4594 0002 83B0     		sub	sp, sp, #12
 4595              		.cfi_def_cfa_offset 16
 4596              	.LVL584:
2109:../src/sam/components/display/ili93xx/ili93xx.c **** 	uint16_t setting = ILI9325_ENTRY_MODE_TRI | ILI9325_ENTRY_MODE_DFM | ILI9325_ENTRY_MODE_BGR ;
2110:../src/sam/components/display/ili93xx/ili93xx.c **** 
2111:../src/sam/components/display/ili93xx/ili93xx.c **** 	if (g_uc_device_type == DEVICE_TYPE_ILI9325) {
 4597              		.loc 1 2111 0
 4598 0004 1D4B     		ldr	r3, .L319
 4599 0006 1B78     		ldrb	r3, [r3]	@ zero_extendqisi2
 4600 0008 012B     		cmp	r3, #1
 4601 000a 13D1     		bne	.L309
2112:../src/sam/components/display/ili93xx/ili93xx.c **** 		setting |= (flags & ILI93XX_FLIP_X ? ILI9325_ENTRY_MODE_ID(0x01) : 0);
 4602              		.loc 1 2112 0
 4603 000c 10F0010F 		tst	r0, #1
 4604 0010 01D0     		beq	.L316
 4605 0012 1023     		movs	r3, #16
 4606 0014 00E0     		b	.L310
 4607              	.L316:
 4608 0016 0023     		movs	r3, #0
 4609              	.L310:
 4610              		.loc 1 2112 0 is_stmt 0 discriminator 4
 4611 0018 43F45043 		orr	r3, r3, #53248
 4612 001c 9BB2     		uxth	r3, r3
 4613              	.LVL585:
2113:../src/sam/components/display/ili93xx/ili93xx.c **** 		setting |= (flags & ILI93XX_FLIP_Y ? ILI9325_ENTRY_MODE_ID(0x10) : 0);
2114:../src/sam/components/display/ili93xx/ili93xx.c **** 		setting |= (flags & ILI93XX_SWITCH_XY ? ILI9325_ENTRY_MODE_AM : 0);
 4614              		.loc 1 2114 0 is_stmt 1 discriminator 4
 4615 001e 10F0040F 		tst	r0, #4
 4616 0022 01D0     		beq	.L317
 4617              		.loc 1 2114 0 is_stmt 0
 4618 0024 0821     		movs	r1, #8
 4619 0026 00E0     		b	.L311
 4620              	.L317:
 4621 0028 0021     		movs	r1, #0
 4622              	.L311:
 4623              	.LVL586:
2115:../src/sam/components/display/ili93xx/ili93xx.c **** 
2116:../src/sam/components/display/ili93xx/ili93xx.c **** 		ili93xx_write_register_word(ILI9325_ENTRY_MODE, setting);
 4624              		.loc 1 2116 0 is_stmt 1 discriminator 4
 4625 002a 1943     		orrs	r1, r1, r3
 4626              	.LVL587:
 4627 002c 0320     		movs	r0, #3
 4628              	.LVL588:
 4629 002e FFF7FEFF 		bl	ili93xx_write_register_word
 4630              	.LVL589:
 4631 0032 20E0     		b	.L308
 4632              	.LVL590:
 4633              	.L309:
 4634              	.LBB79:
2117:../src/sam/components/display/ili93xx/ili93xx.c **** 	} else {
2118:../src/sam/components/display/ili93xx/ili93xx.c **** 
2119:../src/sam/components/display/ili93xx/ili93xx.c **** 		uint8_t madctl = 0x48;
 4635              		.loc 1 2119 0
 4636 0034 4823     		movs	r3, #72
 4637 0036 8DF80730 		strb	r3, [sp, #7]
2120:../src/sam/components/display/ili93xx/ili93xx.c **** 		
2121:../src/sam/components/display/ili93xx/ili93xx.c **** 		if (flags & ILI93XX_FLIP_X) {
 4638              		.loc 1 2121 0
 4639 003a 10F0010F 		tst	r0, #1
 4640 003e 02D0     		beq	.L313
2122:../src/sam/components/display/ili93xx/ili93xx.c **** 			madctl &= ~(1 << 6);
 4641              		.loc 1 2122 0
 4642 0040 0823     		movs	r3, #8
 4643 0042 8DF80730 		strb	r3, [sp, #7]
 4644              	.L313:
2123:../src/sam/components/display/ili93xx/ili93xx.c **** 		}
2124:../src/sam/components/display/ili93xx/ili93xx.c **** 		
2125:../src/sam/components/display/ili93xx/ili93xx.c **** 		if (flags & ILI93XX_FLIP_Y) {
 4645              		.loc 1 2125 0
 4646 0046 10F0020F 		tst	r0, #2
 4647 004a 05D0     		beq	.L314
2126:../src/sam/components/display/ili93xx/ili93xx.c **** 			madctl |= 1 << 7;
 4648              		.loc 1 2126 0
 4649 004c 9DF80730 		ldrb	r3, [sp, #7]	@ zero_extendqisi2
 4650 0050 63F07F03 		orn	r3, r3, #127
 4651 0054 8DF80730 		strb	r3, [sp, #7]
 4652              	.L314:
2127:../src/sam/components/display/ili93xx/ili93xx.c **** 		}
2128:../src/sam/components/display/ili93xx/ili93xx.c **** 		
2129:../src/sam/components/display/ili93xx/ili93xx.c **** 		if (flags & ILI93XX_SWITCH_XY) {
 4653              		.loc 1 2129 0
 4654 0058 10F0040F 		tst	r0, #4
 4655 005c 05D0     		beq	.L315
2130:../src/sam/components/display/ili93xx/ili93xx.c **** 			madctl |= 1 << 5;
 4656              		.loc 1 2130 0
 4657 005e 9DF80730 		ldrb	r3, [sp, #7]	@ zero_extendqisi2
 4658 0062 43F02003 		orr	r3, r3, #32
 4659 0066 8DF80730 		strb	r3, [sp, #7]
 4660              	.L315:
2131:../src/sam/components/display/ili93xx/ili93xx.c **** 		}
2132:../src/sam/components/display/ili93xx/ili93xx.c **** 		
2133:../src/sam/components/display/ili93xx/ili93xx.c **** 		ili93xx_write_register(ILI9341_CMD_MEMORY_ACCESS_CONTROL, &madctl,1);
 4661              		.loc 1 2133 0
 4662 006a 0122     		movs	r2, #1
 4663 006c 0DF10701 		add	r1, sp, #7
 4664 0070 3620     		movs	r0, #54
 4665              	.LVL591:
 4666 0072 FFF7FEFF 		bl	ili93xx_write_register
 4667              	.LVL592:
 4668              	.L308:
 4669              	.LBE79:
2134:../src/sam/components/display/ili93xx/ili93xx.c **** 	}
2135:../src/sam/components/display/ili93xx/ili93xx.c **** }
 4670              		.loc 1 2135 0
 4671 0076 03B0     		add	sp, sp, #12
 4672              		.cfi_def_cfa_offset 4
 4673              		@ sp needed
 4674 0078 5DF804FB 		ldr	pc, [sp], #4
 4675              	.L320:
 4676              		.align	2
 4677              	.L319:
 4678 007c 00000000 		.word	.LANCHOR2
 4679              		.cfi_endproc
 4680              	.LFE225:
 4682              		.section	.text.ili93xx_get_lcd_type,"ax",%progbits
 4683              		.align	2
 4684              		.global	ili93xx_get_lcd_type
 4685              		.thumb
 4686              		.thumb_func
 4688              	ili93xx_get_lcd_type:
 4689              	.LFB226:
2136:../src/sam/components/display/ili93xx/ili93xx.c **** 
2137:../src/sam/components/display/ili93xx/ili93xx.c **** /**
2138:../src/sam/components/display/ili93xx/ili93xx.c ****  * \brief The SPI_Handler must be called by the SPI Interrupt Service Routine with the
2139:../src/sam/components/display/ili93xx/ili93xx.c ****  * corresponding SPI instance to enable ILI9341 driver support.
2140:../src/sam/components/display/ili93xx/ili93xx.c **** 
2141:../src/sam/components/display/ili93xx/ili93xx.c **** void ili9225_spi_handler(void)
2142:../src/sam/components/display/ili93xx/ili93xx.c **** {
2143:../src/sam/components/display/ili93xx/ili93xx.c ****   uint32_t ul_spi_reg;*/
2144:../src/sam/components/display/ili93xx/ili93xx.c **** 
2145:../src/sam/components/display/ili93xx/ili93xx.c ****   /* Disable interrupts */
2146:../src/sam/components/display/ili93xx/ili93xx.c **** /*  ul_spi_reg = spi_read_interrupt_mask(BOARD_ILI9341_SPI);
2147:../src/sam/components/display/ili93xx/ili93xx.c ****   spi_disable_interrupt(BOARD_ILI9341_SPI, ul_spi_reg);
2148:../src/sam/components/display/ili93xx/ili93xx.c **** 
2149:../src/sam/components/display/ili93xx/ili93xx.c ****   ioport_set_pin_level(LED0_GPIO, IOPORT_PIN_LEVEL_HIGH);*/
2150:../src/sam/components/display/ili93xx/ili93xx.c **** 
2151:../src/sam/components/display/ili93xx/ili93xx.c ****   /* Set the flag to notify the end of transfer */
2152:../src/sam/components/display/ili93xx/ili93xx.c **** /*  g_by_transfend_flag = 1;
2153:../src/sam/components/display/ili93xx/ili93xx.c **** }*/
2154:../src/sam/components/display/ili93xx/ili93xx.c **** 
2155:../src/sam/components/display/ili93xx/ili93xx.c **** uint32_t ili93xx_get_lcd_type(void)
2156:../src/sam/components/display/ili93xx/ili93xx.c **** {
 4690              		.loc 1 2156 0
 4691              		.cfi_startproc
 4692              		@ args = 0, pretend = 0, frame = 0
 4693              		@ frame_needed = 0, uses_anonymous_args = 0
 4694              		@ link register save eliminated.
2157:../src/sam/components/display/ili93xx/ili93xx.c **** 	return g_uc_device_type;
2158:../src/sam/components/display/ili93xx/ili93xx.c **** 
2159:../src/sam/components/display/ili93xx/ili93xx.c **** }
 4695              		.loc 1 2159 0
 4696 0000 014B     		ldr	r3, .L322
 4697 0002 1878     		ldrb	r0, [r3]	@ zero_extendqisi2
 4698 0004 7047     		bx	lr
 4699              	.L323:
 4700 0006 00BF     		.align	2
 4701              	.L322:
 4702 0008 00000000 		.word	.LANCHOR2
 4703              		.cfi_endproc
 4704              	.LFE226:
 4706              		.global	p_uc_charset10x14
 4707              		.global	gfont
 4708              		.section	.bss.limit_end_x,"aw",%nobits
 4709              		.align	1
 4710              		.set	.LANCHOR7,. + 0
 4713              	limit_end_x:
 4714 0000 0000     		.space	2
 4715              		.section	.bss.limit_end_y,"aw",%nobits
 4716              		.align	1
 4717              		.set	.LANCHOR8,. + 0
 4720              	limit_end_y:
 4721 0000 0000     		.space	2
 4722              		.section	.bss.cpu_irq_critical_section_counter,"aw",%nobits
 4723              		.align	2
 4726              	cpu_irq_critical_section_counter:
 4727 0000 00000000 		.space	4
 4728              		.section	.bss.g_ul_pixel_cache,"aw",%nobits
 4729              		.align	2
 4730              		.set	.LANCHOR3,. + 0
 4733              	g_ul_pixel_cache:
 4734 0000 00000000 		.space	480
 4734      00000000 
 4734      00000000 
 4734      00000000 
 4734      00000000 
 4735              		.section	.bss.limit_start_x,"aw",%nobits
 4736              		.align	1
 4737              		.set	.LANCHOR5,. + 0
 4740              	limit_start_x:
 4741 0000 0000     		.space	2
 4742              		.section	.rodata.p_uc_charset10x14,"a",%progbits
 4743              		.align	2
 4744              		.set	.LANCHOR4,. + 0
 4747              	p_uc_charset10x14:
 4748 0000 00       		.byte	0
 4749 0001 00       		.byte	0
 4750 0002 00       		.byte	0
 4751 0003 00       		.byte	0
 4752 0004 00       		.byte	0
 4753 0005 00       		.byte	0
 4754 0006 00       		.byte	0
 4755 0007 00       		.byte	0
 4756 0008 00       		.byte	0
 4757 0009 00       		.byte	0
 4758 000a 00       		.byte	0
 4759 000b 00       		.byte	0
 4760 000c 00       		.byte	0
 4761 000d 00       		.byte	0
 4762 000e 00       		.byte	0
 4763 000f 00       		.byte	0
 4764 0010 00       		.byte	0
 4765 0011 00       		.byte	0
 4766 0012 00       		.byte	0
 4767 0013 00       		.byte	0
 4768 0014 00       		.byte	0
 4769 0015 00       		.byte	0
 4770 0016 00       		.byte	0
 4771 0017 00       		.byte	0
 4772 0018 00       		.byte	0
 4773 0019 00       		.byte	0
 4774 001a 00       		.byte	0
 4775 001b 00       		.byte	0
 4776 001c FF       		.byte	-1
 4777 001d CC       		.byte	-52
 4778 001e FF       		.byte	-1
 4779 001f CC       		.byte	-52
 4780 0020 00       		.byte	0
 4781 0021 00       		.byte	0
 4782 0022 00       		.byte	0
 4783 0023 00       		.byte	0
 4784 0024 00       		.byte	0
 4785 0025 00       		.byte	0
 4786 0026 00       		.byte	0
 4787 0027 00       		.byte	0
 4788 0028 00       		.byte	0
 4789 0029 00       		.byte	0
 4790 002a 00       		.byte	0
 4791 002b 00       		.byte	0
 4792 002c F0       		.byte	-16
 4793 002d 00       		.byte	0
 4794 002e F0       		.byte	-16
 4795 002f 00       		.byte	0
 4796 0030 00       		.byte	0
 4797 0031 00       		.byte	0
 4798 0032 00       		.byte	0
 4799 0033 00       		.byte	0
 4800 0034 F0       		.byte	-16
 4801 0035 00       		.byte	0
 4802 0036 F0       		.byte	-16
 4803 0037 00       		.byte	0
 4804 0038 00       		.byte	0
 4805 0039 00       		.byte	0
 4806 003a 00       		.byte	0
 4807 003b 00       		.byte	0
 4808 003c 0C       		.byte	12
 4809 003d C0       		.byte	-64
 4810 003e 0C       		.byte	12
 4811 003f C0       		.byte	-64
 4812 0040 FF       		.byte	-1
 4813 0041 FC       		.byte	-4
 4814 0042 FF       		.byte	-1
 4815 0043 FC       		.byte	-4
 4816 0044 0C       		.byte	12
 4817 0045 C0       		.byte	-64
 4818 0046 0C       		.byte	12
 4819 0047 C0       		.byte	-64
 4820 0048 FF       		.byte	-1
 4821 0049 FC       		.byte	-4
 4822 004a FF       		.byte	-1
 4823 004b FC       		.byte	-4
 4824 004c 0C       		.byte	12
 4825 004d C0       		.byte	-64
 4826 004e 0C       		.byte	12
 4827 004f C0       		.byte	-64
 4828 0050 0C       		.byte	12
 4829 0051 60       		.byte	96
 4830 0052 1E       		.byte	30
 4831 0053 70       		.byte	112
 4832 0054 3F       		.byte	63
 4833 0055 30       		.byte	48
 4834 0056 33       		.byte	51
 4835 0057 30       		.byte	48
 4836 0058 FF       		.byte	-1
 4837 0059 FC       		.byte	-4
 4838 005a FF       		.byte	-1
 4839 005b FC       		.byte	-4
 4840 005c 33       		.byte	51
 4841 005d 30       		.byte	48
 4842 005e 33       		.byte	51
 4843 005f F0       		.byte	-16
 4844 0060 39       		.byte	57
 4845 0061 E0       		.byte	-32
 4846 0062 18       		.byte	24
 4847 0063 C0       		.byte	-64
 4848 0064 60       		.byte	96
 4849 0065 00       		.byte	0
 4850 0066 F0       		.byte	-16
 4851 0067 0C       		.byte	12
 4852 0068 F0       		.byte	-16
 4853 0069 3C       		.byte	60
 4854 006a 60       		.byte	96
 4855 006b F0       		.byte	-16
 4856 006c 03       		.byte	3
 4857 006d C0       		.byte	-64
 4858 006e 0F       		.byte	15
 4859 006f 00       		.byte	0
 4860 0070 3C       		.byte	60
 4861 0071 18       		.byte	24
 4862 0072 F0       		.byte	-16
 4863 0073 3C       		.byte	60
 4864 0074 C0       		.byte	-64
 4865 0075 3C       		.byte	60
 4866 0076 00       		.byte	0
 4867 0077 18       		.byte	24
 4868 0078 3C       		.byte	60
 4869 0079 F0       		.byte	-16
 4870 007a 7F       		.byte	127
 4871 007b F8       		.byte	-8
 4872 007c C3       		.byte	-61
 4873 007d 1C       		.byte	28
 4874 007e C7       		.byte	-57
 4875 007f 8C       		.byte	-116
 4876 0080 CF       		.byte	-49
 4877 0081 CC       		.byte	-52
 4878 0082 DC       		.byte	-36
 4879 0083 EC       		.byte	-20
 4880 0084 78       		.byte	120
 4881 0085 78       		.byte	120
 4882 0086 30       		.byte	48
 4883 0087 30       		.byte	48
 4884 0088 00       		.byte	0
 4885 0089 FC       		.byte	-4
 4886 008a 00       		.byte	0
 4887 008b CC       		.byte	-52
 4888 008c 00       		.byte	0
 4889 008d 00       		.byte	0
 4890 008e 00       		.byte	0
 4891 008f 00       		.byte	0
 4892 0090 00       		.byte	0
 4893 0091 00       		.byte	0
 4894 0092 44       		.byte	68
 4895 0093 00       		.byte	0
 4896 0094 EC       		.byte	-20
 4897 0095 00       		.byte	0
 4898 0096 F8       		.byte	-8
 4899 0097 00       		.byte	0
 4900 0098 70       		.byte	112
 4901 0099 00       		.byte	0
 4902 009a 00       		.byte	0
 4903 009b 00       		.byte	0
 4904 009c 00       		.byte	0
 4905 009d 00       		.byte	0
 4906 009e 00       		.byte	0
 4907 009f 00       		.byte	0
 4908 00a0 00       		.byte	0
 4909 00a1 00       		.byte	0
 4910 00a2 00       		.byte	0
 4911 00a3 00       		.byte	0
 4912 00a4 0F       		.byte	15
 4913 00a5 C0       		.byte	-64
 4914 00a6 3F       		.byte	63
 4915 00a7 F0       		.byte	-16
 4916 00a8 78       		.byte	120
 4917 00a9 78       		.byte	120
 4918 00aa 60       		.byte	96
 4919 00ab 18       		.byte	24
 4920 00ac C0       		.byte	-64
 4921 00ad 0C       		.byte	12
 4922 00ae C0       		.byte	-64
 4923 00af 0C       		.byte	12
 4924 00b0 00       		.byte	0
 4925 00b1 00       		.byte	0
 4926 00b2 00       		.byte	0
 4927 00b3 00       		.byte	0
 4928 00b4 00       		.byte	0
 4929 00b5 00       		.byte	0
 4930 00b6 00       		.byte	0
 4931 00b7 00       		.byte	0
 4932 00b8 C0       		.byte	-64
 4933 00b9 0C       		.byte	12
 4934 00ba C0       		.byte	-64
 4935 00bb 0C       		.byte	12
 4936 00bc 60       		.byte	96
 4937 00bd 18       		.byte	24
 4938 00be 78       		.byte	120
 4939 00bf 78       		.byte	120
 4940 00c0 3F       		.byte	63
 4941 00c1 F0       		.byte	-16
 4942 00c2 0F       		.byte	15
 4943 00c3 C0       		.byte	-64
 4944 00c4 00       		.byte	0
 4945 00c5 00       		.byte	0
 4946 00c6 00       		.byte	0
 4947 00c7 00       		.byte	0
 4948 00c8 0C       		.byte	12
 4949 00c9 60       		.byte	96
 4950 00ca 0E       		.byte	14
 4951 00cb E0       		.byte	-32
 4952 00cc 07       		.byte	7
 4953 00cd C0       		.byte	-64
 4954 00ce 03       		.byte	3
 4955 00cf 80       		.byte	-128
 4956 00d0 3F       		.byte	63
 4957 00d1 F8       		.byte	-8
 4958 00d2 3F       		.byte	63
 4959 00d3 F8       		.byte	-8
 4960 00d4 03       		.byte	3
 4961 00d5 80       		.byte	-128
 4962 00d6 07       		.byte	7
 4963 00d7 C0       		.byte	-64
 4964 00d8 0E       		.byte	14
 4965 00d9 E0       		.byte	-32
 4966 00da 0C       		.byte	12
 4967 00db 60       		.byte	96
 4968 00dc 03       		.byte	3
 4969 00dd 00       		.byte	0
 4970 00de 03       		.byte	3
 4971 00df 00       		.byte	0
 4972 00e0 03       		.byte	3
 4973 00e1 00       		.byte	0
 4974 00e2 03       		.byte	3
 4975 00e3 00       		.byte	0
 4976 00e4 3F       		.byte	63
 4977 00e5 F0       		.byte	-16
 4978 00e6 3F       		.byte	63
 4979 00e7 F0       		.byte	-16
 4980 00e8 03       		.byte	3
 4981 00e9 00       		.byte	0
 4982 00ea 03       		.byte	3
 4983 00eb 00       		.byte	0
 4984 00ec 03       		.byte	3
 4985 00ed 00       		.byte	0
 4986 00ee 03       		.byte	3
 4987 00ef 00       		.byte	0
 4988 00f0 00       		.byte	0
 4989 00f1 44       		.byte	68
 4990 00f2 00       		.byte	0
 4991 00f3 EC       		.byte	-20
 4992 00f4 00       		.byte	0
 4993 00f5 F8       		.byte	-8
 4994 00f6 00       		.byte	0
 4995 00f7 70       		.byte	112
 4996 00f8 00       		.byte	0
 4997 00f9 00       		.byte	0
 4998 00fa 00       		.byte	0
 4999 00fb 00       		.byte	0
 5000 00fc 00       		.byte	0
 5001 00fd 00       		.byte	0
 5002 00fe 00       		.byte	0
 5003 00ff 00       		.byte	0
 5004 0100 00       		.byte	0
 5005 0101 00       		.byte	0
 5006 0102 00       		.byte	0
 5007 0103 00       		.byte	0
 5008 0104 03       		.byte	3
 5009 0105 00       		.byte	0
 5010 0106 03       		.byte	3
 5011 0107 00       		.byte	0
 5012 0108 03       		.byte	3
 5013 0109 00       		.byte	0
 5014 010a 03       		.byte	3
 5015 010b 00       		.byte	0
 5016 010c 03       		.byte	3
 5017 010d 00       		.byte	0
 5018 010e 03       		.byte	3
 5019 010f 00       		.byte	0
 5020 0110 03       		.byte	3
 5021 0111 00       		.byte	0
 5022 0112 03       		.byte	3
 5023 0113 00       		.byte	0
 5024 0114 03       		.byte	3
 5025 0115 00       		.byte	0
 5026 0116 03       		.byte	3
 5027 0117 00       		.byte	0
 5028 0118 00       		.byte	0
 5029 0119 18       		.byte	24
 5030 011a 00       		.byte	0
 5031 011b 3C       		.byte	60
 5032 011c 00       		.byte	0
 5033 011d 3C       		.byte	60
 5034 011e 00       		.byte	0
 5035 011f 18       		.byte	24
 5036 0120 00       		.byte	0
 5037 0121 00       		.byte	0
 5038 0122 00       		.byte	0
 5039 0123 00       		.byte	0
 5040 0124 00       		.byte	0
 5041 0125 00       		.byte	0
 5042 0126 00       		.byte	0
 5043 0127 00       		.byte	0
 5044 0128 00       		.byte	0
 5045 0129 00       		.byte	0
 5046 012a 00       		.byte	0
 5047 012b 00       		.byte	0
 5048 012c 00       		.byte	0
 5049 012d 00       		.byte	0
 5050 012e 00       		.byte	0
 5051 012f 0C       		.byte	12
 5052 0130 00       		.byte	0
 5053 0131 3C       		.byte	60
 5054 0132 00       		.byte	0
 5055 0133 F0       		.byte	-16
 5056 0134 03       		.byte	3
 5057 0135 C0       		.byte	-64
 5058 0136 0F       		.byte	15
 5059 0137 00       		.byte	0
 5060 0138 3C       		.byte	60
 5061 0139 00       		.byte	0
 5062 013a F0       		.byte	-16
 5063 013b 00       		.byte	0
 5064 013c C0       		.byte	-64
 5065 013d 00       		.byte	0
 5066 013e 00       		.byte	0
 5067 013f 00       		.byte	0
 5068 0140 3F       		.byte	63
 5069 0141 F0       		.byte	-16
 5070 0142 7F       		.byte	127
 5071 0143 F8       		.byte	-8
 5072 0144 E0       		.byte	-32
 5073 0145 FC       		.byte	-4
 5074 0146 C1       		.byte	-63
 5075 0147 CC       		.byte	-52
 5076 0148 C3       		.byte	-61
 5077 0149 8C       		.byte	-116
 5078 014a C7       		.byte	-57
 5079 014b 0C       		.byte	12
 5080 014c CE       		.byte	-50
 5081 014d 0C       		.byte	12
 5082 014e FC       		.byte	-4
 5083 014f 1C       		.byte	28
 5084 0150 7F       		.byte	127
 5085 0151 F8       		.byte	-8
 5086 0152 3F       		.byte	63
 5087 0153 F0       		.byte	-16
 5088 0154 00       		.byte	0
 5089 0155 00       		.byte	0
 5090 0156 00       		.byte	0
 5091 0157 00       		.byte	0
 5092 0158 30       		.byte	48
 5093 0159 0C       		.byte	12
 5094 015a 70       		.byte	112
 5095 015b 0C       		.byte	12
 5096 015c FF       		.byte	-1
 5097 015d FC       		.byte	-4
 5098 015e FF       		.byte	-1
 5099 015f FC       		.byte	-4
 5100 0160 00       		.byte	0
 5101 0161 0C       		.byte	12
 5102 0162 00       		.byte	0
 5103 0163 0C       		.byte	12
 5104 0164 00       		.byte	0
 5105 0165 00       		.byte	0
 5106 0166 00       		.byte	0
 5107 0167 00       		.byte	0
 5108 0168 30       		.byte	48
 5109 0169 0C       		.byte	12
 5110 016a 70       		.byte	112
 5111 016b 1C       		.byte	28
 5112 016c E0       		.byte	-32
 5113 016d 3C       		.byte	60
 5114 016e C0       		.byte	-64
 5115 016f 7C       		.byte	124
 5116 0170 C0       		.byte	-64
 5117 0171 EC       		.byte	-20
 5118 0172 C1       		.byte	-63
 5119 0173 CC       		.byte	-52
 5120 0174 C3       		.byte	-61
 5121 0175 8C       		.byte	-116
 5122 0176 E7       		.byte	-25
 5123 0177 0C       		.byte	12
 5124 0178 7E       		.byte	126
 5125 0179 0C       		.byte	12
 5126 017a 3C       		.byte	60
 5127 017b 0C       		.byte	12
 5128 017c 30       		.byte	48
 5129 017d 30       		.byte	48
 5130 017e 70       		.byte	112
 5131 017f 38       		.byte	56
 5132 0180 E0       		.byte	-32
 5133 0181 1C       		.byte	28
 5134 0182 C0       		.byte	-64
 5135 0183 0C       		.byte	12
 5136 0184 C0       		.byte	-64
 5137 0185 0C       		.byte	12
 5138 0186 C3       		.byte	-61
 5139 0187 0C       		.byte	12
 5140 0188 C3       		.byte	-61
 5141 0189 0C       		.byte	12
 5142 018a E3       		.byte	-29
 5143 018b 1C       		.byte	28
 5144 018c 7F       		.byte	127
 5145 018d F8       		.byte	-8
 5146 018e 3C       		.byte	60
 5147 018f F0       		.byte	-16
 5148 0190 03       		.byte	3
 5149 0191 C0       		.byte	-64
 5150 0192 07       		.byte	7
 5151 0193 C0       		.byte	-64
 5152 0194 0E       		.byte	14
 5153 0195 C0       		.byte	-64
 5154 0196 1C       		.byte	28
 5155 0197 C0       		.byte	-64
 5156 0198 38       		.byte	56
 5157 0199 C0       		.byte	-64
 5158 019a 70       		.byte	112
 5159 019b C0       		.byte	-64
 5160 019c FF       		.byte	-1
 5161 019d FC       		.byte	-4
 5162 019e FF       		.byte	-1
 5163 019f FC       		.byte	-4
 5164 01a0 00       		.byte	0
 5165 01a1 C0       		.byte	-64
 5166 01a2 00       		.byte	0
 5167 01a3 C0       		.byte	-64
 5168 01a4 FC       		.byte	-4
 5169 01a5 30       		.byte	48
 5170 01a6 FC       		.byte	-4
 5171 01a7 38       		.byte	56
 5172 01a8 CC       		.byte	-52
 5173 01a9 1C       		.byte	28
 5174 01aa CC       		.byte	-52
 5175 01ab 0C       		.byte	12
 5176 01ac CC       		.byte	-52
 5177 01ad 0C       		.byte	12
 5178 01ae CC       		.byte	-52
 5179 01af 0C       		.byte	12
 5180 01b0 CC       		.byte	-52
 5181 01b1 0C       		.byte	12
 5182 01b2 CE       		.byte	-50
 5183 01b3 1C       		.byte	28
 5184 01b4 C7       		.byte	-57
 5185 01b5 F8       		.byte	-8
 5186 01b6 C3       		.byte	-61
 5187 01b7 F0       		.byte	-16
 5188 01b8 3F       		.byte	63
 5189 01b9 F0       		.byte	-16
 5190 01ba 7F       		.byte	127
 5191 01bb F8       		.byte	-8
 5192 01bc E3       		.byte	-29
 5193 01bd 1C       		.byte	28
 5194 01be C3       		.byte	-61
 5195 01bf 0C       		.byte	12
 5196 01c0 C3       		.byte	-61
 5197 01c1 0C       		.byte	12
 5198 01c2 C3       		.byte	-61
 5199 01c3 0C       		.byte	12
 5200 01c4 C3       		.byte	-61
 5201 01c5 0C       		.byte	12
 5202 01c6 E3       		.byte	-29
 5203 01c7 9C       		.byte	-100
 5204 01c8 71       		.byte	113
 5205 01c9 F8       		.byte	-8
 5206 01ca 30       		.byte	48
 5207 01cb F0       		.byte	-16
 5208 01cc C0       		.byte	-64
 5209 01cd 00       		.byte	0
 5210 01ce C0       		.byte	-64
 5211 01cf 00       		.byte	0
 5212 01d0 C0       		.byte	-64
 5213 01d1 00       		.byte	0
 5214 01d2 C0       		.byte	-64
 5215 01d3 00       		.byte	0
 5216 01d4 C3       		.byte	-61
 5217 01d5 FC       		.byte	-4
 5218 01d6 C7       		.byte	-57
 5219 01d7 FC       		.byte	-4
 5220 01d8 CE       		.byte	-50
 5221 01d9 00       		.byte	0
 5222 01da DC       		.byte	-36
 5223 01db 00       		.byte	0
 5224 01dc F8       		.byte	-8
 5225 01dd 00       		.byte	0
 5226 01de F0       		.byte	-16
 5227 01df 00       		.byte	0
 5228 01e0 3C       		.byte	60
 5229 01e1 F0       		.byte	-16
 5230 01e2 7F       		.byte	127
 5231 01e3 F8       		.byte	-8
 5232 01e4 E7       		.byte	-25
 5233 01e5 9C       		.byte	-100
 5234 01e6 C3       		.byte	-61
 5235 01e7 0C       		.byte	12
 5236 01e8 C3       		.byte	-61
 5237 01e9 0C       		.byte	12
 5238 01ea C3       		.byte	-61
 5239 01eb 0C       		.byte	12
 5240 01ec C3       		.byte	-61
 5241 01ed 0C       		.byte	12
 5242 01ee E7       		.byte	-25
 5243 01ef 9C       		.byte	-100
 5244 01f0 7F       		.byte	127
 5245 01f1 F8       		.byte	-8
 5246 01f2 3C       		.byte	60
 5247 01f3 F0       		.byte	-16
 5248 01f4 3C       		.byte	60
 5249 01f5 00       		.byte	0
 5250 01f6 7E       		.byte	126
 5251 01f7 00       		.byte	0
 5252 01f8 E7       		.byte	-25
 5253 01f9 0C       		.byte	12
 5254 01fa C3       		.byte	-61
 5255 01fb 0C       		.byte	12
 5256 01fc C3       		.byte	-61
 5257 01fd 1C       		.byte	28
 5258 01fe C3       		.byte	-61
 5259 01ff 38       		.byte	56
 5260 0200 C3       		.byte	-61
 5261 0201 70       		.byte	112
 5262 0202 E7       		.byte	-25
 5263 0203 E0       		.byte	-32
 5264 0204 7F       		.byte	127
 5265 0205 C0       		.byte	-64
 5266 0206 3F       		.byte	63
 5267 0207 80       		.byte	-128
 5268 0208 00       		.byte	0
 5269 0209 00       		.byte	0
 5270 020a 00       		.byte	0
 5271 020b 00       		.byte	0
 5272 020c 00       		.byte	0
 5273 020d 00       		.byte	0
 5274 020e 18       		.byte	24
 5275 020f 60       		.byte	96
 5276 0210 3C       		.byte	60
 5277 0211 F0       		.byte	-16
 5278 0212 3C       		.byte	60
 5279 0213 F0       		.byte	-16
 5280 0214 18       		.byte	24
 5281 0215 60       		.byte	96
 5282 0216 00       		.byte	0
 5283 0217 00       		.byte	0
 5284 0218 00       		.byte	0
 5285 0219 00       		.byte	0
 5286 021a 00       		.byte	0
 5287 021b 00       		.byte	0
 5288 021c 00       		.byte	0
 5289 021d 00       		.byte	0
 5290 021e 00       		.byte	0
 5291 021f 00       		.byte	0
 5292 0220 00       		.byte	0
 5293 0221 00       		.byte	0
 5294 0222 18       		.byte	24
 5295 0223 44       		.byte	68
 5296 0224 3C       		.byte	60
 5297 0225 EC       		.byte	-20
 5298 0226 3C       		.byte	60
 5299 0227 F8       		.byte	-8
 5300 0228 18       		.byte	24
 5301 0229 70       		.byte	112
 5302 022a 00       		.byte	0
 5303 022b 00       		.byte	0
 5304 022c 00       		.byte	0
 5305 022d 00       		.byte	0
 5306 022e 00       		.byte	0
 5307 022f 00       		.byte	0
 5308 0230 00       		.byte	0
 5309 0231 00       		.byte	0
 5310 0232 03       		.byte	3
 5311 0233 00       		.byte	0
 5312 0234 07       		.byte	7
 5313 0235 80       		.byte	-128
 5314 0236 0F       		.byte	15
 5315 0237 C0       		.byte	-64
 5316 0238 1C       		.byte	28
 5317 0239 E0       		.byte	-32
 5318 023a 38       		.byte	56
 5319 023b 70       		.byte	112
 5320 023c 70       		.byte	112
 5321 023d 38       		.byte	56
 5322 023e E0       		.byte	-32
 5323 023f 1C       		.byte	28
 5324 0240 C0       		.byte	-64
 5325 0241 0C       		.byte	12
 5326 0242 00       		.byte	0
 5327 0243 00       		.byte	0
 5328 0244 0C       		.byte	12
 5329 0245 C0       		.byte	-64
 5330 0246 0C       		.byte	12
 5331 0247 C0       		.byte	-64
 5332 0248 0C       		.byte	12
 5333 0249 C0       		.byte	-64
 5334 024a 0C       		.byte	12
 5335 024b C0       		.byte	-64
 5336 024c 0C       		.byte	12
 5337 024d C0       		.byte	-64
 5338 024e 0C       		.byte	12
 5339 024f C0       		.byte	-64
 5340 0250 0C       		.byte	12
 5341 0251 C0       		.byte	-64
 5342 0252 0C       		.byte	12
 5343 0253 C0       		.byte	-64
 5344 0254 0C       		.byte	12
 5345 0255 C0       		.byte	-64
 5346 0256 0C       		.byte	12
 5347 0257 C0       		.byte	-64
 5348 0258 00       		.byte	0
 5349 0259 00       		.byte	0
 5350 025a C0       		.byte	-64
 5351 025b 0C       		.byte	12
 5352 025c E0       		.byte	-32
 5353 025d 1C       		.byte	28
 5354 025e 70       		.byte	112
 5355 025f 38       		.byte	56
 5356 0260 38       		.byte	56
 5357 0261 70       		.byte	112
 5358 0262 1C       		.byte	28
 5359 0263 E0       		.byte	-32
 5360 0264 0F       		.byte	15
 5361 0265 C0       		.byte	-64
 5362 0266 07       		.byte	7
 5363 0267 80       		.byte	-128
 5364 0268 03       		.byte	3
 5365 0269 00       		.byte	0
 5366 026a 00       		.byte	0
 5367 026b 00       		.byte	0
 5368 026c 30       		.byte	48
 5369 026d 00       		.byte	0
 5370 026e 70       		.byte	112
 5371 026f 00       		.byte	0
 5372 0270 E0       		.byte	-32
 5373 0271 00       		.byte	0
 5374 0272 C0       		.byte	-64
 5375 0273 00       		.byte	0
 5376 0274 C1       		.byte	-63
 5377 0275 EC       		.byte	-20
 5378 0276 C3       		.byte	-61
 5379 0277 EC       		.byte	-20
 5380 0278 C3       		.byte	-61
 5381 0279 00       		.byte	0
 5382 027a E6       		.byte	-26
 5383 027b 00       		.byte	0
 5384 027c 7E       		.byte	126
 5385 027d 00       		.byte	0
 5386 027e 3C       		.byte	60
 5387 027f 00       		.byte	0
 5388 0280 30       		.byte	48
 5389 0281 F0       		.byte	-16
 5390 0282 71       		.byte	113
 5391 0283 F8       		.byte	-8
 5392 0284 E3       		.byte	-29
 5393 0285 9C       		.byte	-100
 5394 0286 C3       		.byte	-61
 5395 0287 0C       		.byte	12
 5396 0288 C3       		.byte	-61
 5397 0289 FC       		.byte	-4
 5398 028a C3       		.byte	-61
 5399 028b FC       		.byte	-4
 5400 028c C0       		.byte	-64
 5401 028d 0C       		.byte	12
 5402 028e E0       		.byte	-32
 5403 028f 1C       		.byte	28
 5404 0290 7F       		.byte	127
 5405 0291 F8       		.byte	-8
 5406 0292 3F       		.byte	63
 5407 0293 F0       		.byte	-16
 5408 0294 3F       		.byte	63
 5409 0295 FC       		.byte	-4
 5410 0296 7F       		.byte	127
 5411 0297 FC       		.byte	-4
 5412 0298 E0       		.byte	-32
 5413 0299 C0       		.byte	-64
 5414 029a C0       		.byte	-64
 5415 029b C0       		.byte	-64
 5416 029c C0       		.byte	-64
 5417 029d C0       		.byte	-64
 5418 029e C0       		.byte	-64
 5419 029f C0       		.byte	-64
 5420 02a0 C0       		.byte	-64
 5421 02a1 C0       		.byte	-64
 5422 02a2 E0       		.byte	-32
 5423 02a3 C0       		.byte	-64
 5424 02a4 7F       		.byte	127
 5425 02a5 FC       		.byte	-4
 5426 02a6 3F       		.byte	63
 5427 02a7 FC       		.byte	-4
 5428 02a8 FF       		.byte	-1
 5429 02a9 FC       		.byte	-4
 5430 02aa FF       		.byte	-1
 5431 02ab FC       		.byte	-4
 5432 02ac C3       		.byte	-61
 5433 02ad 0C       		.byte	12
 5434 02ae C3       		.byte	-61
 5435 02af 0C       		.byte	12
 5436 02b0 C3       		.byte	-61
 5437 02b1 0C       		.byte	12
 5438 02b2 C3       		.byte	-61
 5439 02b3 0C       		.byte	12
 5440 02b4 C3       		.byte	-61
 5441 02b5 0C       		.byte	12
 5442 02b6 E7       		.byte	-25
 5443 02b7 9C       		.byte	-100
 5444 02b8 7F       		.byte	127
 5445 02b9 F8       		.byte	-8
 5446 02ba 3C       		.byte	60
 5447 02bb F0       		.byte	-16
 5448 02bc 3F       		.byte	63
 5449 02bd F0       		.byte	-16
 5450 02be 7F       		.byte	127
 5451 02bf F8       		.byte	-8
 5452 02c0 E0       		.byte	-32
 5453 02c1 1C       		.byte	28
 5454 02c2 C0       		.byte	-64
 5455 02c3 0C       		.byte	12
 5456 02c4 C0       		.byte	-64
 5457 02c5 0C       		.byte	12
 5458 02c6 C0       		.byte	-64
 5459 02c7 0C       		.byte	12
 5460 02c8 C0       		.byte	-64
 5461 02c9 0C       		.byte	12
 5462 02ca E0       		.byte	-32
 5463 02cb 1C       		.byte	28
 5464 02cc 70       		.byte	112
 5465 02cd 38       		.byte	56
 5466 02ce 30       		.byte	48
 5467 02cf 30       		.byte	48
 5468 02d0 FF       		.byte	-1
 5469 02d1 FC       		.byte	-4
 5470 02d2 FF       		.byte	-1
 5471 02d3 FC       		.byte	-4
 5472 02d4 C0       		.byte	-64
 5473 02d5 0C       		.byte	12
 5474 02d6 C0       		.byte	-64
 5475 02d7 0C       		.byte	12
 5476 02d8 C0       		.byte	-64
 5477 02d9 0C       		.byte	12
 5478 02da C0       		.byte	-64
 5479 02db 0C       		.byte	12
 5480 02dc C0       		.byte	-64
 5481 02dd 0C       		.byte	12
 5482 02de E0       		.byte	-32
 5483 02df 1C       		.byte	28
 5484 02e0 7F       		.byte	127
 5485 02e1 F8       		.byte	-8
 5486 02e2 3F       		.byte	63
 5487 02e3 F0       		.byte	-16
 5488 02e4 FF       		.byte	-1
 5489 02e5 FC       		.byte	-4
 5490 02e6 FF       		.byte	-1
 5491 02e7 FC       		.byte	-4
 5492 02e8 C3       		.byte	-61
 5493 02e9 0C       		.byte	12
 5494 02ea C3       		.byte	-61
 5495 02eb 0C       		.byte	12
 5496 02ec C3       		.byte	-61
 5497 02ed 0C       		.byte	12
 5498 02ee C3       		.byte	-61
 5499 02ef 0C       		.byte	12
 5500 02f0 C3       		.byte	-61
 5501 02f1 0C       		.byte	12
 5502 02f2 C3       		.byte	-61
 5503 02f3 0C       		.byte	12
 5504 02f4 C0       		.byte	-64
 5505 02f5 0C       		.byte	12
 5506 02f6 C0       		.byte	-64
 5507 02f7 0C       		.byte	12
 5508 02f8 FF       		.byte	-1
 5509 02f9 FC       		.byte	-4
 5510 02fa FF       		.byte	-1
 5511 02fb FC       		.byte	-4
 5512 02fc C3       		.byte	-61
 5513 02fd 00       		.byte	0
 5514 02fe C3       		.byte	-61
 5515 02ff 00       		.byte	0
 5516 0300 C3       		.byte	-61
 5517 0301 00       		.byte	0
 5518 0302 C3       		.byte	-61
 5519 0303 00       		.byte	0
 5520 0304 C3       		.byte	-61
 5521 0305 00       		.byte	0
 5522 0306 C3       		.byte	-61
 5523 0307 00       		.byte	0
 5524 0308 C0       		.byte	-64
 5525 0309 00       		.byte	0
 5526 030a C0       		.byte	-64
 5527 030b 00       		.byte	0
 5528 030c 3F       		.byte	63
 5529 030d F0       		.byte	-16
 5530 030e 7F       		.byte	127
 5531 030f F8       		.byte	-8
 5532 0310 E0       		.byte	-32
 5533 0311 1C       		.byte	28
 5534 0312 C0       		.byte	-64
 5535 0313 0C       		.byte	12
 5536 0314 C0       		.byte	-64
 5537 0315 0C       		.byte	12
 5538 0316 C3       		.byte	-61
 5539 0317 0C       		.byte	12
 5540 0318 C3       		.byte	-61
 5541 0319 0C       		.byte	12
 5542 031a E3       		.byte	-29
 5543 031b 1C       		.byte	28
 5544 031c 73       		.byte	115
 5545 031d F8       		.byte	-8
 5546 031e 33       		.byte	51
 5547 031f F0       		.byte	-16
 5548 0320 FF       		.byte	-1
 5549 0321 FC       		.byte	-4
 5550 0322 FF       		.byte	-1
 5551 0323 FC       		.byte	-4
 5552 0324 03       		.byte	3
 5553 0325 00       		.byte	0
 5554 0326 03       		.byte	3
 5555 0327 00       		.byte	0
 5556 0328 03       		.byte	3
 5557 0329 00       		.byte	0
 5558 032a 03       		.byte	3
 5559 032b 00       		.byte	0
 5560 032c 03       		.byte	3
 5561 032d 00       		.byte	0
 5562 032e 03       		.byte	3
 5563 032f 00       		.byte	0
 5564 0330 FF       		.byte	-1
 5565 0331 FC       		.byte	-4
 5566 0332 FF       		.byte	-1
 5567 0333 FC       		.byte	-4
 5568 0334 00       		.byte	0
 5569 0335 00       		.byte	0
 5570 0336 00       		.byte	0
 5571 0337 00       		.byte	0
 5572 0338 C0       		.byte	-64
 5573 0339 0C       		.byte	12
 5574 033a C0       		.byte	-64
 5575 033b 0C       		.byte	12
 5576 033c FF       		.byte	-1
 5577 033d FC       		.byte	-4
 5578 033e FF       		.byte	-1
 5579 033f FC       		.byte	-4
 5580 0340 C0       		.byte	-64
 5581 0341 0C       		.byte	12
 5582 0342 C0       		.byte	-64
 5583 0343 0C       		.byte	12
 5584 0344 00       		.byte	0
 5585 0345 00       		.byte	0
 5586 0346 00       		.byte	0
 5587 0347 00       		.byte	0
 5588 0348 00       		.byte	0
 5589 0349 30       		.byte	48
 5590 034a 00       		.byte	0
 5591 034b 38       		.byte	56
 5592 034c C0       		.byte	-64
 5593 034d 1C       		.byte	28
 5594 034e C0       		.byte	-64
 5595 034f 0C       		.byte	12
 5596 0350 C0       		.byte	-64
 5597 0351 0C       		.byte	12
 5598 0352 C0       		.byte	-64
 5599 0353 1C       		.byte	28
 5600 0354 FF       		.byte	-1
 5601 0355 F8       		.byte	-8
 5602 0356 FF       		.byte	-1
 5603 0357 F0       		.byte	-16
 5604 0358 C0       		.byte	-64
 5605 0359 00       		.byte	0
 5606 035a C0       		.byte	-64
 5607 035b 00       		.byte	0
 5608 035c FF       		.byte	-1
 5609 035d FC       		.byte	-4
 5610 035e FF       		.byte	-1
 5611 035f FC       		.byte	-4
 5612 0360 07       		.byte	7
 5613 0361 80       		.byte	-128
 5614 0362 07       		.byte	7
 5615 0363 80       		.byte	-128
 5616 0364 0F       		.byte	15
 5617 0365 C0       		.byte	-64
 5618 0366 1C       		.byte	28
 5619 0367 E0       		.byte	-32
 5620 0368 38       		.byte	56
 5621 0369 70       		.byte	112
 5622 036a 70       		.byte	112
 5623 036b 38       		.byte	56
 5624 036c E0       		.byte	-32
 5625 036d 1C       		.byte	28
 5626 036e C0       		.byte	-64
 5627 036f 0C       		.byte	12
 5628 0370 FF       		.byte	-1
 5629 0371 FC       		.byte	-4
 5630 0372 FF       		.byte	-1
 5631 0373 FC       		.byte	-4
 5632 0374 00       		.byte	0
 5633 0375 0C       		.byte	12
 5634 0376 00       		.byte	0
 5635 0377 0C       		.byte	12
 5636 0378 00       		.byte	0
 5637 0379 0C       		.byte	12
 5638 037a 00       		.byte	0
 5639 037b 0C       		.byte	12
 5640 037c 00       		.byte	0
 5641 037d 0C       		.byte	12
 5642 037e 00       		.byte	0
 5643 037f 0C       		.byte	12
 5644 0380 00       		.byte	0
 5645 0381 0C       		.byte	12
 5646 0382 00       		.byte	0
 5647 0383 0C       		.byte	12
 5648 0384 FF       		.byte	-1
 5649 0385 FC       		.byte	-4
 5650 0386 FF       		.byte	-1
 5651 0387 FC       		.byte	-4
 5652 0388 70       		.byte	112
 5653 0389 00       		.byte	0
 5654 038a 38       		.byte	56
 5655 038b 00       		.byte	0
 5656 038c 1F       		.byte	31
 5657 038d 00       		.byte	0
 5658 038e 1F       		.byte	31
 5659 038f 00       		.byte	0
 5660 0390 38       		.byte	56
 5661 0391 00       		.byte	0
 5662 0392 70       		.byte	112
 5663 0393 00       		.byte	0
 5664 0394 FF       		.byte	-1
 5665 0395 FC       		.byte	-4
 5666 0396 FF       		.byte	-1
 5667 0397 FC       		.byte	-4
 5668 0398 FF       		.byte	-1
 5669 0399 FC       		.byte	-4
 5670 039a FF       		.byte	-1
 5671 039b FC       		.byte	-4
 5672 039c 1C       		.byte	28
 5673 039d 00       		.byte	0
 5674 039e 0E       		.byte	14
 5675 039f 00       		.byte	0
 5676 03a0 07       		.byte	7
 5677 03a1 00       		.byte	0
 5678 03a2 03       		.byte	3
 5679 03a3 80       		.byte	-128
 5680 03a4 01       		.byte	1
 5681 03a5 C0       		.byte	-64
 5682 03a6 00       		.byte	0
 5683 03a7 E0       		.byte	-32
 5684 03a8 FF       		.byte	-1
 5685 03a9 FC       		.byte	-4
 5686 03aa FF       		.byte	-1
 5687 03ab FC       		.byte	-4
 5688 03ac 3F       		.byte	63
 5689 03ad F0       		.byte	-16
 5690 03ae 7F       		.byte	127
 5691 03af F8       		.byte	-8
 5692 03b0 E0       		.byte	-32
 5693 03b1 1C       		.byte	28
 5694 03b2 C0       		.byte	-64
 5695 03b3 0C       		.byte	12
 5696 03b4 C0       		.byte	-64
 5697 03b5 0C       		.byte	12
 5698 03b6 C0       		.byte	-64
 5699 03b7 0C       		.byte	12
 5700 03b8 C0       		.byte	-64
 5701 03b9 0C       		.byte	12
 5702 03ba E0       		.byte	-32
 5703 03bb 1C       		.byte	28
 5704 03bc 7F       		.byte	127
 5705 03bd F8       		.byte	-8
 5706 03be 3F       		.byte	63
 5707 03bf F0       		.byte	-16
 5708 03c0 FF       		.byte	-1
 5709 03c1 FC       		.byte	-4
 5710 03c2 FF       		.byte	-1
 5711 03c3 FC       		.byte	-4
 5712 03c4 C3       		.byte	-61
 5713 03c5 00       		.byte	0
 5714 03c6 C3       		.byte	-61
 5715 03c7 00       		.byte	0
 5716 03c8 C3       		.byte	-61
 5717 03c9 00       		.byte	0
 5718 03ca C3       		.byte	-61
 5719 03cb 00       		.byte	0
 5720 03cc C3       		.byte	-61
 5721 03cd 00       		.byte	0
 5722 03ce E7       		.byte	-25
 5723 03cf 00       		.byte	0
 5724 03d0 7E       		.byte	126
 5725 03d1 00       		.byte	0
 5726 03d2 3C       		.byte	60
 5727 03d3 00       		.byte	0
 5728 03d4 3F       		.byte	63
 5729 03d5 F0       		.byte	-16
 5730 03d6 7F       		.byte	127
 5731 03d7 F8       		.byte	-8
 5732 03d8 E0       		.byte	-32
 5733 03d9 1C       		.byte	28
 5734 03da C0       		.byte	-64
 5735 03db 0C       		.byte	12
 5736 03dc C0       		.byte	-64
 5737 03dd CC       		.byte	-52
 5738 03de C0       		.byte	-64
 5739 03df EC       		.byte	-20
 5740 03e0 C0       		.byte	-64
 5741 03e1 7C       		.byte	124
 5742 03e2 E0       		.byte	-32
 5743 03e3 38       		.byte	56
 5744 03e4 7F       		.byte	127
 5745 03e5 FC       		.byte	-4
 5746 03e6 3F       		.byte	63
 5747 03e7 EC       		.byte	-20
 5748 03e8 FF       		.byte	-1
 5749 03e9 FC       		.byte	-4
 5750 03ea FF       		.byte	-1
 5751 03eb FC       		.byte	-4
 5752 03ec C3       		.byte	-61
 5753 03ed 00       		.byte	0
 5754 03ee C3       		.byte	-61
 5755 03ef 80       		.byte	-128
 5756 03f0 C3       		.byte	-61
 5757 03f1 80       		.byte	-128
 5758 03f2 C3       		.byte	-61
 5759 03f3 C0       		.byte	-64
 5760 03f4 C3       		.byte	-61
 5761 03f5 C0       		.byte	-64
 5762 03f6 E7       		.byte	-25
 5763 03f7 70       		.byte	112
 5764 03f8 7E       		.byte	126
 5765 03f9 3C       		.byte	60
 5766 03fa 3C       		.byte	60
 5767 03fb 1C       		.byte	28
 5768 03fc 3C       		.byte	60
 5769 03fd 18       		.byte	24
 5770 03fe 7E       		.byte	126
 5771 03ff 1C       		.byte	28
 5772 0400 E7       		.byte	-25
 5773 0401 0C       		.byte	12
 5774 0402 C3       		.byte	-61
 5775 0403 0C       		.byte	12
 5776 0404 C3       		.byte	-61
 5777 0405 0C       		.byte	12
 5778 0406 C3       		.byte	-61
 5779 0407 0C       		.byte	12
 5780 0408 C3       		.byte	-61
 5781 0409 0C       		.byte	12
 5782 040a C3       		.byte	-61
 5783 040b 9C       		.byte	-100
 5784 040c E1       		.byte	-31
 5785 040d F8       		.byte	-8
 5786 040e 60       		.byte	96
 5787 040f F0       		.byte	-16
 5788 0410 C0       		.byte	-64
 5789 0411 00       		.byte	0
 5790 0412 C0       		.byte	-64
 5791 0413 00       		.byte	0
 5792 0414 C0       		.byte	-64
 5793 0415 00       		.byte	0
 5794 0416 C0       		.byte	-64
 5795 0417 00       		.byte	0
 5796 0418 FF       		.byte	-1
 5797 0419 FC       		.byte	-4
 5798 041a FF       		.byte	-1
 5799 041b FC       		.byte	-4
 5800 041c C0       		.byte	-64
 5801 041d 00       		.byte	0
 5802 041e C0       		.byte	-64
 5803 041f 00       		.byte	0
 5804 0420 C0       		.byte	-64
 5805 0421 00       		.byte	0
 5806 0422 C0       		.byte	-64
 5807 0423 00       		.byte	0
 5808 0424 FF       		.byte	-1
 5809 0425 F0       		.byte	-16
 5810 0426 FF       		.byte	-1
 5811 0427 F8       		.byte	-8
 5812 0428 00       		.byte	0
 5813 0429 1C       		.byte	28
 5814 042a 00       		.byte	0
 5815 042b 0C       		.byte	12
 5816 042c 00       		.byte	0
 5817 042d 0C       		.byte	12
 5818 042e 00       		.byte	0
 5819 042f 0C       		.byte	12
 5820 0430 00       		.byte	0
 5821 0431 0C       		.byte	12
 5822 0432 00       		.byte	0
 5823 0433 1C       		.byte	28
 5824 0434 FF       		.byte	-1
 5825 0435 F8       		.byte	-8
 5826 0436 FF       		.byte	-1
 5827 0437 F0       		.byte	-16
 5828 0438 FF       		.byte	-1
 5829 0439 C0       		.byte	-64
 5830 043a FF       		.byte	-1
 5831 043b E0       		.byte	-32
 5832 043c 00       		.byte	0
 5833 043d 70       		.byte	112
 5834 043e 00       		.byte	0
 5835 043f 38       		.byte	56
 5836 0440 00       		.byte	0
 5837 0441 1C       		.byte	28
 5838 0442 00       		.byte	0
 5839 0443 1C       		.byte	28
 5840 0444 00       		.byte	0
 5841 0445 38       		.byte	56
 5842 0446 00       		.byte	0
 5843 0447 70       		.byte	112
 5844 0448 FF       		.byte	-1
 5845 0449 E0       		.byte	-32
 5846 044a FF       		.byte	-1
 5847 044b C0       		.byte	-64
 5848 044c FF       		.byte	-1
 5849 044d F0       		.byte	-16
 5850 044e FF       		.byte	-1
 5851 044f F8       		.byte	-8
 5852 0450 00       		.byte	0
 5853 0451 1C       		.byte	28
 5854 0452 00       		.byte	0
 5855 0453 3C       		.byte	60
 5856 0454 00       		.byte	0
 5857 0455 F8       		.byte	-8
 5858 0456 00       		.byte	0
 5859 0457 F8       		.byte	-8
 5860 0458 00       		.byte	0
 5861 0459 3C       		.byte	60
 5862 045a 00       		.byte	0
 5863 045b 1C       		.byte	28
 5864 045c FF       		.byte	-1
 5865 045d F8       		.byte	-8
 5866 045e FF       		.byte	-1
 5867 045f F0       		.byte	-16
 5868 0460 F0       		.byte	-16
 5869 0461 3C       		.byte	60
 5870 0462 F8       		.byte	-8
 5871 0463 7C       		.byte	124
 5872 0464 1C       		.byte	28
 5873 0465 E0       		.byte	-32
 5874 0466 0F       		.byte	15
 5875 0467 C0       		.byte	-64
 5876 0468 07       		.byte	7
 5877 0469 80       		.byte	-128
 5878 046a 07       		.byte	7
 5879 046b 80       		.byte	-128
 5880 046c 0F       		.byte	15
 5881 046d C0       		.byte	-64
 5882 046e 1C       		.byte	28
 5883 046f E0       		.byte	-32
 5884 0470 F8       		.byte	-8
 5885 0471 7C       		.byte	124
 5886 0472 F0       		.byte	-16
 5887 0473 3C       		.byte	60
 5888 0474 FC       		.byte	-4
 5889 0475 00       		.byte	0
 5890 0476 FE       		.byte	-2
 5891 0477 00       		.byte	0
 5892 0478 07       		.byte	7
 5893 0479 00       		.byte	0
 5894 047a 03       		.byte	3
 5895 047b 80       		.byte	-128
 5896 047c 01       		.byte	1
 5897 047d FC       		.byte	-4
 5898 047e 01       		.byte	1
 5899 047f FC       		.byte	-4
 5900 0480 03       		.byte	3
 5901 0481 80       		.byte	-128
 5902 0482 07       		.byte	7
 5903 0483 00       		.byte	0
 5904 0484 FE       		.byte	-2
 5905 0485 00       		.byte	0
 5906 0486 FC       		.byte	-4
 5907 0487 00       		.byte	0
 5908 0488 C0       		.byte	-64
 5909 0489 3C       		.byte	60
 5910 048a C0       		.byte	-64
 5911 048b 7C       		.byte	124
 5912 048c C0       		.byte	-64
 5913 048d EC       		.byte	-20
 5914 048e C1       		.byte	-63
 5915 048f CC       		.byte	-52
 5916 0490 C3       		.byte	-61
 5917 0491 8C       		.byte	-116
 5918 0492 C7       		.byte	-57
 5919 0493 0C       		.byte	12
 5920 0494 CE       		.byte	-50
 5921 0495 0C       		.byte	12
 5922 0496 DC       		.byte	-36
 5923 0497 0C       		.byte	12
 5924 0498 F8       		.byte	-8
 5925 0499 0C       		.byte	12
 5926 049a F0       		.byte	-16
 5927 049b 0C       		.byte	12
 5928 049c 00       		.byte	0
 5929 049d 00       		.byte	0
 5930 049e 00       		.byte	0
 5931 049f 00       		.byte	0
 5932 04a0 FF       		.byte	-1
 5933 04a1 FC       		.byte	-4
 5934 04a2 FF       		.byte	-1
 5935 04a3 FC       		.byte	-4
 5936 04a4 C0       		.byte	-64
 5937 04a5 0C       		.byte	12
 5938 04a6 C0       		.byte	-64
 5939 04a7 0C       		.byte	12
 5940 04a8 C0       		.byte	-64
 5941 04a9 0C       		.byte	12
 5942 04aa 00       		.byte	0
 5943 04ab 00       		.byte	0
 5944 04ac 00       		.byte	0
 5945 04ad 00       		.byte	0
 5946 04ae 00       		.byte	0
 5947 04af 00       		.byte	0
 5948 04b0 30       		.byte	48
 5949 04b1 00       		.byte	0
 5950 04b2 30       		.byte	48
 5951 04b3 00       		.byte	0
 5952 04b4 0C       		.byte	12
 5953 04b5 00       		.byte	0
 5954 04b6 0C       		.byte	12
 5955 04b7 00       		.byte	0
 5956 04b8 03       		.byte	3
 5957 04b9 00       		.byte	0
 5958 04ba 03       		.byte	3
 5959 04bb 00       		.byte	0
 5960 04bc 00       		.byte	0
 5961 04bd C0       		.byte	-64
 5962 04be 00       		.byte	0
 5963 04bf C0       		.byte	-64
 5964 04c0 00       		.byte	0
 5965 04c1 30       		.byte	48
 5966 04c2 00       		.byte	0
 5967 04c3 30       		.byte	48
 5968 04c4 00       		.byte	0
 5969 04c5 00       		.byte	0
 5970 04c6 00       		.byte	0
 5971 04c7 00       		.byte	0
 5972 04c8 C0       		.byte	-64
 5973 04c9 0C       		.byte	12
 5974 04ca C0       		.byte	-64
 5975 04cb 0C       		.byte	12
 5976 04cc C0       		.byte	-64
 5977 04cd 0C       		.byte	12
 5978 04ce FF       		.byte	-1
 5979 04cf FC       		.byte	-4
 5980 04d0 FF       		.byte	-1
 5981 04d1 FC       		.byte	-4
 5982 04d2 00       		.byte	0
 5983 04d3 00       		.byte	0
 5984 04d4 00       		.byte	0
 5985 04d5 00       		.byte	0
 5986 04d6 00       		.byte	0
 5987 04d7 00       		.byte	0
 5988 04d8 0C       		.byte	12
 5989 04d9 00       		.byte	0
 5990 04da 1C       		.byte	28
 5991 04db 00       		.byte	0
 5992 04dc 38       		.byte	56
 5993 04dd 00       		.byte	0
 5994 04de 70       		.byte	112
 5995 04df 00       		.byte	0
 5996 04e0 E0       		.byte	-32
 5997 04e1 00       		.byte	0
 5998 04e2 E0       		.byte	-32
 5999 04e3 00       		.byte	0
 6000 04e4 70       		.byte	112
 6001 04e5 00       		.byte	0
 6002 04e6 38       		.byte	56
 6003 04e7 00       		.byte	0
 6004 04e8 1C       		.byte	28
 6005 04e9 00       		.byte	0
 6006 04ea 0C       		.byte	12
 6007 04eb 00       		.byte	0
 6008 04ec 00       		.byte	0
 6009 04ed 0C       		.byte	12
 6010 04ee 00       		.byte	0
 6011 04ef 0C       		.byte	12
 6012 04f0 00       		.byte	0
 6013 04f1 0C       		.byte	12
 6014 04f2 00       		.byte	0
 6015 04f3 0C       		.byte	12
 6016 04f4 00       		.byte	0
 6017 04f5 0C       		.byte	12
 6018 04f6 00       		.byte	0
 6019 04f7 0C       		.byte	12
 6020 04f8 00       		.byte	0
 6021 04f9 0C       		.byte	12
 6022 04fa 00       		.byte	0
 6023 04fb 0C       		.byte	12
 6024 04fc 00       		.byte	0
 6025 04fd 0C       		.byte	12
 6026 04fe 00       		.byte	0
 6027 04ff 0C       		.byte	12
 6028 0500 00       		.byte	0
 6029 0501 00       		.byte	0
 6030 0502 00       		.byte	0
 6031 0503 00       		.byte	0
 6032 0504 C0       		.byte	-64
 6033 0505 00       		.byte	0
 6034 0506 E0       		.byte	-32
 6035 0507 00       		.byte	0
 6036 0508 70       		.byte	112
 6037 0509 00       		.byte	0
 6038 050a 38       		.byte	56
 6039 050b 00       		.byte	0
 6040 050c 18       		.byte	24
 6041 050d 00       		.byte	0
 6042 050e 00       		.byte	0
 6043 050f 00       		.byte	0
 6044 0510 00       		.byte	0
 6045 0511 00       		.byte	0
 6046 0512 00       		.byte	0
 6047 0513 00       		.byte	0
 6048 0514 00       		.byte	0
 6049 0515 30       		.byte	48
 6050 0516 06       		.byte	6
 6051 0517 78       		.byte	120
 6052 0518 0E       		.byte	14
 6053 0519 FC       		.byte	-4
 6054 051a 0C       		.byte	12
 6055 051b CC       		.byte	-52
 6056 051c 0C       		.byte	12
 6057 051d CC       		.byte	-52
 6058 051e 0C       		.byte	12
 6059 051f CC       		.byte	-52
 6060 0520 0C       		.byte	12
 6061 0521 CC       		.byte	-52
 6062 0522 0E       		.byte	14
 6063 0523 CC       		.byte	-52
 6064 0524 07       		.byte	7
 6065 0525 FC       		.byte	-4
 6066 0526 03       		.byte	3
 6067 0527 F8       		.byte	-8
 6068 0528 FF       		.byte	-1
 6069 0529 FC       		.byte	-4
 6070 052a FF       		.byte	-1
 6071 052b FC       		.byte	-4
 6072 052c 03       		.byte	3
 6073 052d 0C       		.byte	12
 6074 052e 03       		.byte	3
 6075 052f 0C       		.byte	12
 6076 0530 03       		.byte	3
 6077 0531 0C       		.byte	12
 6078 0532 03       		.byte	3
 6079 0533 0C       		.byte	12
 6080 0534 03       		.byte	3
 6081 0535 0C       		.byte	12
 6082 0536 03       		.byte	3
 6083 0537 9C       		.byte	-100
 6084 0538 01       		.byte	1
 6085 0539 F8       		.byte	-8
 6086 053a 00       		.byte	0
 6087 053b F0       		.byte	-16
 6088 053c 03       		.byte	3
 6089 053d F0       		.byte	-16
 6090 053e 07       		.byte	7
 6091 053f F8       		.byte	-8
 6092 0540 0E       		.byte	14
 6093 0541 1C       		.byte	28
 6094 0542 0C       		.byte	12
 6095 0543 0C       		.byte	12
 6096 0544 0C       		.byte	12
 6097 0545 0C       		.byte	12
 6098 0546 0C       		.byte	12
 6099 0547 0C       		.byte	12
 6100 0548 0C       		.byte	12
 6101 0549 0C       		.byte	12
 6102 054a 0E       		.byte	14
 6103 054b 1C       		.byte	28
 6104 054c 07       		.byte	7
 6105 054d 38       		.byte	56
 6106 054e 03       		.byte	3
 6107 054f 30       		.byte	48
 6108 0550 00       		.byte	0
 6109 0551 F0       		.byte	-16
 6110 0552 01       		.byte	1
 6111 0553 F8       		.byte	-8
 6112 0554 03       		.byte	3
 6113 0555 9C       		.byte	-100
 6114 0556 03       		.byte	3
 6115 0557 0C       		.byte	12
 6116 0558 03       		.byte	3
 6117 0559 0C       		.byte	12
 6118 055a 03       		.byte	3
 6119 055b 0C       		.byte	12
 6120 055c 03       		.byte	3
 6121 055d 0C       		.byte	12
 6122 055e 03       		.byte	3
 6123 055f 0C       		.byte	12
 6124 0560 FF       		.byte	-1
 6125 0561 FC       		.byte	-4
 6126 0562 FF       		.byte	-1
 6127 0563 FC       		.byte	-4
 6128 0564 03       		.byte	3
 6129 0565 F0       		.byte	-16
 6130 0566 07       		.byte	7
 6131 0567 F8       		.byte	-8
 6132 0568 0E       		.byte	14
 6133 0569 DC       		.byte	-36
 6134 056a 0C       		.byte	12
 6135 056b CC       		.byte	-52
 6136 056c 0C       		.byte	12
 6137 056d CC       		.byte	-52
 6138 056e 0C       		.byte	12
 6139 056f CC       		.byte	-52
 6140 0570 0C       		.byte	12
 6141 0571 CC       		.byte	-52
 6142 0572 0E       		.byte	14
 6143 0573 DC       		.byte	-36
 6144 0574 07       		.byte	7
 6145 0575 D8       		.byte	-40
 6146 0576 03       		.byte	3
 6147 0577 90       		.byte	-112
 6148 0578 00       		.byte	0
 6149 0579 00       		.byte	0
 6150 057a 03       		.byte	3
 6151 057b 00       		.byte	0
 6152 057c 3F       		.byte	63
 6153 057d FC       		.byte	-4
 6154 057e 7F       		.byte	127
 6155 057f FC       		.byte	-4
 6156 0580 E3       		.byte	-29
 6157 0581 00       		.byte	0
 6158 0582 E3       		.byte	-29
 6159 0583 00       		.byte	0
 6160 0584 70       		.byte	112
 6161 0585 00       		.byte	0
 6162 0586 30       		.byte	48
 6163 0587 00       		.byte	0
 6164 0588 00       		.byte	0
 6165 0589 00       		.byte	0
 6166 058a 00       		.byte	0
 6167 058b 00       		.byte	0
 6168 058c 03       		.byte	3
 6169 058d 18       		.byte	24
 6170 058e 07       		.byte	7
 6171 058f 9C       		.byte	-100
 6172 0590 0F       		.byte	15
 6173 0591 CC       		.byte	-52
 6174 0592 0C       		.byte	12
 6175 0593 CC       		.byte	-52
 6176 0594 0C       		.byte	12
 6177 0595 CC       		.byte	-52
 6178 0596 0C       		.byte	12
 6179 0597 CC       		.byte	-52
 6180 0598 0C       		.byte	12
 6181 0599 CC       		.byte	-52
 6182 059a 0C       		.byte	12
 6183 059b DC       		.byte	-36
 6184 059c 0F       		.byte	15
 6185 059d F8       		.byte	-8
 6186 059e 07       		.byte	7
 6187 059f F0       		.byte	-16
 6188 05a0 FF       		.byte	-1
 6189 05a1 FC       		.byte	-4
 6190 05a2 FF       		.byte	-1
 6191 05a3 FC       		.byte	-4
 6192 05a4 03       		.byte	3
 6193 05a5 00       		.byte	0
 6194 05a6 03       		.byte	3
 6195 05a7 00       		.byte	0
 6196 05a8 03       		.byte	3
 6197 05a9 00       		.byte	0
 6198 05aa 03       		.byte	3
 6199 05ab 00       		.byte	0
 6200 05ac 03       		.byte	3
 6201 05ad 80       		.byte	-128
 6202 05ae 01       		.byte	1
 6203 05af FC       		.byte	-4
 6204 05b0 00       		.byte	0
 6205 05b1 FC       		.byte	-4
 6206 05b2 00       		.byte	0
 6207 05b3 00       		.byte	0
 6208 05b4 00       		.byte	0
 6209 05b5 00       		.byte	0
 6210 05b6 00       		.byte	0
 6211 05b7 00       		.byte	0
 6212 05b8 00       		.byte	0
 6213 05b9 00       		.byte	0
 6214 05ba 00       		.byte	0
 6215 05bb 00       		.byte	0
 6216 05bc 1B       		.byte	27
 6217 05bd FC       		.byte	-4
 6218 05be 1B       		.byte	27
 6219 05bf FC       		.byte	-4
 6220 05c0 00       		.byte	0
 6221 05c1 00       		.byte	0
 6222 05c2 00       		.byte	0
 6223 05c3 00       		.byte	0
 6224 05c4 00       		.byte	0
 6225 05c5 00       		.byte	0
 6226 05c6 00       		.byte	0
 6227 05c7 00       		.byte	0
 6228 05c8 00       		.byte	0
 6229 05c9 00       		.byte	0
 6230 05ca 00       		.byte	0
 6231 05cb 30       		.byte	48
 6232 05cc 00       		.byte	0
 6233 05cd 38       		.byte	56
 6234 05ce 00       		.byte	0
 6235 05cf 1C       		.byte	28
 6236 05d0 00       		.byte	0
 6237 05d1 0C       		.byte	12
 6238 05d2 00       		.byte	0
 6239 05d3 0C       		.byte	12
 6240 05d4 00       		.byte	0
 6241 05d5 1C       		.byte	28
 6242 05d6 CF       		.byte	-49
 6243 05d7 F8       		.byte	-8
 6244 05d8 CF       		.byte	-49
 6245 05d9 F0       		.byte	-16
 6246 05da 00       		.byte	0
 6247 05db 00       		.byte	0
 6248 05dc 00       		.byte	0
 6249 05dd 00       		.byte	0
 6250 05de FF       		.byte	-1
 6251 05df FC       		.byte	-4
 6252 05e0 FF       		.byte	-1
 6253 05e1 FC       		.byte	-4
 6254 05e2 00       		.byte	0
 6255 05e3 E0       		.byte	-32
 6256 05e4 01       		.byte	1
 6257 05e5 E0       		.byte	-32
 6258 05e6 03       		.byte	3
 6259 05e7 F0       		.byte	-16
 6260 05e8 07       		.byte	7
 6261 05e9 38       		.byte	56
 6262 05ea 0E       		.byte	14
 6263 05eb 1C       		.byte	28
 6264 05ec 0C       		.byte	12
 6265 05ed 0C       		.byte	12
 6266 05ee 00       		.byte	0
 6267 05ef 00       		.byte	0
 6268 05f0 00       		.byte	0
 6269 05f1 00       		.byte	0
 6270 05f2 00       		.byte	0
 6271 05f3 00       		.byte	0
 6272 05f4 C0       		.byte	-64
 6273 05f5 0C       		.byte	12
 6274 05f6 C0       		.byte	-64
 6275 05f7 0C       		.byte	12
 6276 05f8 FF       		.byte	-1
 6277 05f9 FC       		.byte	-4
 6278 05fa FF       		.byte	-1
 6279 05fb FC       		.byte	-4
 6280 05fc 00       		.byte	0
 6281 05fd 0C       		.byte	12
 6282 05fe 00       		.byte	0
 6283 05ff 0C       		.byte	12
 6284 0600 00       		.byte	0
 6285 0601 00       		.byte	0
 6286 0602 00       		.byte	0
 6287 0603 00       		.byte	0
 6288 0604 0F       		.byte	15
 6289 0605 FC       		.byte	-4
 6290 0606 0F       		.byte	15
 6291 0607 FC       		.byte	-4
 6292 0608 0E       		.byte	14
 6293 0609 00       		.byte	0
 6294 060a 07       		.byte	7
 6295 060b 00       		.byte	0
 6296 060c 03       		.byte	3
 6297 060d C0       		.byte	-64
 6298 060e 03       		.byte	3
 6299 060f C0       		.byte	-64
 6300 0610 07       		.byte	7
 6301 0611 00       		.byte	0
 6302 0612 0E       		.byte	14
 6303 0613 00       		.byte	0
 6304 0614 0F       		.byte	15
 6305 0615 FC       		.byte	-4
 6306 0616 0F       		.byte	15
 6307 0617 FC       		.byte	-4
 6308 0618 0F       		.byte	15
 6309 0619 FC       		.byte	-4
 6310 061a 0F       		.byte	15
 6311 061b FC       		.byte	-4
 6312 061c 03       		.byte	3
 6313 061d 00       		.byte	0
 6314 061e 07       		.byte	7
 6315 061f 00       		.byte	0
 6316 0620 0E       		.byte	14
 6317 0621 00       		.byte	0
 6318 0622 0C       		.byte	12
 6319 0623 00       		.byte	0
 6320 0624 0C       		.byte	12
 6321 0625 00       		.byte	0
 6322 0626 0E       		.byte	14
 6323 0627 00       		.byte	0
 6324 0628 07       		.byte	7
 6325 0629 FC       		.byte	-4
 6326 062a 03       		.byte	3
 6327 062b FC       		.byte	-4
 6328 062c 03       		.byte	3
 6329 062d F0       		.byte	-16
 6330 062e 07       		.byte	7
 6331 062f F8       		.byte	-8
 6332 0630 0E       		.byte	14
 6333 0631 1C       		.byte	28
 6334 0632 0C       		.byte	12
 6335 0633 0C       		.byte	12
 6336 0634 0C       		.byte	12
 6337 0635 0C       		.byte	12
 6338 0636 0C       		.byte	12
 6339 0637 0C       		.byte	12
 6340 0638 0C       		.byte	12
 6341 0639 0C       		.byte	12
 6342 063a 0E       		.byte	14
 6343 063b 1C       		.byte	28
 6344 063c 07       		.byte	7
 6345 063d F8       		.byte	-8
 6346 063e 03       		.byte	3
 6347 063f F0       		.byte	-16
 6348 0640 0F       		.byte	15
 6349 0641 FC       		.byte	-4
 6350 0642 0F       		.byte	15
 6351 0643 FC       		.byte	-4
 6352 0644 0C       		.byte	12
 6353 0645 C0       		.byte	-64
 6354 0646 0C       		.byte	12
 6355 0647 C0       		.byte	-64
 6356 0648 0C       		.byte	12
 6357 0649 C0       		.byte	-64
 6358 064a 0C       		.byte	12
 6359 064b C0       		.byte	-64
 6360 064c 0C       		.byte	12
 6361 064d C0       		.byte	-64
 6362 064e 0F       		.byte	15
 6363 064f C0       		.byte	-64
 6364 0650 07       		.byte	7
 6365 0651 80       		.byte	-128
 6366 0652 03       		.byte	3
 6367 0653 00       		.byte	0
 6368 0654 03       		.byte	3
 6369 0655 00       		.byte	0
 6370 0656 07       		.byte	7
 6371 0657 80       		.byte	-128
 6372 0658 0F       		.byte	15
 6373 0659 C0       		.byte	-64
 6374 065a 0C       		.byte	12
 6375 065b C0       		.byte	-64
 6376 065c 0C       		.byte	12
 6377 065d C0       		.byte	-64
 6378 065e 0C       		.byte	12
 6379 065f C0       		.byte	-64
 6380 0660 0C       		.byte	12
 6381 0661 C0       		.byte	-64
 6382 0662 0C       		.byte	12
 6383 0663 C0       		.byte	-64
 6384 0664 0F       		.byte	15
 6385 0665 FC       		.byte	-4
 6386 0666 0F       		.byte	15
 6387 0667 FC       		.byte	-4
 6388 0668 0F       		.byte	15
 6389 0669 FC       		.byte	-4
 6390 066a 0F       		.byte	15
 6391 066b FC       		.byte	-4
 6392 066c 03       		.byte	3
 6393 066d 80       		.byte	-128
 6394 066e 07       		.byte	7
 6395 066f 00       		.byte	0
 6396 0670 0E       		.byte	14
 6397 0671 00       		.byte	0
 6398 0672 0C       		.byte	12
 6399 0673 00       		.byte	0
 6400 0674 0C       		.byte	12
 6401 0675 00       		.byte	0
 6402 0676 0E       		.byte	14
 6403 0677 00       		.byte	0
 6404 0678 07       		.byte	7
 6405 0679 00       		.byte	0
 6406 067a 03       		.byte	3
 6407 067b 00       		.byte	0
 6408 067c 03       		.byte	3
 6409 067d 18       		.byte	24
 6410 067e 07       		.byte	7
 6411 067f 9C       		.byte	-100
 6412 0680 0F       		.byte	15
 6413 0681 CC       		.byte	-52
 6414 0682 0C       		.byte	12
 6415 0683 CC       		.byte	-52
 6416 0684 0C       		.byte	12
 6417 0685 CC       		.byte	-52
 6418 0686 0C       		.byte	12
 6419 0687 CC       		.byte	-52
 6420 0688 0C       		.byte	12
 6421 0689 CC       		.byte	-52
 6422 068a 0C       		.byte	12
 6423 068b FC       		.byte	-4
 6424 068c 0E       		.byte	14
 6425 068d 78       		.byte	120
 6426 068e 06       		.byte	6
 6427 068f 30       		.byte	48
 6428 0690 00       		.byte	0
 6429 0691 00       		.byte	0
 6430 0692 0C       		.byte	12
 6431 0693 00       		.byte	0
 6432 0694 0C       		.byte	12
 6433 0695 00       		.byte	0
 6434 0696 FF       		.byte	-1
 6435 0697 F0       		.byte	-16
 6436 0698 FF       		.byte	-1
 6437 0699 F8       		.byte	-8
 6438 069a 0C       		.byte	12
 6439 069b 1C       		.byte	28
 6440 069c 0C       		.byte	12
 6441 069d 1C       		.byte	28
 6442 069e 0C       		.byte	12
 6443 069f 38       		.byte	56
 6444 06a0 0C       		.byte	12
 6445 06a1 30       		.byte	48
 6446 06a2 00       		.byte	0
 6447 06a3 00       		.byte	0
 6448 06a4 0F       		.byte	15
 6449 06a5 F0       		.byte	-16
 6450 06a6 0F       		.byte	15
 6451 06a7 F8       		.byte	-8
 6452 06a8 00       		.byte	0
 6453 06a9 1C       		.byte	28
 6454 06aa 00       		.byte	0
 6455 06ab 0C       		.byte	12
 6456 06ac 00       		.byte	0
 6457 06ad 0C       		.byte	12
 6458 06ae 00       		.byte	0
 6459 06af 0C       		.byte	12
 6460 06b0 00       		.byte	0
 6461 06b1 0C       		.byte	12
 6462 06b2 00       		.byte	0
 6463 06b3 1C       		.byte	28
 6464 06b4 0F       		.byte	15
 6465 06b5 F8       		.byte	-8
 6466 06b6 0F       		.byte	15
 6467 06b7 F0       		.byte	-16
 6468 06b8 0F       		.byte	15
 6469 06b9 C0       		.byte	-64
 6470 06ba 0F       		.byte	15
 6471 06bb E0       		.byte	-32
 6472 06bc 00       		.byte	0
 6473 06bd 70       		.byte	112
 6474 06be 00       		.byte	0
 6475 06bf 38       		.byte	56
 6476 06c0 00       		.byte	0
 6477 06c1 1C       		.byte	28
 6478 06c2 00       		.byte	0
 6479 06c3 1C       		.byte	28
 6480 06c4 00       		.byte	0
 6481 06c5 38       		.byte	56
 6482 06c6 00       		.byte	0
 6483 06c7 70       		.byte	112
 6484 06c8 0F       		.byte	15
 6485 06c9 E0       		.byte	-32
 6486 06ca 0F       		.byte	15
 6487 06cb C0       		.byte	-64
 6488 06cc 0F       		.byte	15
 6489 06cd F0       		.byte	-16
 6490 06ce 0F       		.byte	15
 6491 06cf F8       		.byte	-8
 6492 06d0 00       		.byte	0
 6493 06d1 1C       		.byte	28
 6494 06d2 00       		.byte	0
 6495 06d3 1C       		.byte	28
 6496 06d4 00       		.byte	0
 6497 06d5 F8       		.byte	-8
 6498 06d6 00       		.byte	0
 6499 06d7 F8       		.byte	-8
 6500 06d8 00       		.byte	0
 6501 06d9 1C       		.byte	28
 6502 06da 00       		.byte	0
 6503 06db 1C       		.byte	28
 6504 06dc 0F       		.byte	15
 6505 06dd F8       		.byte	-8
 6506 06de 0F       		.byte	15
 6507 06df F0       		.byte	-16
 6508 06e0 0C       		.byte	12
 6509 06e1 0C       		.byte	12
 6510 06e2 0E       		.byte	14
 6511 06e3 1C       		.byte	28
 6512 06e4 07       		.byte	7
 6513 06e5 38       		.byte	56
 6514 06e6 03       		.byte	3
 6515 06e7 F0       		.byte	-16
 6516 06e8 01       		.byte	1
 6517 06e9 E0       		.byte	-32
 6518 06ea 01       		.byte	1
 6519 06eb E0       		.byte	-32
 6520 06ec 03       		.byte	3
 6521 06ed F0       		.byte	-16
 6522 06ee 07       		.byte	7
 6523 06ef 38       		.byte	56
 6524 06f0 0E       		.byte	14
 6525 06f1 1C       		.byte	28
 6526 06f2 0C       		.byte	12
 6527 06f3 0C       		.byte	12
 6528 06f4 0C       		.byte	12
 6529 06f5 00       		.byte	0
 6530 06f6 0E       		.byte	14
 6531 06f7 00       		.byte	0
 6532 06f8 07       		.byte	7
 6533 06f9 0C       		.byte	12
 6534 06fa 03       		.byte	3
 6535 06fb 9C       		.byte	-100
 6536 06fc 01       		.byte	1
 6537 06fd F8       		.byte	-8
 6538 06fe 01       		.byte	1
 6539 06ff F0       		.byte	-16
 6540 0700 03       		.byte	3
 6541 0701 80       		.byte	-128
 6542 0702 07       		.byte	7
 6543 0703 00       		.byte	0
 6544 0704 0E       		.byte	14
 6545 0705 00       		.byte	0
 6546 0706 0C       		.byte	12
 6547 0707 00       		.byte	0
 6548 0708 0C       		.byte	12
 6549 0709 0C       		.byte	12
 6550 070a 0C       		.byte	12
 6551 070b 1C       		.byte	28
 6552 070c 0C       		.byte	12
 6553 070d 3C       		.byte	60
 6554 070e 0C       		.byte	12
 6555 070f 7C       		.byte	124
 6556 0710 0C       		.byte	12
 6557 0711 EC       		.byte	-20
 6558 0712 0D       		.byte	13
 6559 0713 CC       		.byte	-52
 6560 0714 0F       		.byte	15
 6561 0715 8C       		.byte	-116
 6562 0716 0F       		.byte	15
 6563 0717 0C       		.byte	12
 6564 0718 0E       		.byte	14
 6565 0719 0C       		.byte	12
 6566 071a 0C       		.byte	12
 6567 071b 0C       		.byte	12
 6568 071c 00       		.byte	0
 6569 071d 00       		.byte	0
 6570 071e 03       		.byte	3
 6571 071f 00       		.byte	0
 6572 0720 07       		.byte	7
 6573 0721 80       		.byte	-128
 6574 0722 3F       		.byte	63
 6575 0723 F0       		.byte	-16
 6576 0724 7C       		.byte	124
 6577 0725 F8       		.byte	-8
 6578 0726 E0       		.byte	-32
 6579 0727 1C       		.byte	28
 6580 0728 C0       		.byte	-64
 6581 0729 0C       		.byte	12
 6582 072a C0       		.byte	-64
 6583 072b 0C       		.byte	12
 6584 072c C0       		.byte	-64
 6585 072d 0C       		.byte	12
 6586 072e 00       		.byte	0
 6587 072f 00       		.byte	0
 6588 0730 03       		.byte	3
 6589 0731 0C       		.byte	12
 6590 0732 03       		.byte	3
 6591 0733 0C       		.byte	12
 6592 0734 3F       		.byte	63
 6593 0735 FC       		.byte	-4
 6594 0736 7F       		.byte	127
 6595 0737 FC       		.byte	-4
 6596 0738 E3       		.byte	-29
 6597 0739 0C       		.byte	12
 6598 073a C3       		.byte	-61
 6599 073b 0C       		.byte	12
 6600 073c C0       		.byte	-64
 6601 073d 0C       		.byte	12
 6602 073e E0       		.byte	-32
 6603 073f 0C       		.byte	12
 6604 0740 70       		.byte	112
 6605 0741 0C       		.byte	12
 6606 0742 30       		.byte	48
 6607 0743 0C       		.byte	12
 6608 0744 00       		.byte	0
 6609 0745 00       		.byte	0
 6610 0746 C0       		.byte	-64
 6611 0747 0C       		.byte	12
 6612 0748 C0       		.byte	-64
 6613 0749 0C       		.byte	12
 6614 074a C0       		.byte	-64
 6615 074b 0C       		.byte	12
 6616 074c E0       		.byte	-32
 6617 074d 1C       		.byte	28
 6618 074e 7C       		.byte	124
 6619 074f F8       		.byte	-8
 6620 0750 3F       		.byte	63
 6621 0751 F0       		.byte	-16
 6622 0752 07       		.byte	7
 6623 0753 80       		.byte	-128
 6624 0754 03       		.byte	3
 6625 0755 00       		.byte	0
 6626 0756 00       		.byte	0
 6627 0757 00       		.byte	0
 6628 0758 C0       		.byte	-64
 6629 0759 00       		.byte	0
 6630 075a C0       		.byte	-64
 6631 075b 00       		.byte	0
 6632 075c C0       		.byte	-64
 6633 075d 00       		.byte	0
 6634 075e C0       		.byte	-64
 6635 075f 00       		.byte	0
 6636 0760 C0       		.byte	-64
 6637 0761 00       		.byte	0
 6638 0762 C0       		.byte	-64
 6639 0763 00       		.byte	0
 6640 0764 C0       		.byte	-64
 6641 0765 00       		.byte	0
 6642 0766 C0       		.byte	-64
 6643 0767 00       		.byte	0
 6644 0768 C0       		.byte	-64
 6645 0769 00       		.byte	0
 6646 076a C0       		.byte	-64
 6647 076b 00       		.byte	0
 6648 076c FF       		.byte	-1
 6649 076d FC       		.byte	-4
 6650 076e FF       		.byte	-1
 6651 076f FC       		.byte	-4
 6652 0770 FF       		.byte	-1
 6653 0771 FC       		.byte	-4
 6654 0772 FF       		.byte	-1
 6655 0773 FC       		.byte	-4
 6656 0774 FF       		.byte	-1
 6657 0775 FC       		.byte	-4
 6658 0776 FF       		.byte	-1
 6659 0777 FC       		.byte	-4
 6660 0778 FF       		.byte	-1
 6661 0779 FC       		.byte	-4
 6662 077a FF       		.byte	-1
 6663 077b FC       		.byte	-4
 6664 077c FF       		.byte	-1
 6665 077d FC       		.byte	-4
 6666 077e FF       		.byte	-1
 6667 077f FC       		.byte	-4
 6668              		.section	.rodata.str1.4,"aMS",%progbits,1
 6669              		.align	2
 6670              	.LC0:
 6671 0000 494C4939 		.ascii	"ILI9341_CMD_READ_DISP_STATUS = %2x %2x %2x %2x\015\012"
 6671      3334315F 
 6671      434D445F 
 6671      52454144 
 6671      5F444953 
 6672 0030 00       		.ascii	"\000"
 6673 0031 000000   		.space	3
 6674              	.LC1:
 6675 0034 494C4939 		.ascii	"ILI9341_CMD_READ_DISP_ID = %2x %2x %2x\015\012\000"
 6675      3334315F 
 6675      434D445F 
 6675      52454144 
 6675      5F444953 
 6676 005d 000000   		.space	3
 6677              	.LC2:
 6678 0060 494C4939 		.ascii	"ILI9341_CMD_READ_DISP_POWER_MODE = %2x\015\012\000"
 6678      3334315F 
 6678      434D445F 
 6678      52454144 
 6678      5F444953 
 6679 0089 000000   		.space	3
 6680              	.LC3:
 6681 008c 494C4939 		.ascii	"ILI9341_CMD_READ_DISP_MADCTRL = %2x\015\012\000"
 6681      3334315F 
 6681      434D445F 
 6681      52454144 
 6681      5F444953 
 6682 00b2 0000     		.space	2
 6683              	.LC4:
 6684 00b4 44657669 		.ascii	"Device type identifity = %x\012\011\000"
 6684      63652074 
 6684      79706520 
 6684      6964656E 
 6684      74696669 
 6685              		.section	.data.g_ul_lcd_x_length,"aw",%progbits
 6686              		.align	2
 6687              		.set	.LANCHOR0,. + 0
 6690              	g_ul_lcd_x_length:
 6691 0000 F0000000 		.word	240
 6692              		.section	.rodata.gfont,"a",%progbits
 6693              		.align	2
 6696              	gfont:
 6697 0000 0A       		.byte	10
 6698 0001 0E       		.byte	14
 6699              		.section	.data.g_ul_lcd_y_length,"aw",%progbits
 6700              		.align	2
 6701              		.set	.LANCHOR1,. + 0
 6704              	g_ul_lcd_y_length:
 6705 0000 40010000 		.word	320
 6706              		.section	.bss.g_uc_device_type,"aw",%nobits
 6707              		.set	.LANCHOR2,. + 0
 6710              	g_uc_device_type:
 6711 0000 00       		.space	1
 6712              		.section	.bss.limit_start_y,"aw",%nobits
 6713              		.align	1
 6714              		.set	.LANCHOR6,. + 0
 6717              	limit_start_y:
 6718 0000 0000     		.space	2
 6719              		.section	.bss.cpu_irq_prev_interrupt_state,"aw",%nobits
 6722              	cpu_irq_prev_interrupt_state:
 6723 0000 00       		.space	1
 6724              		.section	.bss.g_by_transfend_flag,"aw",%nobits
 6727              	g_by_transfend_flag:
 6728 0000 00       		.space	1
 6729              		.text
 6730              	.Letext0:
 6731              		.file 4 "/usr/local/gcc-arm-none-eabi-5_2-2015q4/arm-none-eabi/include/machine/_default_types.h"
 6732              		.file 5 "/usr/local/gcc-arm-none-eabi-5_2-2015q4/arm-none-eabi/include/sys/lock.h"
 6733              		.file 6 "/usr/local/gcc-arm-none-eabi-5_2-2015q4/arm-none-eabi/include/sys/_types.h"
 6734              		.file 7 "/usr/local/gcc-arm-none-eabi-5_2-2015q4/lib/gcc/arm-none-eabi/5.2.1/include/stddef.h"
 6735              		.file 8 "/usr/local/gcc-arm-none-eabi-5_2-2015q4/arm-none-eabi/include/sys/reent.h"
 6736              		.file 9 "/usr/local/gcc-arm-none-eabi-5_2-2015q4/arm-none-eabi/include/sys/_stdint.h"
 6737              		.file 10 "/home/bekeband/workspace/OLIMEX_Start/src/sam3s4b.h"
 6738              		.file 11 "/home/bekeband/workspace/OLIMEX_Start/src/component/component_spi.h"
 6739              		.file 12 "/home/bekeband/workspace/OLIMEX_Start/src/ili93xx.h"
 6740              		.file 13 "/home/bekeband/workspace/OLIMEX_Start/src/status_codes.h"
 6741              		.file 14 "/home/bekeband/workspace/OLIMEX_Start/src/sam_spi/spi_master.h"
 6742              		.file 15 "/home/bekeband/workspace/OLIMEX_Start/src/interrupt/interrupt_sam_nvic.h"
 6743              		.file 16 "/home/bekeband/workspace/OLIMEX_Start/src/stdio_serial.h"
 6744              		.file 17 "/home/bekeband/workspace/OLIMEX_Start/src/pio/pio.h"
 6745              		.file 18 "/usr/local/gcc-arm-none-eabi-5_2-2015q4/arm-none-eabi/include/stdio.h"
DEFINED SYMBOLS
                            *ABS*:00000000 ili93xx.c
     /tmp/cch7Cxob.s:20     .text.ili93xx_delay:00000000 $t
     /tmp/cch7Cxob.s:24     .text.ili93xx_delay:00000000 ili93xx_delay
     /tmp/cch7Cxob.s:72     .text.ili93xx_delay:0000002c $d
     /tmp/cch7Cxob.s:77     .text.ili93xx_check_box_coordinates:00000000 $t
     /tmp/cch7Cxob.s:81     .text.ili93xx_check_box_coordinates:00000000 ili93xx_check_box_coordinates
     /tmp/cch7Cxob.s:164    .text.ili93xx_check_box_coordinates:00000050 $d
     /tmp/cch7Cxob.s:170    .text.ili9341_write_cmd:00000000 $t
     /tmp/cch7Cxob.s:174    .text.ili9341_write_cmd:00000000 ili9341_write_cmd
     /tmp/cch7Cxob.s:202    .text.ili9341_write_cmd:00000018 $d
     /tmp/cch7Cxob.s:207    .text.ili93xx_write_ram_prepare:00000000 $t
     /tmp/cch7Cxob.s:211    .text.ili93xx_write_ram_prepare:00000000 ili93xx_write_ram_prepare
     /tmp/cch7Cxob.s:238    .text.ili93xx_write_ram_prepare:00000018 $d
     /tmp/cch7Cxob.s:243    .text.ili93xx_write_ram:00000000 $t
     /tmp/cch7Cxob.s:247    .text.ili93xx_write_ram:00000000 ili93xx_write_ram
     /tmp/cch7Cxob.s:285    .text.ili93xx_write_ram:00000028 $d
     /tmp/cch7Cxob.s:290    .text.ili93xx_write_ram_buffer:00000000 $t
     /tmp/cch7Cxob.s:294    .text.ili93xx_write_ram_buffer:00000000 ili93xx_write_ram_buffer
     /tmp/cch7Cxob.s:381    .text.ili93xx_read_register:00000000 $t
     /tmp/cch7Cxob.s:385    .text.ili93xx_read_register:00000000 ili93xx_read_register
     /tmp/cch7Cxob.s:431    .text.ili93xx_read_register:00000030 $d
     /tmp/cch7Cxob.s:436    .text.ili93xx_write_register_datas:00000000 $t
     /tmp/cch7Cxob.s:440    .text.ili93xx_write_register_datas:00000000 ili93xx_write_register_datas
     /tmp/cch7Cxob.s:491    .text.ili93xx_write_register_datas:00000034 $d
     /tmp/cch7Cxob.s:496    .text.ili93xx_write_register_word:00000000 $t
     /tmp/cch7Cxob.s:500    .text.ili93xx_write_register_word:00000000 ili93xx_write_register_word
     /tmp/cch7Cxob.s:529    .text.ili93xx_write_register:00000000 $t
     /tmp/cch7Cxob.s:533    .text.ili93xx_write_register:00000000 ili93xx_write_register
     /tmp/cch7Cxob.s:624    .text.ili93xx_write_register:00000058 $d
     /tmp/cch7Cxob.s:629    .text.ili93xx_read_ram_prepare:00000000 $t
     /tmp/cch7Cxob.s:633    .text.ili93xx_read_ram_prepare:00000000 ili93xx_read_ram_prepare
     /tmp/cch7Cxob.s:677    .text.ili93xx_read_ram_prepare:0000002c $d
     /tmp/cch7Cxob.s:683    .text.ili93xx_read_ram:00000000 $t
     /tmp/cch7Cxob.s:687    .text.ili93xx_read_ram:00000000 ili93xx_read_ram
     /tmp/cch7Cxob.s:770    .text.ili93xx_read_ram:00000060 $d
     /tmp/cch7Cxob.s:775    .text.ili93xx_device_type_identify:00000000 $t
     /tmp/cch7Cxob.s:780    .text.ili93xx_device_type_identify:00000000 ili93xx_device_type_identify
     /tmp/cch7Cxob.s:903    .text.ili93xx_device_type_identify:000000c8 $d
     /tmp/cch7Cxob.s:913    .text.ili93xx_device_type:00000000 $t
     /tmp/cch7Cxob.s:918    .text.ili93xx_device_type:00000000 ili93xx_device_type
     /tmp/cch7Cxob.s:932    .text.ili93xx_device_type:00000008 $d
     /tmp/cch7Cxob.s:937    .text.ili93xx_display_on:00000000 $t
     /tmp/cch7Cxob.s:942    .text.ili93xx_display_on:00000000 ili93xx_display_on
     /tmp/cch7Cxob.s:976    .text.ili93xx_display_on:00000024 $d
     /tmp/cch7Cxob.s:981    .text.ili93xx_display_off:00000000 $t
     /tmp/cch7Cxob.s:986    .text.ili93xx_display_off:00000000 ili93xx_display_off
     /tmp/cch7Cxob.s:1020   .text.ili93xx_display_off:00000020 $d
     /tmp/cch7Cxob.s:1025   .text.ili93xx_set_foreground_color:00000000 $t
     /tmp/cch7Cxob.s:1030   .text.ili93xx_set_foreground_color:00000000 ili93xx_set_foreground_color
     /tmp/cch7Cxob.s:1058   .text.ili93xx_set_foreground_color:00000014 $d
     /tmp/cch7Cxob.s:1063   .text.ili93xx_set_window:00000000 $t
     /tmp/cch7Cxob.s:1068   .text.ili93xx_set_window:00000000 ili93xx_set_window
     /tmp/cch7Cxob.s:1187   .text.ili93xx_set_window:0000009c $d
     /tmp/cch7Cxob.s:1192   .text.ili93xx_init_w_spi:00000000 $t
     /tmp/cch7Cxob.s:1197   .text.ili93xx_init_w_spi:00000000 ili93xx_init_w_spi
     /tmp/cch7Cxob.s:1512   .text.ili93xx_init_w_spi:000001c0 $d
     /tmp/cch7Cxob.s:1522   .text.ili93xx_set_cursor_position:00000000 $t
     /tmp/cch7Cxob.s:1527   .text.ili93xx_set_cursor_position:00000000 ili93xx_set_cursor_position
     /tmp/cch7Cxob.s:1567   .text.ili93xx_set_cursor_position:00000020 $d
     /tmp/cch7Cxob.s:1572   .text.ili93xx_init:00000000 $t
     /tmp/cch7Cxob.s:1577   .text.ili93xx_init:00000000 ili93xx_init
     /tmp/cch7Cxob.s:2066   .text.ili93xx_init:00000334 $d
     /tmp/cch7Cxob.s:2073   .text.ili93xx_fill:00000000 $t
     /tmp/cch7Cxob.s:2078   .text.ili93xx_fill:00000000 ili93xx_fill
     /tmp/cch7Cxob.s:2145   .text.ili93xx_fill:00000044 $d
     /tmp/cch7Cxob.s:2152   .text.ili93xx_scroll:00000000 $t
     /tmp/cch7Cxob.s:2157   .text.ili93xx_scroll:00000000 ili93xx_scroll
     /tmp/cch7Cxob.s:2209   .text.ili93xx_scroll:00000034 $d
     /tmp/cch7Cxob.s:2214   .text.ili93xx_vscroll_area_define:00000000 $t
     /tmp/cch7Cxob.s:2219   .text.ili93xx_vscroll_area_define:00000000 ili93xx_vscroll_area_define
     /tmp/cch7Cxob.s:2276   .text.ili93xx_vscroll_area_define:0000003c $d
     /tmp/cch7Cxob.s:2281   .text.ili93xx_enable_scroll:00000000 $t
     /tmp/cch7Cxob.s:2286   .text.ili93xx_enable_scroll:00000000 ili93xx_enable_scroll
     /tmp/cch7Cxob.s:2311   .text.ili93xx_enable_scroll:00000014 $d
     /tmp/cch7Cxob.s:2316   .text.ili93xx_disable_scroll:00000000 $t
     /tmp/cch7Cxob.s:2321   .text.ili93xx_disable_scroll:00000000 ili93xx_disable_scroll
     /tmp/cch7Cxob.s:2363   .text.ili93xx_disable_scroll:0000002c $d
     /tmp/cch7Cxob.s:2368   .text.ili93xx_set_display_direction:00000000 $t
     /tmp/cch7Cxob.s:2373   .text.ili93xx_set_display_direction:00000000 ili93xx_set_display_direction
     /tmp/cch7Cxob.s:2523   .text.ili93xx_set_display_direction:000000bc $d
     /tmp/cch7Cxob.s:2530   .text.ili93xx_draw_pixel:00000000 $t
     /tmp/cch7Cxob.s:2535   .text.ili93xx_draw_pixel:00000000 ili93xx_draw_pixel
     /tmp/cch7Cxob.s:2621   .text.ili93xx_draw_pixel:0000005c $d
     /tmp/cch7Cxob.s:2629   .text.ili93xx_draw_line_bresenham:00000000 $t
     /tmp/cch7Cxob.s:2633   .text.ili93xx_draw_line_bresenham:00000000 ili93xx_draw_line_bresenham
     /tmp/cch7Cxob.s:2777   .text.ili93xx_draw_char:00000000 $t
     /tmp/cch7Cxob.s:2781   .text.ili93xx_draw_char:00000000 ili93xx_draw_char
     /tmp/cch7Cxob.s:2881   .text.ili93xx_draw_char:00000078 $d
     /tmp/cch7Cxob.s:2886   .text.ili93xx_get_pixel:00000000 $t
     /tmp/cch7Cxob.s:2891   .text.ili93xx_get_pixel:00000000 ili93xx_get_pixel
     /tmp/cch7Cxob.s:2950   .text.ili93xx_get_pixel:0000003c $d
     /tmp/cch7Cxob.s:2955   .text.ili93xx_draw_filled_rectangle:00000000 $t
     /tmp/cch7Cxob.s:2960   .text.ili93xx_draw_filled_rectangle:00000000 ili93xx_draw_filled_rectangle
     /tmp/cch7Cxob.s:3072   .text.ili93xx_draw_filled_rectangle:00000098 $d
     /tmp/cch7Cxob.s:3080   .text.ili93xx_draw_line:00000000 $t
     /tmp/cch7Cxob.s:3085   .text.ili93xx_draw_line:00000000 ili93xx_draw_line
     /tmp/cch7Cxob.s:3117   .text.ili93xx_draw_rectangle:00000000 $t
     /tmp/cch7Cxob.s:3122   .text.ili93xx_draw_rectangle:00000000 ili93xx_draw_rectangle
     /tmp/cch7Cxob.s:3188   .text.ili93xx_draw_circle:00000000 $t
     /tmp/cch7Cxob.s:3193   .text.ili93xx_draw_circle:00000000 ili93xx_draw_circle
     /tmp/cch7Cxob.s:3328   .text.ili93xx_draw_filled_circle:00000000 $t
     /tmp/cch7Cxob.s:3333   .text.ili93xx_draw_filled_circle:00000000 ili93xx_draw_filled_circle
     /tmp/cch7Cxob.s:3490   .text.ili93xx_draw_string:00000000 $t
     /tmp/cch7Cxob.s:3495   .text.ili93xx_draw_string:00000000 ili93xx_draw_string
     /tmp/cch7Cxob.s:3553   .text.ili93xx_draw_pixmap:00000000 $t
     /tmp/cch7Cxob.s:3558   .text.ili93xx_draw_pixmap:00000000 ili93xx_draw_pixmap
     /tmp/cch7Cxob.s:3680   .text.ili93xx_draw_pixmap:000000a8 $d
     /tmp/cch7Cxob.s:3687   .text.ili93xx_set_top_left_limit:00000000 $t
     /tmp/cch7Cxob.s:3692   .text.ili93xx_set_top_left_limit:00000000 ili93xx_set_top_left_limit
     /tmp/cch7Cxob.s:3774   .text.ili93xx_set_top_left_limit:00000060 $d
     /tmp/cch7Cxob.s:3783   .text.ili93xx_set_bottom_right_limit:00000000 $t
     /tmp/cch7Cxob.s:3788   .text.ili93xx_set_bottom_right_limit:00000000 ili93xx_set_bottom_right_limit
     /tmp/cch7Cxob.s:3923   .text.ili93xx_set_bottom_right_limit:000000c4 $d
     /tmp/cch7Cxob.s:3932   .text.ili93xx_set_limits:00000000 $t
     /tmp/cch7Cxob.s:3937   .text.ili93xx_set_limits:00000000 ili93xx_set_limits
     /tmp/cch7Cxob.s:4080   .text.ili93xx_set_limits:000000cc $d
     /tmp/cch7Cxob.s:4089   .text.ili93xx_read_gram:00000000 $t
     /tmp/cch7Cxob.s:4094   .text.ili93xx_read_gram:00000000 ili93xx_read_gram
     /tmp/cch7Cxob.s:4187   .text.ili93xx_read_gram:00000070 $d
     /tmp/cch7Cxob.s:4192   .text.ili93xx_write_gram:00000000 $t
     /tmp/cch7Cxob.s:4197   .text.ili93xx_write_gram:00000000 ili93xx_write_gram
     /tmp/cch7Cxob.s:4263   .text.ili93xx_write_gram:00000044 $d
     /tmp/cch7Cxob.s:4268   .text.ili93xx_copy_pixels_to_screen:00000000 $t
     /tmp/cch7Cxob.s:4273   .text.ili93xx_copy_pixels_to_screen:00000000 ili93xx_copy_pixels_to_screen
     /tmp/cch7Cxob.s:4359   .text.ili93xx_copy_pixels_to_screen:00000058 $d
     /tmp/cch7Cxob.s:4364   .text.ili93xx_copy_raw_pixel_24bits_to_screen:00000000 $t
     /tmp/cch7Cxob.s:4369   .text.ili93xx_copy_raw_pixel_24bits_to_screen:00000000 ili93xx_copy_raw_pixel_24bits_to_screen
     /tmp/cch7Cxob.s:4462   .text.ili93xx_copy_raw_pixel_24bits_to_screen:0000005c $d
     /tmp/cch7Cxob.s:4467   .text.ili93xx_duplicate_pixel:00000000 $t
     /tmp/cch7Cxob.s:4472   .text.ili93xx_duplicate_pixel:00000000 ili93xx_duplicate_pixel
     /tmp/cch7Cxob.s:4555   .text.ili93xx_duplicate_pixel:00000050 $d
     /tmp/cch7Cxob.s:4560   .text.ili93xx_copy_pixels_from_screen:00000000 $t
     /tmp/cch7Cxob.s:4565   .text.ili93xx_copy_pixels_from_screen:00000000 ili93xx_copy_pixels_from_screen
     /tmp/cch7Cxob.s:4578   .text.ili93xx_set_orientation:00000000 $t
     /tmp/cch7Cxob.s:4583   .text.ili93xx_set_orientation:00000000 ili93xx_set_orientation
     /tmp/cch7Cxob.s:4678   .text.ili93xx_set_orientation:0000007c $d
     /tmp/cch7Cxob.s:4683   .text.ili93xx_get_lcd_type:00000000 $t
     /tmp/cch7Cxob.s:4688   .text.ili93xx_get_lcd_type:00000000 ili93xx_get_lcd_type
     /tmp/cch7Cxob.s:4702   .text.ili93xx_get_lcd_type:00000008 $d
     /tmp/cch7Cxob.s:4747   .rodata.p_uc_charset10x14:00000000 p_uc_charset10x14
     /tmp/cch7Cxob.s:6696   .rodata.gfont:00000000 gfont
     /tmp/cch7Cxob.s:4709   .bss.limit_end_x:00000000 $d
     /tmp/cch7Cxob.s:4713   .bss.limit_end_x:00000000 limit_end_x
     /tmp/cch7Cxob.s:4716   .bss.limit_end_y:00000000 $d
     /tmp/cch7Cxob.s:4720   .bss.limit_end_y:00000000 limit_end_y
     /tmp/cch7Cxob.s:4723   .bss.cpu_irq_critical_section_counter:00000000 $d
     /tmp/cch7Cxob.s:4726   .bss.cpu_irq_critical_section_counter:00000000 cpu_irq_critical_section_counter
     /tmp/cch7Cxob.s:4729   .bss.g_ul_pixel_cache:00000000 $d
     /tmp/cch7Cxob.s:4733   .bss.g_ul_pixel_cache:00000000 g_ul_pixel_cache
     /tmp/cch7Cxob.s:4736   .bss.limit_start_x:00000000 $d
     /tmp/cch7Cxob.s:4740   .bss.limit_start_x:00000000 limit_start_x
     /tmp/cch7Cxob.s:4743   .rodata.p_uc_charset10x14:00000000 $d
     /tmp/cch7Cxob.s:6669   .rodata.str1.4:00000000 $d
     /tmp/cch7Cxob.s:6686   .data.g_ul_lcd_x_length:00000000 $d
     /tmp/cch7Cxob.s:6690   .data.g_ul_lcd_x_length:00000000 g_ul_lcd_x_length
     /tmp/cch7Cxob.s:6693   .rodata.gfont:00000000 $d
     /tmp/cch7Cxob.s:6700   .data.g_ul_lcd_y_length:00000000 $d
     /tmp/cch7Cxob.s:6704   .data.g_ul_lcd_y_length:00000000 g_ul_lcd_y_length
     /tmp/cch7Cxob.s:6710   .bss.g_uc_device_type:00000000 g_uc_device_type
     /tmp/cch7Cxob.s:6711   .bss.g_uc_device_type:00000000 $d
     /tmp/cch7Cxob.s:6713   .bss.limit_start_y:00000000 $d
     /tmp/cch7Cxob.s:6717   .bss.limit_start_y:00000000 limit_start_y
     /tmp/cch7Cxob.s:6722   .bss.cpu_irq_prev_interrupt_state:00000000 cpu_irq_prev_interrupt_state
     /tmp/cch7Cxob.s:6723   .bss.cpu_irq_prev_interrupt_state:00000000 $d
     /tmp/cch7Cxob.s:6727   .bss.g_by_transfend_flag:00000000 g_by_transfend_flag
     /tmp/cch7Cxob.s:6728   .bss.g_by_transfend_flag:00000000 $d
                     .debug_frame:00000010 $d
                           .group:00000000 wm4.0.22b0b12aa5a71f1d303bb4102a500f20
                           .group:00000000 wm4.newlib.h.8.2702bca278809460f0af6fba1d84eb68
                           .group:00000000 wm4.features.h.22.2e382148a0560adabf236cddd4e880f4
                           .group:00000000 wm4.config.h.220.a09b0b0de3c25be3f39d71990e617bff
                           .group:00000000 wm4._ansi.h.23.9f8fcfa20193763fcf364fb91705c94b
                           .group:00000000 wm4.stddef.h.39.a38874c8f8a57e66301090908ec2a69f
                           .group:00000000 wm4._default_types.h.6.35ee9e747940367bf2a634907d1c2382
                           .group:00000000 wm4.lock.h.2.9bc98482741e5e2a9450b12934a684ea
                           .group:00000000 wm4._types.h.54.d3d34a3b7f3cc230cd159baf022b4b08
                           .group:00000000 wm4.stddef.h.161.5349cb105733e8777bfb0cf53c4e3f34
                           .group:00000000 wm4.reent.h.17.850ac0a908956e5fb788be1b80de2f32
                           .group:00000000 wm4.cdefs.h.47.f5f8300e4d8e4fd74800d02abaf0cc79
                           .group:00000000 wm4.string.h.15.dab3980bf35408a4c507182805e2de3a
                           .group:00000000 wm4.stddef.h.161.19e15733342b50ead2919490b095303e
                           .group:00000000 wm4.stdio.h.27.3fc80220048df77954e38daec3bb9670
                           .group:00000000 wm4.stdarg.h.34.3a23a216c0c293b3d2ea2e89281481e6
                           .group:00000000 wm4.types.h.24.b2be5f53932a9c9d07787288b29b6d75
                           .group:00000000 wm4._stdint.h.10.f76354baea1c7088202064e6f3d4f5e3
                           .group:00000000 wm4.types.h.2.e9cec8c90ab35f77d9f499e06ae02400
                           .group:00000000 wm4._timeval.h.30.81d73a3eee9df6c17d94febfd4f5f751
                           .group:00000000 wm4.timespec.h.41.d855182eb0e690443ab8651bcedca6e1
                           .group:00000000 wm4.select.h.31.43869e1a2488877c4cd47d2792524430
                           .group:00000000 wm4.types.h.91.482c289990230376cfd504a2907d47e7
                           .group:00000000 wm4.stdio.h.2.4aa87247282eca6c8f36f9de33d8df1a
                           .group:00000000 wm4.stdio.h.68.a99a2db1e55915cfd1b035cc1e9fcff1
                           .group:00000000 wm4.assert.h.11.db24e541f16414db224bf986d21017e2
                           .group:00000000 wm4.stdlib.h.13.4ed386f5c1a80d71e72172885d946ef2
                           .group:00000000 wm4.alloca.h.8.dfc0c703c47ec3e69746825b17d9e66d
                           .group:00000000 wm4.stdlib.h.54.8f3036bd0ed314ae051372ccc1fe8f02
                           .group:00000000 wm4.parts.h.48.e0e2ea619afac603c89fe3ed31aee15f
                           .group:00000000 wm4.tpaste.h.48.b41cf557065b1d02756f7dcff09d49b9
                           .group:00000000 wm4.stringz.h.48.ed3117824abe39c5e1281f5c5c443171
                           .group:00000000 wm4.mrepeat.h.62.d4f39ef966b631e185fbb702f9b80ecc
                           .group:00000000 wm4._intsup.h.10.b82bf99f69d6a5c085fc866de0d3eb9b
                           .group:00000000 wm4.stdint.h.23.373a9d32a9e4c2e88fd347156532d281
                           .group:00000000 wm4.sam3s4b.h.226.24ac70e3db261e60e9d210f1232ad825
                           .group:00000000 wm4.core_cm3.h.43.614605f47657df9251f3b3f57590a49a
                           .group:00000000 wm4.core_cmInstr.h.39.53f0cdf363d7ba01993152fdcb6be5d3
                           .group:00000000 wm4.core_cm3.h.160.e022dd848961f928eab0fbd8650d106b
                           .group:00000000 wm4.component_acc.h.46.865c75bb2e3a9d4f38652271e089b5c8
                           .group:00000000 wm4.component_adc.h.46.52ba0aeb0af22cb1f1d91b64dde93956
                           .group:00000000 wm4.component_chipid.h.46.43a273f46f4c32081dfee459ad8862da
                           .group:00000000 wm4.component_crccu.h.46.3d5d84ebcceb8af0782dcb99da35d7d0
                           .group:00000000 wm4.component_dacc.h.46.9b850907590bd31997b006351cf81000
                           .group:00000000 wm4.component_efc.h.46.5a9ec99498daf6c49989fb6d077d312d
                           .group:00000000 wm4.component_gpbr.h.46.1788b80e501f9df943793fa21cfbbe21
                           .group:00000000 wm4.component_hsmci.h.46.2dc64c4ca9a764fbaa2fd4fd1541de68
                           .group:00000000 wm4.component_matrix.h.46.2f4d70bb97c9923e855a3d0c5f56d95e
                           .group:00000000 wm4.component_pdc.h.46.dfd3350dd71c534e17334339feb77f7c
                           .group:00000000 wm4.component_pio.h.46.dc6628e5aa2d62d441a2f9edf013a75a
                           .group:00000000 wm4.component_pmc.h.46.3a13206d3ecf2f1946cf88c02281a26b
                           .group:00000000 wm4.component_pwm.h.46.89366ac40583cd8cd91a5fed13cff02c
                           .group:00000000 wm4.component_rstc.h.46.ef0fbefe4bc03f652c9f4a03bfd1ef46
                           .group:00000000 wm4.component_rtc.h.46.cb1a84d0ff4d043a12d4d2139109e615
                           .group:00000000 wm4.component_rtt.h.46.e35d95fd2652721ab93a68f868a14334
                           .group:00000000 wm4.component_spi.h.46.fbe616cc22048ae3dbe0157a75a200d2
                           .group:00000000 wm4.component_ssc.h.46.bf814ca321f25fab9ac26489e1dec9f0
                           .group:00000000 wm4.component_supc.h.46.013b2a48420cc402d8153de678272576
                           .group:00000000 wm4.component_tc.h.46.8ee6425921e5bd880a2aabd4ecd71522
                           .group:00000000 wm4.component_twi.h.46.1b26436f50ce08e4cbf79a4fdffbcc40
                           .group:00000000 wm4.component_uart.h.46.2ec10b01d23d880667901e3e18729356
                           .group:00000000 wm4.component_udp.h.46.817a2ee6a2f80ac39e7bfbe0ff852001
                           .group:00000000 wm4.component_usart.h.46.e73badf8b79b1144a5e58ae3c7f99afd
                           .group:00000000 wm4.component_wdt.h.46.9058aedbbe8c7f88e4bce28490af6b23
                           .group:00000000 wm4.instance_hsmci.h.46.0921b488c345ac98ef3ba7ad69508825
                           .group:00000000 wm4.instance_ssc.h.46.eebd23f2ef145a585a82c5cef060c7ea
                           .group:00000000 wm4.instance_spi.h.46.26621c46b178e9ca6762bb17a24ec410
                           .group:00000000 wm4.instance_tc0.h.46.ead4b45558da2f42ca95730d1beaaa00
                           .group:00000000 wm4.instance_twi0.h.46.cb546cfb1d37706d80f563947a14da44
                           .group:00000000 wm4.instance_twi1.h.46.5f1af4ccf4d6b33c96c4e388359796ac
                           .group:00000000 wm4.instance_pwm.h.46.76f280edd0f8b1bfcce61f4d903d0259
                           .group:00000000 wm4.instance_usart0.h.46.3c469d2b920fd3e12092b7294ca82da9
                           .group:00000000 wm4.instance_usart1.h.46.398f0294bdd8277ea274c7a419e95901
                           .group:00000000 wm4.instance_udp.h.46.40973cfe8c89095098371468c1887576
                           .group:00000000 wm4.instance_adc.h.46.63258f34d0c27b11736611a7b2b2f27b
                           .group:00000000 wm4.instance_dacc.h.46.5ae4a5035dc78df5a5c17d9d1e76e633
                           .group:00000000 wm4.instance_acc.h.46.2e4a9cb4cb3a92c914800b95f627dc57
                           .group:00000000 wm4.instance_crccu.h.46.184237fe1c77c165bb334c02320f869e
                           .group:00000000 wm4.instance_matrix.h.46.d111ad2ca1e7198ed94a2e1213aa58a3
                           .group:00000000 wm4.instance_pmc.h.46.d5d037bdb46a612e424292373f68d9f8
                           .group:00000000 wm4.instance_uart0.h.46.dc252f382de697c23724fa503782af1d
                           .group:00000000 wm4.instance_chipid.h.46.8f77c51e2ab9edf7d26da8400aab7875
                           .group:00000000 wm4.instance_uart1.h.46.283c4a1cf98fcb8466ac9bceadb0b677
                           .group:00000000 wm4.instance_efc.h.46.9f291aa734b1cb8d75fd144e72f97e2b
                           .group:00000000 wm4.instance_pioa.h.46.cf0f81cda67dc3776fe52603ff60a82f
                           .group:00000000 wm4.instance_piob.h.46.fd1caa7213e73c46d15f69de6af123fb
                           .group:00000000 wm4.instance_rstc.h.46.cb75da875c2442dd75e5a8799bd32e87
                           .group:00000000 wm4.instance_supc.h.46.90f370dafc0bdfb8646ce68458e514e6
                           .group:00000000 wm4.instance_rtt.h.46.5758ae3574a477219b8abb8fe940acb4
                           .group:00000000 wm4.instance_wdt.h.46.b7fdc89b044099cb92c28a2f305b0c66
                           .group:00000000 wm4.instance_rtc.h.46.9d6ddf34c4ffdc6eec5effd1b6d4f045
                           .group:00000000 wm4.instance_gpbr.h.46.672198928bf79182f671b278dd185af8
                           .group:00000000 wm4.sam3s4b.h.317.e7cdc49d5fdc97b75252ee6763540354
                           .group:00000000 wm4.pio_sam3s4b.h.46.b91cb9b5c8fcc478a4299e5df5dba6ff
                           .group:00000000 wm4.sam3s4b.h.452.d371283092f6029dc967aa8f16a63977
                           .group:00000000 wm4.stdbool.h.29.07dce69c3b78884144b7f7bd19483461
                           .group:00000000 wm4.compiler.h.91.eeb6296462f96c51e8e0205ed94a5b09
                           .group:00000000 wm4.interrupt_sam_nvic.h.48.062d9b5b508e1df54b17551a6cd30aa3
                           .group:00000000 wm4.compiler.h.430.149e09620daad34df46237982e03ccfa
                           .group:00000000 wm4.board.h.51.4ac0d93faa32d5a56598d2df92d1abff
                           .group:00000000 wm4.sam3s_OLIMEX.h.48.b477f717ca39b6106e76ca911b1370e4
                           .group:00000000 wm4.ili93xx.h.74.93c3a9faf9da822254266be7f3e3c07f
                           .group:00000000 wm4.ili9341_regs.h.48.f098efebc94c8adb7457a8b38256d9ba
                           .group:00000000 wm4.ili9325_regs.h.48.a2a02874cc0a67e09b411058b86903f4
                           .group:00000000 wm4.conf_clock.h.48.bb7712c39c7b9c398f6f7b04cd2be3c6
                           .group:00000000 wm4.pmc.h.48.6600843dbec2c56a6fa122eeb6d431ab
                           .group:00000000 wm4.osc.h.97.07e856cbe46dbcafec9fcefe4d6f94b7
                           .group:00000000 wm4.pll.h.48.f70b3ad22b9bd221dcddc2d8f7f11308
                           .group:00000000 wm4.sysclk.h.240.cfab6246305f0088614c69f722fe0ee0
                           .group:00000000 wm4.spi.h.48.60a749da5bdb250530cc0f3eda561d96
                           .group:00000000 wm4.conf_spi_master.h.48.8aee3327de17f99979dd8f3c0b75ad58
                           .group:00000000 wm4.spi_master.h.96.3ce3c25e24f2a290fb0ddbccfa24e150
                           .group:00000000 wm4.pio.h.48.6839f7027cbf1ef96bb233af1f2246d9
                           .group:00000000 wm4.sam_gpio.h.53.afc3161f12a06e30e82678b4b38e082b
                           .group:00000000 wm4.ioport_pio.h.47.841aefb862557acbc2f11b4d0b0f8041
                           .group:00000000 wm4.sleep.h.48.6fafd9e21cd1e8977ba5f4188cfeedb9
                           .group:00000000 wm4.uart.h.48.b5a287fb8eda9a91191279293146d597
                           .group:00000000 wm4.usart.h.49.2fa521f11a7b28a2801472c5b574d455
                           .group:00000000 wm4.conf_uart_serial.h.48.02d01bc75f6f0264c031579d7d1767aa
                           .group:00000000 wm4.efc.h.48.e39dd8c0cbc4f5e89308c617721a0710
                           .group:00000000 wm4.flash_efc.h.93.b6a2484f51c1de2b3aa071715efbf660

UNDEFINED SYMBOLS
pio_set_pin_low
spi_write
pio_set_pin_high
spi_read_packet
spi_write_packet
spi_set_bits_per_transfer
LCD_IR
LCD_RD
iprintf
spi_master_init
spi_master_setup_device
spi_select_device
LCD_WD
