   1              		.syntax unified
   2              		.cpu cortex-m3
   3              		.fpu softvfp
   4              		.eabi_attribute 20, 1
   5              		.eabi_attribute 21, 1
   6              		.eabi_attribute 23, 3
   7              		.eabi_attribute 24, 1
   8              		.eabi_attribute 25, 1
   9              		.eabi_attribute 26, 1
  10              		.eabi_attribute 30, 1
  11              		.eabi_attribute 34, 1
  12              		.eabi_attribute 18, 4
  13              		.thumb
  14              		.syntax unified
  15              		.file	"ili93xx.c"
  16              		.text
  17              	.Ltext0:
  18              		.cfi_sections	.debug_frame
  19              		.section	.text.ili93xx_delay,"ax",%progbits
  20              		.align	2
  21              		.thumb
  22              		.thumb_func
  24              	ili93xx_delay:
  25              	.LFB187:
  26              		.file 1 "../src/sam/components/display/ili93xx/ili93xx.c"
   1:../src/sam/components/display/ili93xx/ili93xx.c **** /**
   2:../src/sam/components/display/ili93xx/ili93xx.c ****  * \file
   3:../src/sam/components/display/ili93xx/ili93xx.c ****  *
   4:../src/sam/components/display/ili93xx/ili93xx.c ****  * \brief API driver for ILI93XX TFT display component.
   5:../src/sam/components/display/ili93xx/ili93xx.c ****  *
   6:../src/sam/components/display/ili93xx/ili93xx.c ****  * Copyright (c) 2013-2015 Atmel Corporation. All rights reserved.
   7:../src/sam/components/display/ili93xx/ili93xx.c ****  *
   8:../src/sam/components/display/ili93xx/ili93xx.c ****  * \asf_license_start
   9:../src/sam/components/display/ili93xx/ili93xx.c ****  *
  10:../src/sam/components/display/ili93xx/ili93xx.c ****  * \page License
  11:../src/sam/components/display/ili93xx/ili93xx.c ****  *
  12:../src/sam/components/display/ili93xx/ili93xx.c ****  * Redistribution and use in source and binary forms, with or without
  13:../src/sam/components/display/ili93xx/ili93xx.c ****  * modification, are permitted provided that the following conditions are met:
  14:../src/sam/components/display/ili93xx/ili93xx.c ****  *
  15:../src/sam/components/display/ili93xx/ili93xx.c ****  * 1. Redistributions of source code must retain the above copyright notice,
  16:../src/sam/components/display/ili93xx/ili93xx.c ****  *    this list of conditions and the following disclaimer.
  17:../src/sam/components/display/ili93xx/ili93xx.c ****  *
  18:../src/sam/components/display/ili93xx/ili93xx.c ****  * 2. Redistributions in binary form must reproduce the above copyright notice,
  19:../src/sam/components/display/ili93xx/ili93xx.c ****  *    this list of conditions and the following disclaimer in the documentation
  20:../src/sam/components/display/ili93xx/ili93xx.c ****  *    and/or other materials provided with the distribution.
  21:../src/sam/components/display/ili93xx/ili93xx.c ****  *
  22:../src/sam/components/display/ili93xx/ili93xx.c ****  * 3. The name of Atmel may not be used to endorse or promote products derived
  23:../src/sam/components/display/ili93xx/ili93xx.c ****  *    from this software without specific prior written permission.
  24:../src/sam/components/display/ili93xx/ili93xx.c ****  *
  25:../src/sam/components/display/ili93xx/ili93xx.c ****  * 4. This software may only be redistributed and used in connection with an
  26:../src/sam/components/display/ili93xx/ili93xx.c ****  *    Atmel microcontroller product.
  27:../src/sam/components/display/ili93xx/ili93xx.c ****  *
  28:../src/sam/components/display/ili93xx/ili93xx.c ****  * THIS SOFTWARE IS PROVIDED BY ATMEL "AS IS" AND ANY EXPRESS OR IMPLIED
  29:../src/sam/components/display/ili93xx/ili93xx.c ****  * WARRANTIES, INCLUDING, BUT NOT LIMITED TO, THE IMPLIED WARRANTIES OF
  30:../src/sam/components/display/ili93xx/ili93xx.c ****  * MERCHANTABILITY, FITNESS FOR A PARTICULAR PURPOSE AND NON-INFRINGEMENT ARE
  31:../src/sam/components/display/ili93xx/ili93xx.c ****  * EXPRESSLY AND SPECIFICALLY DISCLAIMED. IN NO EVENT SHALL ATMEL BE LIABLE FOR
  32:../src/sam/components/display/ili93xx/ili93xx.c ****  * ANY DIRECT, INDIRECT, INCIDENTAL, SPECIAL, EXEMPLARY, OR CONSEQUENTIAL
  33:../src/sam/components/display/ili93xx/ili93xx.c ****  * DAMAGES (INCLUDING, BUT NOT LIMITED TO, PROCUREMENT OF SUBSTITUTE GOODS
  34:../src/sam/components/display/ili93xx/ili93xx.c ****  * OR SERVICES; LOSS OF USE, DATA, OR PROFITS; OR BUSINESS INTERRUPTION)
  35:../src/sam/components/display/ili93xx/ili93xx.c ****  * HOWEVER CAUSED AND ON ANY THEORY OF LIABILITY, WHETHER IN CONTRACT,
  36:../src/sam/components/display/ili93xx/ili93xx.c ****  * STRICT LIABILITY, OR TORT (INCLUDING NEGLIGENCE OR OTHERWISE) ARISING IN
  37:../src/sam/components/display/ili93xx/ili93xx.c ****  * ANY WAY OUT OF THE USE OF THIS SOFTWARE, EVEN IF ADVISED OF THE
  38:../src/sam/components/display/ili93xx/ili93xx.c ****  * POSSIBILITY OF SUCH DAMAGE.
  39:../src/sam/components/display/ili93xx/ili93xx.c ****  *
  40:../src/sam/components/display/ili93xx/ili93xx.c ****  * \asf_license_stop
  41:../src/sam/components/display/ili93xx/ili93xx.c ****  *
  42:../src/sam/components/display/ili93xx/ili93xx.c ****  */
  43:../src/sam/components/display/ili93xx/ili93xx.c **** 
  44:../src/sam/components/display/ili93xx/ili93xx.c **** /**
  45:../src/sam/components/display/ili93xx/ili93xx.c ****  * \defgroup ili93xx_display_group Display - ILI93XX Controller
  46:../src/sam/components/display/ili93xx/ili93xx.c ****  *
  47:../src/sam/components/display/ili93xx/ili93xx.c ****  * Low-level driver for the ILI93XX LCD controller. This driver provides access
  48:../src/sam/components/display/ili93xx/ili93xx.c ****  * to the main features of the ILI93XX controller.
  49:../src/sam/components/display/ili93xx/ili93xx.c ****  * Now ILI9325 and ILI9341 are supported.
  50:../src/sam/components/display/ili93xx/ili93xx.c ****  *
  51:../src/sam/components/display/ili93xx/ili93xx.c ****  * \{
  52:../src/sam/components/display/ili93xx/ili93xx.c ****  */
  53:../src/sam/components/display/ili93xx/ili93xx.c **** /*
  54:../src/sam/components/display/ili93xx/ili93xx.c ****  * Support and FAQ: visit <a href="http://www.atmel.com/design-support/">Atmel Support</a>
  55:../src/sam/components/display/ili93xx/ili93xx.c ****  */
  56:../src/sam/components/display/ili93xx/ili93xx.c **** 
  57:../src/sam/components/display/ili93xx/ili93xx.c **** #include <string.h>
  58:../src/sam/components/display/ili93xx/ili93xx.c **** #include <stdio.h>
  59:../src/sam/components/display/ili93xx/ili93xx.c **** #include <assert.h>
  60:../src/sam/components/display/ili93xx/ili93xx.c **** #include <stdlib.h>
  61:../src/sam/components/display/ili93xx/ili93xx.c **** #include "ili93xx.h"
  62:../src/sam/components/display/ili93xx/ili93xx.c **** #include "ili9341_regs.h"
  63:../src/sam/components/display/ili93xx/ili93xx.c **** #include "ili9325_regs.h"
  64:../src/sam/components/display/ili93xx/ili93xx.c **** #include "spi_master.h"
  65:../src/sam/components/display/ili93xx/ili93xx.c **** #include "sam_gpio/sam_gpio.h"
  66:../src/sam/components/display/ili93xx/ili93xx.c **** #include "asf.h"
  67:../src/sam/components/display/ili93xx/ili93xx.c **** 
  68:../src/sam/components/display/ili93xx/ili93xx.c **** 
  69:../src/sam/components/display/ili93xx/ili93xx.c **** #define ILI9341_SPI_BAUDRATE 15000000u
  70:../src/sam/components/display/ili93xx/ili93xx.c **** 
  71:../src/sam/components/display/ili93xx/ili93xx.c **** /** Device type*/
  72:../src/sam/components/display/ili93xx/ili93xx.c **** static uint8_t g_uc_device_type = 0;
  73:../src/sam/components/display/ili93xx/ili93xx.c **** 
  74:../src/sam/components/display/ili93xx/ili93xx.c **** /** Pixel cache used to speed up communication */
  75:../src/sam/components/display/ili93xx/ili93xx.c **** #define LCD_DATA_CACHE_SIZE ILI93XX_LCD_WIDTH
  76:../src/sam/components/display/ili93xx/ili93xx.c **** 
  77:../src/sam/components/display/ili93xx/ili93xx.c **** /** LCD X-axis and Y-axis length */
  78:../src/sam/components/display/ili93xx/ili93xx.c **** static uint32_t g_ul_lcd_x_length = ILI93XX_LCD_WIDTH;
  79:../src/sam/components/display/ili93xx/ili93xx.c **** static uint32_t g_ul_lcd_y_length = ILI93XX_LCD_HEIGHT;
  80:../src/sam/components/display/ili93xx/ili93xx.c **** 
  81:../src/sam/components/display/ili93xx/ili93xx.c **** static ili93xx_color_t g_ul_pixel_cache[LCD_DATA_CACHE_SIZE];
  82:../src/sam/components/display/ili93xx/ili93xx.c **** 
  83:../src/sam/components/display/ili93xx/ili93xx.c **** static volatile ili93xx_coord_t limit_start_x, limit_start_y;
  84:../src/sam/components/display/ili93xx/ili93xx.c **** static volatile ili93xx_coord_t limit_end_x, limit_end_y;
  85:../src/sam/components/display/ili93xx/ili93xx.c **** 
  86:../src/sam/components/display/ili93xx/ili93xx.c **** /** End transfer flag */
  87:../src/sam/components/display/ili93xx/ili93xx.c **** static volatile uint8_t g_by_transfend_flag = 0;
  88:../src/sam/components/display/ili93xx/ili93xx.c **** 
  89:../src/sam/components/display/ili93xx/ili93xx.c **** /** Global variable describing the font size used by the driver */
  90:../src/sam/components/display/ili93xx/ili93xx.c **** const struct ili93xx_font gfont = {10, 14};
  91:../src/sam/components/display/ili93xx/ili93xx.c **** 
  92:../src/sam/components/display/ili93xx/ili93xx.c **** /**
  93:../src/sam/components/display/ili93xx/ili93xx.c ****  * Character set table for font 10x14
  94:../src/sam/components/display/ili93xx/ili93xx.c ****  * Coding format:
  95:../src/sam/components/display/ili93xx/ili93xx.c ****  * Char height is 14 bits, which is coded using 2 bytes per column
  96:../src/sam/components/display/ili93xx/ili93xx.c ****  * (2 unused bits).
  97:../src/sam/components/display/ili93xx/ili93xx.c ****  * Char width is 10 bits.
  98:../src/sam/components/display/ili93xx/ili93xx.c ****  */
  99:../src/sam/components/display/ili93xx/ili93xx.c **** const uint8_t p_uc_charset10x14[] = {
 100:../src/sam/components/display/ili93xx/ili93xx.c **** 	0x00, 0x00, 0x00, 0x00, 0x00, 0x00, 0x00, 0x00, 0x00, 0x00,
 101:../src/sam/components/display/ili93xx/ili93xx.c **** 	0x00, 0x00, 0x00, 0x00, 0x00, 0x00, 0x00, 0x00, 0x00, 0x00,
 102:../src/sam/components/display/ili93xx/ili93xx.c **** 	0x00, 0x00, 0x00, 0x00, 0x00, 0x00, 0x00, 0x00, 0xFF, 0xCC,
 103:../src/sam/components/display/ili93xx/ili93xx.c **** 	0xFF, 0xCC, 0x00, 0x00, 0x00, 0x00, 0x00, 0x00, 0x00, 0x00,
 104:../src/sam/components/display/ili93xx/ili93xx.c **** 	0x00, 0x00, 0x00, 0x00, 0xF0, 0x00, 0xF0, 0x00, 0x00, 0x00,
 105:../src/sam/components/display/ili93xx/ili93xx.c **** 	0x00, 0x00, 0xF0, 0x00, 0xF0, 0x00, 0x00, 0x00, 0x00, 0x00,
 106:../src/sam/components/display/ili93xx/ili93xx.c **** 	0x0C, 0xC0, 0x0C, 0xC0, 0xFF, 0xFC, 0xFF, 0xFC, 0x0C, 0xC0,
 107:../src/sam/components/display/ili93xx/ili93xx.c **** 	0x0C, 0xC0, 0xFF, 0xFC, 0xFF, 0xFC, 0x0C, 0xC0, 0x0C, 0xC0,
 108:../src/sam/components/display/ili93xx/ili93xx.c **** 	0x0C, 0x60, 0x1E, 0x70, 0x3F, 0x30, 0x33, 0x30, 0xFF, 0xFC,
 109:../src/sam/components/display/ili93xx/ili93xx.c **** 	0xFF, 0xFC, 0x33, 0x30, 0x33, 0xF0, 0x39, 0xE0, 0x18, 0xC0,
 110:../src/sam/components/display/ili93xx/ili93xx.c **** 	0x60, 0x00, 0xF0, 0x0C, 0xF0, 0x3C, 0x60, 0xF0, 0x03, 0xC0,
 111:../src/sam/components/display/ili93xx/ili93xx.c **** 	0x0F, 0x00, 0x3C, 0x18, 0xF0, 0x3C, 0xC0, 0x3C, 0x00, 0x18,
 112:../src/sam/components/display/ili93xx/ili93xx.c **** 	0x3C, 0xF0, 0x7F, 0xF8, 0xC3, 0x1C, 0xC7, 0x8C, 0xCF, 0xCC,
 113:../src/sam/components/display/ili93xx/ili93xx.c **** 	0xDC, 0xEC, 0x78, 0x78, 0x30, 0x30, 0x00, 0xFC, 0x00, 0xCC,
 114:../src/sam/components/display/ili93xx/ili93xx.c **** 	0x00, 0x00, 0x00, 0x00, 0x00, 0x00, 0x44, 0x00, 0xEC, 0x00,
 115:../src/sam/components/display/ili93xx/ili93xx.c **** 	0xF8, 0x00, 0x70, 0x00, 0x00, 0x00, 0x00, 0x00, 0x00, 0x00,
 116:../src/sam/components/display/ili93xx/ili93xx.c **** 	0x00, 0x00, 0x00, 0x00, 0x0F, 0xC0, 0x3F, 0xF0, 0x78, 0x78,
 117:../src/sam/components/display/ili93xx/ili93xx.c **** 	0x60, 0x18, 0xC0, 0x0C, 0xC0, 0x0C, 0x00, 0x00, 0x00, 0x00,
 118:../src/sam/components/display/ili93xx/ili93xx.c **** 	0x00, 0x00, 0x00, 0x00, 0xC0, 0x0C, 0xC0, 0x0C, 0x60, 0x18,
 119:../src/sam/components/display/ili93xx/ili93xx.c **** 	0x78, 0x78, 0x3F, 0xF0, 0x0F, 0xC0, 0x00, 0x00, 0x00, 0x00,
 120:../src/sam/components/display/ili93xx/ili93xx.c **** 	0x0C, 0x60, 0x0E, 0xE0, 0x07, 0xC0, 0x03, 0x80, 0x3F, 0xF8,
 121:../src/sam/components/display/ili93xx/ili93xx.c **** 	0x3F, 0xF8, 0x03, 0x80, 0x07, 0xC0, 0x0E, 0xE0, 0x0C, 0x60,
 122:../src/sam/components/display/ili93xx/ili93xx.c **** 	0x03, 0x00, 0x03, 0x00, 0x03, 0x00, 0x03, 0x00, 0x3F, 0xF0,
 123:../src/sam/components/display/ili93xx/ili93xx.c **** 	0x3F, 0xF0, 0x03, 0x00, 0x03, 0x00, 0x03, 0x00, 0x03, 0x00,
 124:../src/sam/components/display/ili93xx/ili93xx.c **** 	0x00, 0x44, 0x00, 0xEC, 0x00, 0xF8, 0x00, 0x70, 0x00, 0x00,
 125:../src/sam/components/display/ili93xx/ili93xx.c **** 	0x00, 0x00, 0x00, 0x00, 0x00, 0x00, 0x00, 0x00, 0x00, 0x00,
 126:../src/sam/components/display/ili93xx/ili93xx.c **** 	0x03, 0x00, 0x03, 0x00, 0x03, 0x00, 0x03, 0x00, 0x03, 0x00,
 127:../src/sam/components/display/ili93xx/ili93xx.c **** 	0x03, 0x00, 0x03, 0x00, 0x03, 0x00, 0x03, 0x00, 0x03, 0x00,
 128:../src/sam/components/display/ili93xx/ili93xx.c **** 	0x00, 0x18, 0x00, 0x3C, 0x00, 0x3C, 0x00, 0x18, 0x00, 0x00,
 129:../src/sam/components/display/ili93xx/ili93xx.c **** 	0x00, 0x00, 0x00, 0x00, 0x00, 0x00, 0x00, 0x00, 0x00, 0x00,
 130:../src/sam/components/display/ili93xx/ili93xx.c **** 	0x00, 0x00, 0x00, 0x0C, 0x00, 0x3C, 0x00, 0xF0, 0x03, 0xC0,
 131:../src/sam/components/display/ili93xx/ili93xx.c **** 	0x0F, 0x00, 0x3C, 0x00, 0xF0, 0x00, 0xC0, 0x00, 0x00, 0x00,
 132:../src/sam/components/display/ili93xx/ili93xx.c **** 	0x3F, 0xF0, 0x7F, 0xF8, 0xE0, 0xFC, 0xC1, 0xCC, 0xC3, 0x8C,
 133:../src/sam/components/display/ili93xx/ili93xx.c **** 	0xC7, 0x0C, 0xCE, 0x0C, 0xFC, 0x1C, 0x7F, 0xF8, 0x3F, 0xF0,
 134:../src/sam/components/display/ili93xx/ili93xx.c **** 	0x00, 0x00, 0x00, 0x00, 0x30, 0x0C, 0x70, 0x0C, 0xFF, 0xFC,
 135:../src/sam/components/display/ili93xx/ili93xx.c **** 	0xFF, 0xFC, 0x00, 0x0C, 0x00, 0x0C, 0x00, 0x00, 0x00, 0x00,
 136:../src/sam/components/display/ili93xx/ili93xx.c **** 	0x30, 0x0C, 0x70, 0x1C, 0xE0, 0x3C, 0xC0, 0x7C, 0xC0, 0xEC,
 137:../src/sam/components/display/ili93xx/ili93xx.c **** 	0xC1, 0xCC, 0xC3, 0x8C, 0xE7, 0x0C, 0x7E, 0x0C, 0x3C, 0x0C,
 138:../src/sam/components/display/ili93xx/ili93xx.c **** 	0x30, 0x30, 0x70, 0x38, 0xE0, 0x1C, 0xC0, 0x0C, 0xC0, 0x0C,
 139:../src/sam/components/display/ili93xx/ili93xx.c **** 	0xC3, 0x0C, 0xC3, 0x0C, 0xE3, 0x1C, 0x7F, 0xF8, 0x3C, 0xF0,
 140:../src/sam/components/display/ili93xx/ili93xx.c **** 	0x03, 0xC0, 0x07, 0xC0, 0x0E, 0xC0, 0x1C, 0xC0, 0x38, 0xC0,
 141:../src/sam/components/display/ili93xx/ili93xx.c **** 	0x70, 0xC0, 0xFF, 0xFC, 0xFF, 0xFC, 0x00, 0xC0, 0x00, 0xC0,
 142:../src/sam/components/display/ili93xx/ili93xx.c **** 	0xFC, 0x30, 0xFC, 0x38, 0xCC, 0x1C, 0xCC, 0x0C, 0xCC, 0x0C,
 143:../src/sam/components/display/ili93xx/ili93xx.c **** 	0xCC, 0x0C, 0xCC, 0x0C, 0xCE, 0x1C, 0xC7, 0xF8, 0xC3, 0xF0,
 144:../src/sam/components/display/ili93xx/ili93xx.c **** 	0x3F, 0xF0, 0x7F, 0xF8, 0xE3, 0x1C, 0xC3, 0x0C, 0xC3, 0x0C,
 145:../src/sam/components/display/ili93xx/ili93xx.c **** 	0xC3, 0x0C, 0xC3, 0x0C, 0xE3, 0x9C, 0x71, 0xF8, 0x30, 0xF0,
 146:../src/sam/components/display/ili93xx/ili93xx.c **** 	0xC0, 0x00, 0xC0, 0x00, 0xC0, 0x00, 0xC0, 0x00, 0xC3, 0xFC,
 147:../src/sam/components/display/ili93xx/ili93xx.c **** 	0xC7, 0xFC, 0xCE, 0x00, 0xDC, 0x00, 0xF8, 0x00, 0xF0, 0x00,
 148:../src/sam/components/display/ili93xx/ili93xx.c **** 	0x3C, 0xF0, 0x7F, 0xF8, 0xE7, 0x9C, 0xC3, 0x0C, 0xC3, 0x0C,
 149:../src/sam/components/display/ili93xx/ili93xx.c **** 	0xC3, 0x0C, 0xC3, 0x0C, 0xE7, 0x9C, 0x7F, 0xF8, 0x3C, 0xF0,
 150:../src/sam/components/display/ili93xx/ili93xx.c **** 	0x3C, 0x00, 0x7E, 0x00, 0xE7, 0x0C, 0xC3, 0x0C, 0xC3, 0x1C,
 151:../src/sam/components/display/ili93xx/ili93xx.c **** 	0xC3, 0x38, 0xC3, 0x70, 0xE7, 0xE0, 0x7F, 0xC0, 0x3F, 0x80,
 152:../src/sam/components/display/ili93xx/ili93xx.c **** 	0x00, 0x00, 0x00, 0x00, 0x00, 0x00, 0x18, 0x60, 0x3C, 0xF0,
 153:../src/sam/components/display/ili93xx/ili93xx.c **** 	0x3C, 0xF0, 0x18, 0x60, 0x00, 0x00, 0x00, 0x00, 0x00, 0x00,
 154:../src/sam/components/display/ili93xx/ili93xx.c **** 	0x00, 0x00, 0x00, 0x00, 0x00, 0x00, 0x18, 0x44, 0x3C, 0xEC,
 155:../src/sam/components/display/ili93xx/ili93xx.c **** 	0x3C, 0xF8, 0x18, 0x70, 0x00, 0x00, 0x00, 0x00, 0x00, 0x00,
 156:../src/sam/components/display/ili93xx/ili93xx.c **** 	0x00, 0x00, 0x03, 0x00, 0x07, 0x80, 0x0F, 0xC0, 0x1C, 0xE0,
 157:../src/sam/components/display/ili93xx/ili93xx.c **** 	0x38, 0x70, 0x70, 0x38, 0xE0, 0x1C, 0xC0, 0x0C, 0x00, 0x00,
 158:../src/sam/components/display/ili93xx/ili93xx.c **** 	0x0C, 0xC0, 0x0C, 0xC0, 0x0C, 0xC0, 0x0C, 0xC0, 0x0C, 0xC0,
 159:../src/sam/components/display/ili93xx/ili93xx.c **** 	0x0C, 0xC0, 0x0C, 0xC0, 0x0C, 0xC0, 0x0C, 0xC0, 0x0C, 0xC0,
 160:../src/sam/components/display/ili93xx/ili93xx.c **** 	0x00, 0x00, 0xC0, 0x0C, 0xE0, 0x1C, 0x70, 0x38, 0x38, 0x70,
 161:../src/sam/components/display/ili93xx/ili93xx.c **** 	0x1C, 0xE0, 0x0F, 0xC0, 0x07, 0x80, 0x03, 0x00, 0x00, 0x00,
 162:../src/sam/components/display/ili93xx/ili93xx.c **** 	0x30, 0x00, 0x70, 0x00, 0xE0, 0x00, 0xC0, 0x00, 0xC1, 0xEC,
 163:../src/sam/components/display/ili93xx/ili93xx.c **** 	0xC3, 0xEC, 0xC3, 0x00, 0xE6, 0x00, 0x7E, 0x00, 0x3C, 0x00,
 164:../src/sam/components/display/ili93xx/ili93xx.c **** 	0x30, 0xF0, 0x71, 0xF8, 0xE3, 0x9C, 0xC3, 0x0C, 0xC3, 0xFC,
 165:../src/sam/components/display/ili93xx/ili93xx.c **** 	0xC3, 0xFC, 0xC0, 0x0C, 0xE0, 0x1C, 0x7F, 0xF8, 0x3F, 0xF0,
 166:../src/sam/components/display/ili93xx/ili93xx.c **** 	0x3F, 0xFC, 0x7F, 0xFC, 0xE0, 0xC0, 0xC0, 0xC0, 0xC0, 0xC0,
 167:../src/sam/components/display/ili93xx/ili93xx.c **** 	0xC0, 0xC0, 0xC0, 0xC0, 0xE0, 0xC0, 0x7F, 0xFC, 0x3F, 0xFC,
 168:../src/sam/components/display/ili93xx/ili93xx.c **** 	0xFF, 0xFC, 0xFF, 0xFC, 0xC3, 0x0C, 0xC3, 0x0C, 0xC3, 0x0C,
 169:../src/sam/components/display/ili93xx/ili93xx.c **** 	0xC3, 0x0C, 0xC3, 0x0C, 0xE7, 0x9C, 0x7F, 0xF8, 0x3C, 0xF0,
 170:../src/sam/components/display/ili93xx/ili93xx.c **** 	0x3F, 0xF0, 0x7F, 0xF8, 0xE0, 0x1C, 0xC0, 0x0C, 0xC0, 0x0C,
 171:../src/sam/components/display/ili93xx/ili93xx.c **** 	0xC0, 0x0C, 0xC0, 0x0C, 0xE0, 0x1C, 0x70, 0x38, 0x30, 0x30,
 172:../src/sam/components/display/ili93xx/ili93xx.c **** 	0xFF, 0xFC, 0xFF, 0xFC, 0xC0, 0x0C, 0xC0, 0x0C, 0xC0, 0x0C,
 173:../src/sam/components/display/ili93xx/ili93xx.c **** 	0xC0, 0x0C, 0xC0, 0x0C, 0xE0, 0x1C, 0x7F, 0xF8, 0x3F, 0xF0,
 174:../src/sam/components/display/ili93xx/ili93xx.c **** 	0xFF, 0xFC, 0xFF, 0xFC, 0xC3, 0x0C, 0xC3, 0x0C, 0xC3, 0x0C,
 175:../src/sam/components/display/ili93xx/ili93xx.c **** 	0xC3, 0x0C, 0xC3, 0x0C, 0xC3, 0x0C, 0xC0, 0x0C, 0xC0, 0x0C,
 176:../src/sam/components/display/ili93xx/ili93xx.c **** 	0xFF, 0xFC, 0xFF, 0xFC, 0xC3, 0x00, 0xC3, 0x00, 0xC3, 0x00,
 177:../src/sam/components/display/ili93xx/ili93xx.c **** 	0xC3, 0x00, 0xC3, 0x00, 0xC3, 0x00, 0xC0, 0x00, 0xC0, 0x00,
 178:../src/sam/components/display/ili93xx/ili93xx.c **** 	0x3F, 0xF0, 0x7F, 0xF8, 0xE0, 0x1C, 0xC0, 0x0C, 0xC0, 0x0C,
 179:../src/sam/components/display/ili93xx/ili93xx.c **** 	0xC3, 0x0C, 0xC3, 0x0C, 0xE3, 0x1C, 0x73, 0xF8, 0x33, 0xF0,
 180:../src/sam/components/display/ili93xx/ili93xx.c **** 	0xFF, 0xFC, 0xFF, 0xFC, 0x03, 0x00, 0x03, 0x00, 0x03, 0x00,
 181:../src/sam/components/display/ili93xx/ili93xx.c **** 	0x03, 0x00, 0x03, 0x00, 0x03, 0x00, 0xFF, 0xFC, 0xFF, 0xFC,
 182:../src/sam/components/display/ili93xx/ili93xx.c **** 	0x00, 0x00, 0x00, 0x00, 0xC0, 0x0C, 0xC0, 0x0C, 0xFF, 0xFC,
 183:../src/sam/components/display/ili93xx/ili93xx.c **** 	0xFF, 0xFC, 0xC0, 0x0C, 0xC0, 0x0C, 0x00, 0x00, 0x00, 0x00,
 184:../src/sam/components/display/ili93xx/ili93xx.c **** 	0x00, 0x30, 0x00, 0x38, 0xC0, 0x1C, 0xC0, 0x0C, 0xC0, 0x0C,
 185:../src/sam/components/display/ili93xx/ili93xx.c **** 	0xC0, 0x1C, 0xFF, 0xF8, 0xFF, 0xF0, 0xC0, 0x00, 0xC0, 0x00,
 186:../src/sam/components/display/ili93xx/ili93xx.c **** 	0xFF, 0xFC, 0xFF, 0xFC, 0x07, 0x80, 0x07, 0x80, 0x0F, 0xC0,
 187:../src/sam/components/display/ili93xx/ili93xx.c **** 	0x1C, 0xE0, 0x38, 0x70, 0x70, 0x38, 0xE0, 0x1C, 0xC0, 0x0C,
 188:../src/sam/components/display/ili93xx/ili93xx.c **** 	0xFF, 0xFC, 0xFF, 0xFC, 0x00, 0x0C, 0x00, 0x0C, 0x00, 0x0C,
 189:../src/sam/components/display/ili93xx/ili93xx.c **** 	0x00, 0x0C, 0x00, 0x0C, 0x00, 0x0C, 0x00, 0x0C, 0x00, 0x0C,
 190:../src/sam/components/display/ili93xx/ili93xx.c **** 	0xFF, 0xFC, 0xFF, 0xFC, 0x70, 0x00, 0x38, 0x00, 0x1F, 0x00,
 191:../src/sam/components/display/ili93xx/ili93xx.c **** 	0x1F, 0x00, 0x38, 0x00, 0x70, 0x00, 0xFF, 0xFC, 0xFF, 0xFC,
 192:../src/sam/components/display/ili93xx/ili93xx.c **** 	0xFF, 0xFC, 0xFF, 0xFC, 0x1C, 0x00, 0x0E, 0x00, 0x07, 0x00,
 193:../src/sam/components/display/ili93xx/ili93xx.c **** 	0x03, 0x80, 0x01, 0xC0, 0x00, 0xE0, 0xFF, 0xFC, 0xFF, 0xFC,
 194:../src/sam/components/display/ili93xx/ili93xx.c **** 	0x3F, 0xF0, 0x7F, 0xF8, 0xE0, 0x1C, 0xC0, 0x0C, 0xC0, 0x0C,
 195:../src/sam/components/display/ili93xx/ili93xx.c **** 	0xC0, 0x0C, 0xC0, 0x0C, 0xE0, 0x1C, 0x7F, 0xF8, 0x3F, 0xF0,
 196:../src/sam/components/display/ili93xx/ili93xx.c **** 	0xFF, 0xFC, 0xFF, 0xFC, 0xC3, 0x00, 0xC3, 0x00, 0xC3, 0x00,
 197:../src/sam/components/display/ili93xx/ili93xx.c **** 	0xC3, 0x00, 0xC3, 0x00, 0xE7, 0x00, 0x7E, 0x00, 0x3C, 0x00,
 198:../src/sam/components/display/ili93xx/ili93xx.c **** 	0x3F, 0xF0, 0x7F, 0xF8, 0xE0, 0x1C, 0xC0, 0x0C, 0xC0, 0xCC,
 199:../src/sam/components/display/ili93xx/ili93xx.c **** 	0xC0, 0xEC, 0xC0, 0x7C, 0xE0, 0x38, 0x7F, 0xFC, 0x3F, 0xEC,
 200:../src/sam/components/display/ili93xx/ili93xx.c **** 	0xFF, 0xFC, 0xFF, 0xFC, 0xC3, 0x00, 0xC3, 0x80, 0xC3, 0x80,
 201:../src/sam/components/display/ili93xx/ili93xx.c **** 	0xC3, 0xC0, 0xC3, 0xC0, 0xE7, 0x70, 0x7E, 0x3C, 0x3C, 0x1C,
 202:../src/sam/components/display/ili93xx/ili93xx.c **** 	0x3C, 0x18, 0x7E, 0x1C, 0xE7, 0x0C, 0xC3, 0x0C, 0xC3, 0x0C,
 203:../src/sam/components/display/ili93xx/ili93xx.c **** 	0xC3, 0x0C, 0xC3, 0x0C, 0xC3, 0x9C, 0xE1, 0xF8, 0x60, 0xF0,
 204:../src/sam/components/display/ili93xx/ili93xx.c **** 	0xC0, 0x00, 0xC0, 0x00, 0xC0, 0x00, 0xC0, 0x00, 0xFF, 0xFC,
 205:../src/sam/components/display/ili93xx/ili93xx.c **** 	0xFF, 0xFC, 0xC0, 0x00, 0xC0, 0x00, 0xC0, 0x00, 0xC0, 0x00,
 206:../src/sam/components/display/ili93xx/ili93xx.c **** 	0xFF, 0xF0, 0xFF, 0xF8, 0x00, 0x1C, 0x00, 0x0C, 0x00, 0x0C,
 207:../src/sam/components/display/ili93xx/ili93xx.c **** 	0x00, 0x0C, 0x00, 0x0C, 0x00, 0x1C, 0xFF, 0xF8, 0xFF, 0xF0,
 208:../src/sam/components/display/ili93xx/ili93xx.c **** 	0xFF, 0xC0, 0xFF, 0xE0, 0x00, 0x70, 0x00, 0x38, 0x00, 0x1C,
 209:../src/sam/components/display/ili93xx/ili93xx.c **** 	0x00, 0x1C, 0x00, 0x38, 0x00, 0x70, 0xFF, 0xE0, 0xFF, 0xC0,
 210:../src/sam/components/display/ili93xx/ili93xx.c **** 	0xFF, 0xF0, 0xFF, 0xF8, 0x00, 0x1C, 0x00, 0x3C, 0x00, 0xF8,
 211:../src/sam/components/display/ili93xx/ili93xx.c **** 	0x00, 0xF8, 0x00, 0x3C, 0x00, 0x1C, 0xFF, 0xF8, 0xFF, 0xF0,
 212:../src/sam/components/display/ili93xx/ili93xx.c **** 	0xF0, 0x3C, 0xF8, 0x7C, 0x1C, 0xE0, 0x0F, 0xC0, 0x07, 0x80,
 213:../src/sam/components/display/ili93xx/ili93xx.c **** 	0x07, 0x80, 0x0F, 0xC0, 0x1C, 0xE0, 0xF8, 0x7C, 0xF0, 0x3C,
 214:../src/sam/components/display/ili93xx/ili93xx.c **** 	0xFC, 0x00, 0xFE, 0x00, 0x07, 0x00, 0x03, 0x80, 0x01, 0xFC,
 215:../src/sam/components/display/ili93xx/ili93xx.c **** 	0x01, 0xFC, 0x03, 0x80, 0x07, 0x00, 0xFE, 0x00, 0xFC, 0x00,
 216:../src/sam/components/display/ili93xx/ili93xx.c **** 	0xC0, 0x3C, 0xC0, 0x7C, 0xC0, 0xEC, 0xC1, 0xCC, 0xC3, 0x8C,
 217:../src/sam/components/display/ili93xx/ili93xx.c **** 	0xC7, 0x0C, 0xCE, 0x0C, 0xDC, 0x0C, 0xF8, 0x0C, 0xF0, 0x0C,
 218:../src/sam/components/display/ili93xx/ili93xx.c **** 	0x00, 0x00, 0x00, 0x00, 0xFF, 0xFC, 0xFF, 0xFC, 0xC0, 0x0C,
 219:../src/sam/components/display/ili93xx/ili93xx.c **** 	0xC0, 0x0C, 0xC0, 0x0C, 0x00, 0x00, 0x00, 0x00, 0x00, 0x00,
 220:../src/sam/components/display/ili93xx/ili93xx.c **** 	0x30, 0x00, 0x30, 0x00, 0x0C, 0x00, 0x0C, 0x00, 0x03, 0x00,
 221:../src/sam/components/display/ili93xx/ili93xx.c **** 	0x03, 0x00, 0x00, 0xC0, 0x00, 0xC0, 0x00, 0x30, 0x00, 0x30,
 222:../src/sam/components/display/ili93xx/ili93xx.c **** 	0x00, 0x00, 0x00, 0x00, 0xC0, 0x0C, 0xC0, 0x0C, 0xC0, 0x0C,
 223:../src/sam/components/display/ili93xx/ili93xx.c **** 	0xFF, 0xFC, 0xFF, 0xFC, 0x00, 0x00, 0x00, 0x00, 0x00, 0x00,
 224:../src/sam/components/display/ili93xx/ili93xx.c **** 	0x0C, 0x00, 0x1C, 0x00, 0x38, 0x00, 0x70, 0x00, 0xE0, 0x00,
 225:../src/sam/components/display/ili93xx/ili93xx.c **** 	0xE0, 0x00, 0x70, 0x00, 0x38, 0x00, 0x1C, 0x00, 0x0C, 0x00,
 226:../src/sam/components/display/ili93xx/ili93xx.c **** 	0x00, 0x0C, 0x00, 0x0C, 0x00, 0x0C, 0x00, 0x0C, 0x00, 0x0C,
 227:../src/sam/components/display/ili93xx/ili93xx.c **** 	0x00, 0x0C, 0x00, 0x0C, 0x00, 0x0C, 0x00, 0x0C, 0x00, 0x0C,
 228:../src/sam/components/display/ili93xx/ili93xx.c **** 	0x00, 0x00, 0x00, 0x00, 0xC0, 0x00, 0xE0, 0x00, 0x70, 0x00,
 229:../src/sam/components/display/ili93xx/ili93xx.c **** 	0x38, 0x00, 0x18, 0x00, 0x00, 0x00, 0x00, 0x00, 0x00, 0x00,
 230:../src/sam/components/display/ili93xx/ili93xx.c **** 	0x00, 0x30, 0x06, 0x78, 0x0E, 0xFC, 0x0C, 0xCC, 0x0C, 0xCC,
 231:../src/sam/components/display/ili93xx/ili93xx.c **** 	0x0C, 0xCC, 0x0C, 0xCC, 0x0E, 0xCC, 0x07, 0xFC, 0x03, 0xF8,
 232:../src/sam/components/display/ili93xx/ili93xx.c **** 	0xFF, 0xFC, 0xFF, 0xFC, 0x03, 0x0C, 0x03, 0x0C, 0x03, 0x0C,
 233:../src/sam/components/display/ili93xx/ili93xx.c **** 	0x03, 0x0C, 0x03, 0x0C, 0x03, 0x9C, 0x01, 0xF8, 0x00, 0xF0,
 234:../src/sam/components/display/ili93xx/ili93xx.c **** 	0x03, 0xF0, 0x07, 0xF8, 0x0E, 0x1C, 0x0C, 0x0C, 0x0C, 0x0C,
 235:../src/sam/components/display/ili93xx/ili93xx.c **** 	0x0C, 0x0C, 0x0C, 0x0C, 0x0E, 0x1C, 0x07, 0x38, 0x03, 0x30,
 236:../src/sam/components/display/ili93xx/ili93xx.c **** 	0x00, 0xF0, 0x01, 0xF8, 0x03, 0x9C, 0x03, 0x0C, 0x03, 0x0C,
 237:../src/sam/components/display/ili93xx/ili93xx.c **** 	0x03, 0x0C, 0x03, 0x0C, 0x03, 0x0C, 0xFF, 0xFC, 0xFF, 0xFC,
 238:../src/sam/components/display/ili93xx/ili93xx.c **** 	0x03, 0xF0, 0x07, 0xF8, 0x0E, 0xDC, 0x0C, 0xCC, 0x0C, 0xCC,
 239:../src/sam/components/display/ili93xx/ili93xx.c **** 	0x0C, 0xCC, 0x0C, 0xCC, 0x0E, 0xDC, 0x07, 0xD8, 0x03, 0x90,
 240:../src/sam/components/display/ili93xx/ili93xx.c **** 	0x00, 0x00, 0x03, 0x00, 0x3F, 0xFC, 0x7F, 0xFC, 0xE3, 0x00,
 241:../src/sam/components/display/ili93xx/ili93xx.c **** 	0xE3, 0x00, 0x70, 0x00, 0x30, 0x00, 0x00, 0x00, 0x00, 0x00,
 242:../src/sam/components/display/ili93xx/ili93xx.c **** 	0x03, 0x18, 0x07, 0x9C, 0x0F, 0xCC, 0x0C, 0xCC, 0x0C, 0xCC,
 243:../src/sam/components/display/ili93xx/ili93xx.c **** 	0x0C, 0xCC, 0x0C, 0xCC, 0x0C, 0xDC, 0x0F, 0xF8, 0x07, 0xF0,
 244:../src/sam/components/display/ili93xx/ili93xx.c **** 	0xFF, 0xFC, 0xFF, 0xFC, 0x03, 0x00, 0x03, 0x00, 0x03, 0x00,
 245:../src/sam/components/display/ili93xx/ili93xx.c **** 	0x03, 0x00, 0x03, 0x80, 0x01, 0xFC, 0x00, 0xFC, 0x00, 0x00,
 246:../src/sam/components/display/ili93xx/ili93xx.c **** 	0x00, 0x00, 0x00, 0x00, 0x00, 0x00, 0x00, 0x00, 0x1B, 0xFC,
 247:../src/sam/components/display/ili93xx/ili93xx.c **** 	0x1B, 0xFC, 0x00, 0x00, 0x00, 0x00, 0x00, 0x00, 0x00, 0x00,
 248:../src/sam/components/display/ili93xx/ili93xx.c **** 	0x00, 0x00, 0x00, 0x30, 0x00, 0x38, 0x00, 0x1C, 0x00, 0x0C,
 249:../src/sam/components/display/ili93xx/ili93xx.c **** 	0x00, 0x0C, 0x00, 0x1C, 0xCF, 0xF8, 0xCF, 0xF0, 0x00, 0x00,
 250:../src/sam/components/display/ili93xx/ili93xx.c **** 	0x00, 0x00, 0xFF, 0xFC, 0xFF, 0xFC, 0x00, 0xE0, 0x01, 0xE0,
 251:../src/sam/components/display/ili93xx/ili93xx.c **** 	0x03, 0xF0, 0x07, 0x38, 0x0E, 0x1C, 0x0C, 0x0C, 0x00, 0x00,
 252:../src/sam/components/display/ili93xx/ili93xx.c **** 	0x00, 0x00, 0x00, 0x00, 0xC0, 0x0C, 0xC0, 0x0C, 0xFF, 0xFC,
 253:../src/sam/components/display/ili93xx/ili93xx.c **** 	0xFF, 0xFC, 0x00, 0x0C, 0x00, 0x0C, 0x00, 0x00, 0x00, 0x00,
 254:../src/sam/components/display/ili93xx/ili93xx.c **** 	0x0F, 0xFC, 0x0F, 0xFC, 0x0E, 0x00, 0x07, 0x00, 0x03, 0xC0,
 255:../src/sam/components/display/ili93xx/ili93xx.c **** 	0x03, 0xC0, 0x07, 0x00, 0x0E, 0x00, 0x0F, 0xFC, 0x0F, 0xFC,
 256:../src/sam/components/display/ili93xx/ili93xx.c **** 	0x0F, 0xFC, 0x0F, 0xFC, 0x03, 0x00, 0x07, 0x00, 0x0E, 0x00,
 257:../src/sam/components/display/ili93xx/ili93xx.c **** 	0x0C, 0x00, 0x0C, 0x00, 0x0E, 0x00, 0x07, 0xFC, 0x03, 0xFC,
 258:../src/sam/components/display/ili93xx/ili93xx.c **** 	0x03, 0xF0, 0x07, 0xF8, 0x0E, 0x1C, 0x0C, 0x0C, 0x0C, 0x0C,
 259:../src/sam/components/display/ili93xx/ili93xx.c **** 	0x0C, 0x0C, 0x0C, 0x0C, 0x0E, 0x1C, 0x07, 0xF8, 0x03, 0xF0,
 260:../src/sam/components/display/ili93xx/ili93xx.c **** 	0x0F, 0xFC, 0x0F, 0xFC, 0x0C, 0xC0, 0x0C, 0xC0, 0x0C, 0xC0,
 261:../src/sam/components/display/ili93xx/ili93xx.c **** 	0x0C, 0xC0, 0x0C, 0xC0, 0x0F, 0xC0, 0x07, 0x80, 0x03, 0x00,
 262:../src/sam/components/display/ili93xx/ili93xx.c **** 	0x03, 0x00, 0x07, 0x80, 0x0F, 0xC0, 0x0C, 0xC0, 0x0C, 0xC0,
 263:../src/sam/components/display/ili93xx/ili93xx.c **** 	0x0C, 0xC0, 0x0C, 0xC0, 0x0C, 0xC0, 0x0F, 0xFC, 0x0F, 0xFC,
 264:../src/sam/components/display/ili93xx/ili93xx.c **** 	0x0F, 0xFC, 0x0F, 0xFC, 0x03, 0x80, 0x07, 0x00, 0x0E, 0x00,
 265:../src/sam/components/display/ili93xx/ili93xx.c **** 	0x0C, 0x00, 0x0C, 0x00, 0x0E, 0x00, 0x07, 0x00, 0x03, 0x00,
 266:../src/sam/components/display/ili93xx/ili93xx.c **** 	0x03, 0x18, 0x07, 0x9C, 0x0F, 0xCC, 0x0C, 0xCC, 0x0C, 0xCC,
 267:../src/sam/components/display/ili93xx/ili93xx.c **** 	0x0C, 0xCC, 0x0C, 0xCC, 0x0C, 0xFC, 0x0E, 0x78, 0x06, 0x30,
 268:../src/sam/components/display/ili93xx/ili93xx.c **** 	0x00, 0x00, 0x0C, 0x00, 0x0C, 0x00, 0xFF, 0xF0, 0xFF, 0xF8,
 269:../src/sam/components/display/ili93xx/ili93xx.c **** 	0x0C, 0x1C, 0x0C, 0x1C, 0x0C, 0x38, 0x0C, 0x30, 0x00, 0x00,
 270:../src/sam/components/display/ili93xx/ili93xx.c **** 	0x0F, 0xF0, 0x0F, 0xF8, 0x00, 0x1C, 0x00, 0x0C, 0x00, 0x0C,
 271:../src/sam/components/display/ili93xx/ili93xx.c **** 	0x00, 0x0C, 0x00, 0x0C, 0x00, 0x1C, 0x0F, 0xF8, 0x0F, 0xF0,
 272:../src/sam/components/display/ili93xx/ili93xx.c **** 	0x0F, 0xC0, 0x0F, 0xE0, 0x00, 0x70, 0x00, 0x38, 0x00, 0x1C,
 273:../src/sam/components/display/ili93xx/ili93xx.c **** 	0x00, 0x1C, 0x00, 0x38, 0x00, 0x70, 0x0F, 0xE0, 0x0F, 0xC0,
 274:../src/sam/components/display/ili93xx/ili93xx.c **** 	0x0F, 0xF0, 0x0F, 0xF8, 0x00, 0x1C, 0x00, 0x1C, 0x00, 0xF8,
 275:../src/sam/components/display/ili93xx/ili93xx.c **** 	0x00, 0xF8, 0x00, 0x1C, 0x00, 0x1C, 0x0F, 0xF8, 0x0F, 0xF0,
 276:../src/sam/components/display/ili93xx/ili93xx.c **** 	0x0C, 0x0C, 0x0E, 0x1C, 0x07, 0x38, 0x03, 0xF0, 0x01, 0xE0,
 277:../src/sam/components/display/ili93xx/ili93xx.c **** 	0x01, 0xE0, 0x03, 0xF0, 0x07, 0x38, 0x0E, 0x1C, 0x0C, 0x0C,
 278:../src/sam/components/display/ili93xx/ili93xx.c **** 	0x0C, 0x00, 0x0E, 0x00, 0x07, 0x0C, 0x03, 0x9C, 0x01, 0xF8,
 279:../src/sam/components/display/ili93xx/ili93xx.c **** 	0x01, 0xF0, 0x03, 0x80, 0x07, 0x00, 0x0E, 0x00, 0x0C, 0x00,
 280:../src/sam/components/display/ili93xx/ili93xx.c **** 	0x0C, 0x0C, 0x0C, 0x1C, 0x0C, 0x3C, 0x0C, 0x7C, 0x0C, 0xEC,
 281:../src/sam/components/display/ili93xx/ili93xx.c **** 	0x0D, 0xCC, 0x0F, 0x8C, 0x0F, 0x0C, 0x0E, 0x0C, 0x0C, 0x0C,
 282:../src/sam/components/display/ili93xx/ili93xx.c **** 	0x00, 0x00, 0x03, 0x00, 0x07, 0x80, 0x3F, 0xF0, 0x7C, 0xF8,
 283:../src/sam/components/display/ili93xx/ili93xx.c **** 	0xE0, 0x1C, 0xC0, 0x0C, 0xC0, 0x0C, 0xC0, 0x0C, 0x00, 0x00,
 284:../src/sam/components/display/ili93xx/ili93xx.c **** 	0x03, 0x0C, 0x03, 0x0C, 0x3F, 0xFC, 0x7F, 0xFC, 0xE3, 0x0C,
 285:../src/sam/components/display/ili93xx/ili93xx.c **** 	0xC3, 0x0C, 0xC0, 0x0C, 0xE0, 0x0C, 0x70, 0x0C, 0x30, 0x0C,
 286:../src/sam/components/display/ili93xx/ili93xx.c **** 	0x00, 0x00, 0xC0, 0x0C, 0xC0, 0x0C, 0xC0, 0x0C, 0xE0, 0x1C,
 287:../src/sam/components/display/ili93xx/ili93xx.c **** 	0x7C, 0xF8, 0x3F, 0xF0, 0x07, 0x80, 0x03, 0x00, 0x00, 0x00,
 288:../src/sam/components/display/ili93xx/ili93xx.c **** 	0xC0, 0x00, 0xC0, 0x00, 0xC0, 0x00, 0xC0, 0x00, 0xC0, 0x00,
 289:../src/sam/components/display/ili93xx/ili93xx.c **** 	0xC0, 0x00, 0xC0, 0x00, 0xC0, 0x00, 0xC0, 0x00, 0xC0, 0x00,
 290:../src/sam/components/display/ili93xx/ili93xx.c **** 	0xFF, 0xFC, 0xFF, 0xFC, 0xFF, 0xFC, 0xFF, 0xFC, 0xFF, 0xFC,
 291:../src/sam/components/display/ili93xx/ili93xx.c **** 	0xFF, 0xFC, 0xFF, 0xFC, 0xFF, 0xFC, 0xFF, 0xFC, 0xFF, 0xFC
 292:../src/sam/components/display/ili93xx/ili93xx.c **** };
 293:../src/sam/components/display/ili93xx/ili93xx.c **** 
 294:../src/sam/components/display/ili93xx/ili93xx.c **** /**
 295:../src/sam/components/display/ili93xx/ili93xx.c ****  * \brief Send command to LCD controller.
 296:../src/sam/components/display/ili93xx/ili93xx.c ****  *
 297:../src/sam/components/display/ili93xx/ili93xx.c ****  * \param uc_cmd command.
 298:../src/sam/components/display/ili93xx/ili93xx.c ****  */
 299:../src/sam/components/display/ili93xx/ili93xx.c **** static void ili9341_write_cmd(uint8_t uc_cmd)
 300:../src/sam/components/display/ili93xx/ili93xx.c **** {
 301:../src/sam/components/display/ili93xx/ili93xx.c ****   /* Configure SPI Chip Select: SPI Mode 0, 8bits */
 302:../src/sam/components/display/ili93xx/ili93xx.c **** //  spi_set_bits_per_transfer(BOARD_ILI9341_SPI, BOARD_ILI9341_SPI_NPCS, SPI_CSR_BITS_8_BIT);
 303:../src/sam/components/display/ili93xx/ili93xx.c ****   /* Enable SPI */
 304:../src/sam/components/display/ili93xx/ili93xx.c **** //  spi_enable(BOARD_ILI9341_SPI);
 305:../src/sam/components/display/ili93xx/ili93xx.c **** 
 306:../src/sam/components/display/ili93xx/ili93xx.c ****   /* Transfer data/command pin. (Select command.) */
 307:../src/sam/components/display/ili93xx/ili93xx.c ****   gpio_set_pin_low(BOARD_ILI9341_DC_GPIO);
 308:../src/sam/components/display/ili93xx/ili93xx.c ****   spi_write(BOARD_ILI9341_SPI, uc_cmd, BOARD_ILI9341_SPI_NPCS, 0);
 309:../src/sam/components/display/ili93xx/ili93xx.c **** 
 310:../src/sam/components/display/ili93xx/ili93xx.c ****   /* Disable SPI */
 311:../src/sam/components/display/ili93xx/ili93xx.c **** //  spi_disable(BOARD_ILI9341_SPI);
 312:../src/sam/components/display/ili93xx/ili93xx.c **** 
 313:../src/sam/components/display/ili93xx/ili93xx.c ****   /* Back to the default config: SPI Mode 0, 16bits */
 314:../src/sam/components/display/ili93xx/ili93xx.c **** //  spi_set_bits_per_transfer(BOARD_ILI9341_SPI, BOARD_ILI9341_SPI_NPCS, SPI_CSR_BITS_16_BIT);
 315:../src/sam/components/display/ili93xx/ili93xx.c **** }
 316:../src/sam/components/display/ili93xx/ili93xx.c **** 
 317:../src/sam/components/display/ili93xx/ili93xx.c **** /**
 318:../src/sam/components/display/ili93xx/ili93xx.c ****  * \brief Send 16 bits data to LCD controller.
 319:../src/sam/components/display/ili93xx/ili93xx.c ****  *
 320:../src/sam/components/display/ili93xx/ili93xx.c ****  * \param uc_cmd command.
 321:../src/sam/components/display/ili93xx/ili93xx.c ****  */
 322:../src/sam/components/display/ili93xx/ili93xx.c **** static void ili9341_write_data16(uint16_t us_data)
 323:../src/sam/components/display/ili93xx/ili93xx.c **** {
 324:../src/sam/components/display/ili93xx/ili93xx.c ****   /* Enable SPI */
 325:../src/sam/components/display/ili93xx/ili93xx.c ****   spi_enable(BOARD_ILI9341_SPI);
 326:../src/sam/components/display/ili93xx/ili93xx.c **** 
 327:../src/sam/components/display/ili93xx/ili93xx.c ****   /* Transfer data */
 328:../src/sam/components/display/ili93xx/ili93xx.c ****   gpio_set_pin_high(BOARD_ILI9341_DC_GPIO);
 329:../src/sam/components/display/ili93xx/ili93xx.c ****   spi_write(BOARD_ILI9341_SPI, us_data, BOARD_ILI9341_SPI_NPCS, 0);
 330:../src/sam/components/display/ili93xx/ili93xx.c **** 
 331:../src/sam/components/display/ili93xx/ili93xx.c ****   /* Disable SPI */
 332:../src/sam/components/display/ili93xx/ili93xx.c ****   spi_disable(BOARD_ILI9341_SPI);
 333:../src/sam/components/display/ili93xx/ili93xx.c **** }
 334:../src/sam/components/display/ili93xx/ili93xx.c **** 
 335:../src/sam/components/display/ili93xx/ili93xx.c **** /**
 336:../src/sam/components/display/ili93xx/ili93xx.c ****  * \brief Send 8 bits data to LCD controller.
 337:../src/sam/components/display/ili93xx/ili93xx.c ****  *
 338:../src/sam/components/display/ili93xx/ili93xx.c ****  * \param uc_cmd command.
 339:../src/sam/components/display/ili93xx/ili93xx.c ****  */
 340:../src/sam/components/display/ili93xx/ili93xx.c **** 
 341:../src/sam/components/display/ili93xx/ili93xx.c **** static void ili9341_write_data8(uint8_t us_data)
 342:../src/sam/components/display/ili93xx/ili93xx.c **** {
 343:../src/sam/components/display/ili93xx/ili93xx.c ****   /* Configure SPI Chip Select: SPI Mode 0, 8bits */
 344:../src/sam/components/display/ili93xx/ili93xx.c ****   spi_set_bits_per_transfer(BOARD_ILI9341_SPI, BOARD_ILI9341_SPI_NPCS, SPI_CSR_BITS_8_BIT);
 345:../src/sam/components/display/ili93xx/ili93xx.c ****   /* Enable SPI */
 346:../src/sam/components/display/ili93xx/ili93xx.c ****   spi_enable(BOARD_ILI9341_SPI);
 347:../src/sam/components/display/ili93xx/ili93xx.c **** 
 348:../src/sam/components/display/ili93xx/ili93xx.c ****   /* Transfer data/command pin. (Select data.) */
 349:../src/sam/components/display/ili93xx/ili93xx.c ****   gpio_set_pin_high(BOARD_ILI9341_DC_GPIO);
 350:../src/sam/components/display/ili93xx/ili93xx.c ****   spi_write(BOARD_ILI9341_SPI, us_data, BOARD_ILI9341_SPI_NPCS, 0);
 351:../src/sam/components/display/ili93xx/ili93xx.c **** 
 352:../src/sam/components/display/ili93xx/ili93xx.c ****   /* Disable SPI */
 353:../src/sam/components/display/ili93xx/ili93xx.c ****   spi_disable(BOARD_ILI9341_SPI);
 354:../src/sam/components/display/ili93xx/ili93xx.c **** 
 355:../src/sam/components/display/ili93xx/ili93xx.c ****   /* Back to the default config: SPI Mode 0, 16bits */
 356:../src/sam/components/display/ili93xx/ili93xx.c ****   spi_set_bits_per_transfer(BOARD_ILI9341_SPI, BOARD_ILI9341_SPI_NPCS, SPI_CSR_BITS_16_BIT);
 357:../src/sam/components/display/ili93xx/ili93xx.c **** }
 358:../src/sam/components/display/ili93xx/ili93xx.c **** 
 359:../src/sam/components/display/ili93xx/ili93xx.c **** 
 360:../src/sam/components/display/ili93xx/ili93xx.c **** /**
 361:../src/sam/components/display/ili93xx/ili93xx.c ****  * \brief Prepare to write GRAM data for ili93xx.
 362:../src/sam/components/display/ili93xx/ili93xx.c ****  */
 363:../src/sam/components/display/ili93xx/ili93xx.c **** static void ili93xx_write_ram_prepare(void)
 364:../src/sam/components/display/ili93xx/ili93xx.c **** {
 365:../src/sam/components/display/ili93xx/ili93xx.c **** 	if (g_uc_device_type == DEVICE_TYPE_ILI9325) {
 366:../src/sam/components/display/ili93xx/ili93xx.c **** 
 367:../src/sam/components/display/ili93xx/ili93xx.c **** 	} else if (g_uc_device_type == DEVICE_TYPE_ILI9341) {
 368:../src/sam/components/display/ili93xx/ili93xx.c **** 		/** memory write command (R2Ch)*/
 369:../src/sam/components/display/ili93xx/ili93xx.c **** 	    ili9341_write_cmd(ILI9341_CMD_MEMORY_WRITE);
 370:../src/sam/components/display/ili93xx/ili93xx.c **** 	}
 371:../src/sam/components/display/ili93xx/ili93xx.c **** }
 372:../src/sam/components/display/ili93xx/ili93xx.c **** 
 373:../src/sam/components/display/ili93xx/ili93xx.c **** /**
 374:../src/sam/components/display/ili93xx/ili93xx.c ****  * \brief Write data to LCD GRAM.
 375:../src/sam/components/display/ili93xx/ili93xx.c ****  *
 376:../src/sam/components/display/ili93xx/ili93xx.c ****  * \param ul_color 24-bits RGB color.
 377:../src/sam/components/display/ili93xx/ili93xx.c ****  */
 378:../src/sam/components/display/ili93xx/ili93xx.c **** static void ili93xx_write_ram(ili93xx_color_t ul_color)
 379:../src/sam/components/display/ili93xx/ili93xx.c **** {
 380:../src/sam/components/display/ili93xx/ili93xx.c **** 
 381:../src/sam/components/display/ili93xx/ili93xx.c ****   /* Transfer data/command pin. (Select data.) */
 382:../src/sam/components/display/ili93xx/ili93xx.c ****   gpio_set_pin_high(BOARD_ILI9341_DC_GPIO);
 383:../src/sam/components/display/ili93xx/ili93xx.c **** 
 384:../src/sam/components/display/ili93xx/ili93xx.c **** #if defined(BITS_16_COLOR)
 385:../src/sam/components/display/ili93xx/ili93xx.c ****   spi_write(BOARD_ILI9341_SPI, ((ul_color >> 8) & 0xFF), BOARD_ILI9341_SPI_NPCS, 0);
 386:../src/sam/components/display/ili93xx/ili93xx.c ****   spi_write(BOARD_ILI9341_SPI, (ul_color & 0xFF), BOARD_ILI9341_SPI_NPCS, 0);
 387:../src/sam/components/display/ili93xx/ili93xx.c **** #endif
 388:../src/sam/components/display/ili93xx/ili93xx.c **** 
 389:../src/sam/components/display/ili93xx/ili93xx.c **** #if defined(BITS_24_COLOR)
 390:../src/sam/components/display/ili93xx/ili93xx.c ****   spi_write(BOARD_ILI9341_SPI, ((ul_color >> 8) & 0xFF), BOARD_ILI9341_SPI_NPCS, 0);
 391:../src/sam/components/display/ili93xx/ili93xx.c ****   spi_write(BOARD_ILI9341_SPI, (ul_color & 0xFF), BOARD_ILI9341_SPI_NPCS, 0);
 392:../src/sam/components/display/ili93xx/ili93xx.c **** #endif
 393:../src/sam/components/display/ili93xx/ili93xx.c **** 
 394:../src/sam/components/display/ili93xx/ili93xx.c ****   return;
 395:../src/sam/components/display/ili93xx/ili93xx.c **** 
 396:../src/sam/components/display/ili93xx/ili93xx.c ****   /* Configure SPI Chip Select: SPI Mode 0, 8bits */
 397:../src/sam/components/display/ili93xx/ili93xx.c ****   spi_set_bits_per_transfer(BOARD_ILI9341_SPI, BOARD_ILI9341_SPI_NPCS, SPI_CSR_BITS_8_BIT);
 398:../src/sam/components/display/ili93xx/ili93xx.c ****   /* Enable SPI */
 399:../src/sam/components/display/ili93xx/ili93xx.c ****   spi_enable(BOARD_ILI9341_SPI);
 400:../src/sam/components/display/ili93xx/ili93xx.c **** 
 401:../src/sam/components/display/ili93xx/ili93xx.c ****   /* Transfer data/command pin. (Select data.) */
 402:../src/sam/components/display/ili93xx/ili93xx.c ****   gpio_set_pin_high(BOARD_ILI9341_DC_GPIO);
 403:../src/sam/components/display/ili93xx/ili93xx.c **** 
 404:../src/sam/components/display/ili93xx/ili93xx.c **** 
 405:../src/sam/components/display/ili93xx/ili93xx.c ****   /* Disable SPI */
 406:../src/sam/components/display/ili93xx/ili93xx.c ****   spi_disable(BOARD_ILI9341_SPI);
 407:../src/sam/components/display/ili93xx/ili93xx.c **** 
 408:../src/sam/components/display/ili93xx/ili93xx.c ****   /* Back to the default config: SPI Mode 0, 16bits */
 409:../src/sam/components/display/ili93xx/ili93xx.c ****   spi_set_bits_per_transfer(BOARD_ILI9341_SPI, BOARD_ILI9341_SPI_NPCS, SPI_CSR_BITS_16_BIT);
 410:../src/sam/components/display/ili93xx/ili93xx.c **** }
 411:../src/sam/components/display/ili93xx/ili93xx.c **** 
 412:../src/sam/components/display/ili93xx/ili93xx.c **** /**
 413:../src/sam/components/display/ili93xx/ili93xx.c ****  * \brief Write multiple data in buffer to LCD controller for ili93xx.
 414:../src/sam/components/display/ili93xx/ili93xx.c ****  *
 415:../src/sam/components/display/ili93xx/ili93xx.c ****  * \param p_ul_buf data buffer.
 416:../src/sam/components/display/ili93xx/ili93xx.c ****  * \param ul_size size in pixels.
 417:../src/sam/components/display/ili93xx/ili93xx.c ****  */
 418:../src/sam/components/display/ili93xx/ili93xx.c **** static void ili93xx_write_ram_buffer(const ili93xx_color_t *p_ul_buf,
 419:../src/sam/components/display/ili93xx/ili93xx.c **** 		uint32_t ul_size)
 420:../src/sam/components/display/ili93xx/ili93xx.c **** {
 421:../src/sam/components/display/ili93xx/ili93xx.c **** 	uint32_t ul_addr;
 422:../src/sam/components/display/ili93xx/ili93xx.c **** 	for (ul_addr = 0; ul_addr < (ul_size - ul_size % 8); ul_addr += 8) {
 423:../src/sam/components/display/ili93xx/ili93xx.c **** 		ili93xx_write_ram(p_ul_buf[ul_addr]);
 424:../src/sam/components/display/ili93xx/ili93xx.c **** 		ili93xx_write_ram(p_ul_buf[ul_addr + 1]);
 425:../src/sam/components/display/ili93xx/ili93xx.c **** 		ili93xx_write_ram(p_ul_buf[ul_addr + 2]);
 426:../src/sam/components/display/ili93xx/ili93xx.c **** 		ili93xx_write_ram(p_ul_buf[ul_addr + 3]);
 427:../src/sam/components/display/ili93xx/ili93xx.c **** 		ili93xx_write_ram(p_ul_buf[ul_addr + 4]);
 428:../src/sam/components/display/ili93xx/ili93xx.c **** 		ili93xx_write_ram(p_ul_buf[ul_addr + 5]);
 429:../src/sam/components/display/ili93xx/ili93xx.c **** 		ili93xx_write_ram(p_ul_buf[ul_addr + 6]);
 430:../src/sam/components/display/ili93xx/ili93xx.c **** 		ili93xx_write_ram(p_ul_buf[ul_addr + 7]);
 431:../src/sam/components/display/ili93xx/ili93xx.c **** 	}
 432:../src/sam/components/display/ili93xx/ili93xx.c **** 	for (; ul_addr < ul_size; ul_addr++) {
 433:../src/sam/components/display/ili93xx/ili93xx.c **** 		ili93xx_write_ram(p_ul_buf[ul_addr]);
 434:../src/sam/components/display/ili93xx/ili93xx.c **** 	}
 435:../src/sam/components/display/ili93xx/ili93xx.c **** }
 436:../src/sam/components/display/ili93xx/ili93xx.c **** 
 437:../src/sam/components/display/ili93xx/ili93xx.c **** /**
 438:../src/sam/components/display/ili93xx/ili93xx.c ****  * \brief Write data to LCD Register for ili93xx.
 439:../src/sam/components/display/ili93xx/ili93xx.c ****  *
 440:../src/sam/components/display/ili93xx/ili93xx.c ****  * \param uc_reg register address.
 441:../src/sam/components/display/ili93xx/ili93xx.c ****  * \param us_data data to be written.
 442:../src/sam/components/display/ili93xx/ili93xx.c ****  */
 443:../src/sam/components/display/ili93xx/ili93xx.c **** static void ili93xx_write_register_datas(uint8_t uc_reg, uint8_t *p_data, uint8_t uc_datacnt)
 444:../src/sam/components/display/ili93xx/ili93xx.c **** {
 445:../src/sam/components/display/ili93xx/ili93xx.c ****   /* select command in the DC register. */
 446:../src/sam/components/display/ili93xx/ili93xx.c ****   gpio_set_pin_low(BOARD_ILI9341_DC_GPIO);
 447:../src/sam/components/display/ili93xx/ili93xx.c ****   spi_write_packet(BOARD_ILI9341_SPI, &uc_reg, 1);
 448:../src/sam/components/display/ili93xx/ili93xx.c **** 
 449:../src/sam/components/display/ili93xx/ili93xx.c ****   /* select data in the DC resgister. */
 450:../src/sam/components/display/ili93xx/ili93xx.c ****   gpio_set_pin_high(BOARD_ILI9341_DC_GPIO);
 451:../src/sam/components/display/ili93xx/ili93xx.c **** 
 452:../src/sam/components/display/ili93xx/ili93xx.c ****   spi_write_packet(BOARD_ILI9341_SPI, p_data, uc_datacnt);
 453:../src/sam/components/display/ili93xx/ili93xx.c **** 
 454:../src/sam/components/display/ili93xx/ili93xx.c **** };
 455:../src/sam/components/display/ili93xx/ili93xx.c **** 
 456:../src/sam/components/display/ili93xx/ili93xx.c **** /**
 457:../src/sam/components/display/ili93xx/ili93xx.c ****  * \brief Write a word (16bits)to LCD Register.
 458:../src/sam/components/display/ili93xx/ili93xx.c ****  *
 459:../src/sam/components/display/ili93xx/ili93xx.c ****  * \param uc_reg register address.
 460:../src/sam/components/display/ili93xx/ili93xx.c ****  * \param us_data data to be written.
 461:../src/sam/components/display/ili93xx/ili93xx.c ****  */
 462:../src/sam/components/display/ili93xx/ili93xx.c **** static void ili93xx_write_register_word(uint8_t uc_reg, uint16_t us_data)
 463:../src/sam/components/display/ili93xx/ili93xx.c **** {
 464:../src/sam/components/display/ili93xx/ili93xx.c ****   ili93xx_write_register_datas(uc_reg, (uint8_t*)&us_data, 2);
 465:../src/sam/components/display/ili93xx/ili93xx.c **** }
 466:../src/sam/components/display/ili93xx/ili93xx.c **** 
 467:../src/sam/components/display/ili93xx/ili93xx.c **** /**
 468:../src/sam/components/display/ili93xx/ili93xx.c ****  * \brief Write data to LCD Register for ili93xx.
 469:../src/sam/components/display/ili93xx/ili93xx.c ****  *
 470:../src/sam/components/display/ili93xx/ili93xx.c ****  * \param uc_reg register address.
 471:../src/sam/components/display/ili93xx/ili93xx.c ****  * \param us_data data to be written.
 472:../src/sam/components/display/ili93xx/ili93xx.c ****  */
 473:../src/sam/components/display/ili93xx/ili93xx.c **** static void ili93xx_write_register(uint8_t uc_reg, uint8_t *p_data,
 474:../src/sam/components/display/ili93xx/ili93xx.c **** 		uint8_t uc_datacnt)
 475:../src/sam/components/display/ili93xx/ili93xx.c **** {
 476:../src/sam/components/display/ili93xx/ili93xx.c **** 
 477:../src/sam/components/display/ili93xx/ili93xx.c ****   /* Configure SPI Chip Select: SPI Mode 0, 8bits */
 478:../src/sam/components/display/ili93xx/ili93xx.c ****   spi_set_bits_per_transfer(BOARD_ILI9341_SPI, BOARD_ILI9341_SPI_NPCS, SPI_CSR_BITS_8_BIT);
 479:../src/sam/components/display/ili93xx/ili93xx.c ****   /* Enable SPI */
 480:../src/sam/components/display/ili93xx/ili93xx.c ****   spi_enable(BOARD_ILI9341_SPI);
 481:../src/sam/components/display/ili93xx/ili93xx.c **** 
 482:../src/sam/components/display/ili93xx/ili93xx.c ****   /* select command in the DC register. */
 483:../src/sam/components/display/ili93xx/ili93xx.c ****   gpio_set_pin_low(BOARD_ILI9341_DC_GPIO);
 484:../src/sam/components/display/ili93xx/ili93xx.c ****   spi_write(BOARD_ILI9341_SPI, uc_reg, BOARD_ILI9341_SPI_NPCS, 0);
 485:../src/sam/components/display/ili93xx/ili93xx.c **** 
 486:../src/sam/components/display/ili93xx/ili93xx.c ****   /* select data in the DC resgister. */
 487:../src/sam/components/display/ili93xx/ili93xx.c ****   gpio_set_pin_high(BOARD_ILI9341_DC_GPIO);
 488:../src/sam/components/display/ili93xx/ili93xx.c **** 
 489:../src/sam/components/display/ili93xx/ili93xx.c ****   for (uint8_t i = 0; i < uc_datacnt; i++) {
 490:../src/sam/components/display/ili93xx/ili93xx.c ****       spi_write(BOARD_ILI9341_SPI, &p_data, BOARD_ILI9341_SPI_NPCS, 0);
 491:../src/sam/components/display/ili93xx/ili93xx.c ****       p_data++;
 492:../src/sam/components/display/ili93xx/ili93xx.c ****   }
 493:../src/sam/components/display/ili93xx/ili93xx.c **** 
 494:../src/sam/components/display/ili93xx/ili93xx.c ****   /* Disable SPI */
 495:../src/sam/components/display/ili93xx/ili93xx.c **** //  spi_disable(BOARD_ILI9341_SPI);
 496:../src/sam/components/display/ili93xx/ili93xx.c **** 
 497:../src/sam/components/display/ili93xx/ili93xx.c ****   /* Back to the default config: SPI Mode 0, 16bits */
 498:../src/sam/components/display/ili93xx/ili93xx.c **** //  spi_set_bits_per_transfer(BOARD_ILI9341_SPI, BOARD_ILI9341_SPI_NPCS, SPI_CSR_BITS_16_BIT);
 499:../src/sam/components/display/ili93xx/ili93xx.c **** 
 500:../src/sam/components/display/ili93xx/ili93xx.c **** 
 501:../src/sam/components/display/ili93xx/ili93xx.c **** }
 502:../src/sam/components/display/ili93xx/ili93xx.c **** 
 503:../src/sam/components/display/ili93xx/ili93xx.c **** /**
 504:../src/sam/components/display/ili93xx/ili93xx.c ****  * \brief Prepare to read GRAM data for ili93xx.
 505:../src/sam/components/display/ili93xx/ili93xx.c ****  */
 506:../src/sam/components/display/ili93xx/ili93xx.c **** static void ili93xx_read_ram_prepare(void)
 507:../src/sam/components/display/ili93xx/ili93xx.c **** {
 508:../src/sam/components/display/ili93xx/ili93xx.c **** 	if (g_uc_device_type == DEVICE_TYPE_ILI9325) {
 509:../src/sam/components/display/ili93xx/ili93xx.c **** 		LCD_IR(0);
 510:../src/sam/components/display/ili93xx/ili93xx.c **** 		/** Write Data to GRAM (R22h) */
 511:../src/sam/components/display/ili93xx/ili93xx.c **** 		LCD_IR(ILI9325_GRAM_DATA_REG);
 512:../src/sam/components/display/ili93xx/ili93xx.c **** 	} else if (g_uc_device_type == DEVICE_TYPE_ILI9341) {
 513:../src/sam/components/display/ili93xx/ili93xx.c **** 		LCD_IR(0);
 514:../src/sam/components/display/ili93xx/ili93xx.c **** 		/** Write Data to GRAM (R2Eh) */
 515:../src/sam/components/display/ili93xx/ili93xx.c **** 		LCD_IR(ILI9341_CMD_MEMORY_READ);
 516:../src/sam/components/display/ili93xx/ili93xx.c **** 	}
 517:../src/sam/components/display/ili93xx/ili93xx.c **** }
 518:../src/sam/components/display/ili93xx/ili93xx.c **** 
 519:../src/sam/components/display/ili93xx/ili93xx.c **** /**
 520:../src/sam/components/display/ili93xx/ili93xx.c ****  * \brief Read data to LCD GRAM for ili93xx.
 521:../src/sam/components/display/ili93xx/ili93xx.c ****  *
 522:../src/sam/components/display/ili93xx/ili93xx.c ****  * \note For ili9325, because pixel data LCD GRAM is 18-bits, so convertion
 523:../src/sam/components/display/ili93xx/ili93xx.c ****  * to RGB 24-bits will cause low color bit lose.
 524:../src/sam/components/display/ili93xx/ili93xx.c ****  *
 525:../src/sam/components/display/ili93xx/ili93xx.c ****  * \return color 24-bits RGB color.
 526:../src/sam/components/display/ili93xx/ili93xx.c ****  */
 527:../src/sam/components/display/ili93xx/ili93xx.c **** static uint32_t ili93xx_read_ram(void)
 528:../src/sam/components/display/ili93xx/ili93xx.c **** {
 529:../src/sam/components/display/ili93xx/ili93xx.c **** 	uint8_t value[3];
 530:../src/sam/components/display/ili93xx/ili93xx.c **** 	uint32_t color;
 531:../src/sam/components/display/ili93xx/ili93xx.c **** 	if (g_uc_device_type == DEVICE_TYPE_ILI9325) {
 532:../src/sam/components/display/ili93xx/ili93xx.c **** 		/** dummy read*/
 533:../src/sam/components/display/ili93xx/ili93xx.c **** 		value[0] = LCD_RD();
 534:../src/sam/components/display/ili93xx/ili93xx.c **** 		value[1] = LCD_RD();
 535:../src/sam/components/display/ili93xx/ili93xx.c **** 		/** data upper byte*/
 536:../src/sam/components/display/ili93xx/ili93xx.c **** 		value[0] = LCD_RD();
 537:../src/sam/components/display/ili93xx/ili93xx.c **** 		/** data lower byte */
 538:../src/sam/components/display/ili93xx/ili93xx.c **** 		value[1] = LCD_RD();
 539:../src/sam/components/display/ili93xx/ili93xx.c **** 
 540:../src/sam/components/display/ili93xx/ili93xx.c **** 		/** Convert RGB565 to RGB888 */
 541:../src/sam/components/display/ili93xx/ili93xx.c **** 		/** For BGR format */
 542:../src/sam/components/display/ili93xx/ili93xx.c **** 		color = ((value[0] & 0xF8)) | ((value[0] & 0x07) << 13) |
 543:../src/sam/components/display/ili93xx/ili93xx.c **** 				((value[1] & 0xE0) << 5) |
 544:../src/sam/components/display/ili93xx/ili93xx.c **** 				((value[1] & 0x1F) << 19);
 545:../src/sam/components/display/ili93xx/ili93xx.c **** 	} else if (g_uc_device_type == DEVICE_TYPE_ILI9341) {
 546:../src/sam/components/display/ili93xx/ili93xx.c **** 		/** dummy read */
 547:../src/sam/components/display/ili93xx/ili93xx.c **** 		value[0] = LCD_RD();
 548:../src/sam/components/display/ili93xx/ili93xx.c **** 		/** the highest byte - R byte*/
 549:../src/sam/components/display/ili93xx/ili93xx.c **** 		value[0] = LCD_RD();
 550:../src/sam/components/display/ili93xx/ili93xx.c **** 		/** the middle byte - G byte*/
 551:../src/sam/components/display/ili93xx/ili93xx.c **** 		value[1] = LCD_RD();
 552:../src/sam/components/display/ili93xx/ili93xx.c **** 		/** the lowest byte - B byte*/
 553:../src/sam/components/display/ili93xx/ili93xx.c **** 		value[2] = LCD_RD();
 554:../src/sam/components/display/ili93xx/ili93xx.c **** 		/** combine R, G, B byte to a color value */
 555:../src/sam/components/display/ili93xx/ili93xx.c **** 		color = (value[0] << 16) | (value[1] << 8) | value[2];
 556:../src/sam/components/display/ili93xx/ili93xx.c **** 	}
 557:../src/sam/components/display/ili93xx/ili93xx.c **** 
 558:../src/sam/components/display/ili93xx/ili93xx.c **** 	return color;
 559:../src/sam/components/display/ili93xx/ili93xx.c **** }
 560:../src/sam/components/display/ili93xx/ili93xx.c **** 
 561:../src/sam/components/display/ili93xx/ili93xx.c **** /**
 562:../src/sam/components/display/ili93xx/ili93xx.c ****  * \brief Read data from LCD Register.
 563:../src/sam/components/display/ili93xx/ili93xx.c ****  *
 564:../src/sam/components/display/ili93xx/ili93xx.c ****  * \param uc_reg register address.
 565:../src/sam/components/display/ili93xx/ili93xx.c ****  * \param p_data the pointer to the read data.
 566:../src/sam/components/display/ili93xx/ili93xx.c ****  * \param uc_datacnt the number of the read data
 567:../src/sam/components/display/ili93xx/ili93xx.c ****  */
 568:../src/sam/components/display/ili93xx/ili93xx.c **** static void ili93xx_read_register(uint8_t uc_reg, uint8_t *p_data,
 569:../src/sam/components/display/ili93xx/ili93xx.c **** 		uint8_t uc_datacnt)
 570:../src/sam/components/display/ili93xx/ili93xx.c **** {
 571:../src/sam/components/display/ili93xx/ili93xx.c ****   status_code_t result;
 572:../src/sam/components/display/ili93xx/ili93xx.c **** /*	LCD_IR(0);
 573:../src/sam/components/display/ili93xx/ili93xx.c **** 	LCD_IR(uc_reg);*/
 574:../src/sam/components/display/ili93xx/ili93xx.c **** 
 575:../src/sam/components/display/ili93xx/ili93xx.c ****   gpio_set_pin_low(BOARD_ILI9341_DC_GPIO);
 576:../src/sam/components/display/ili93xx/ili93xx.c ****   result = spi_write(BOARD_ILI9341_SPI, uc_reg, BOARD_ILI9341_SPI_NPCS, 0);
 577:../src/sam/components/display/ili93xx/ili93xx.c ****   /* select data in the DC resgister. */
 578:../src/sam/components/display/ili93xx/ili93xx.c ****   gpio_set_pin_high(BOARD_ILI9341_DC_GPIO);
 579:../src/sam/components/display/ili93xx/ili93xx.c ****   result = spi_read_packet(BOARD_ILI9341_SPI, p_data, uc_datacnt);
 580:../src/sam/components/display/ili93xx/ili93xx.c **** /*	for (uint8_t i = 0; i < uc_datacnt; i++) {
 581:../src/sam/components/display/ili93xx/ili93xx.c **** 	    spi_read( uint8_t *p_pcs)
 582:../src/sam/components/display/ili93xx/ili93xx.c **** 	    p_data[i] = LCD_RD();
 583:../src/sam/components/display/ili93xx/ili93xx.c **** 	}*/
 584:../src/sam/components/display/ili93xx/ili93xx.c **** }
 585:../src/sam/components/display/ili93xx/ili93xx.c **** 
 586:../src/sam/components/display/ili93xx/ili93xx.c **** /**
 587:../src/sam/components/display/ili93xx/ili93xx.c ****  * \brief Delay function.
 588:../src/sam/components/display/ili93xx/ili93xx.c ****  */
 589:../src/sam/components/display/ili93xx/ili93xx.c **** static void ili93xx_delay(uint32_t ul_ms)
 590:../src/sam/components/display/ili93xx/ili93xx.c **** {
  27              		.loc 1 590 0
  28              		.cfi_startproc
  29              		@ args = 0, pretend = 0, frame = 8
  30              		@ frame_needed = 0, uses_anonymous_args = 0
  31              		@ link register save eliminated.
  32              	.LVL0:
  33 0000 82B0     		sub	sp, sp, #8
  34              		.cfi_def_cfa_offset 8
 591:../src/sam/components/display/ili93xx/ili93xx.c ****   volatile uint32_t i;
 592:../src/sam/components/display/ili93xx/ili93xx.c ****   for (i = 0; i < ul_ms; i++) { for (i = 0; i < 100000; i++) { } }
  35              		.loc 1 592 0
  36 0002 0023     		movs	r3, #0
  37 0004 0193     		str	r3, [sp, #4]
  38 0006 0CE0     		b	.L2
  39              	.L5:
  40              		.loc 1 592 0 is_stmt 0 discriminator 7
  41 0008 0023     		movs	r3, #0
  42 000a 0193     		str	r3, [sp, #4]
  43 000c 02E0     		b	.L3
  44              	.L4:
  45              		.loc 1 592 0 discriminator 4
  46 000e 019B     		ldr	r3, [sp, #4]
  47 0010 0133     		adds	r3, r3, #1
  48 0012 0193     		str	r3, [sp, #4]
  49              	.L3:
  50              		.loc 1 592 0 discriminator 2
  51 0014 019A     		ldr	r2, [sp, #4]
  52 0016 054B     		ldr	r3, .L7
  53 0018 9A42     		cmp	r2, r3
  54 001a F8D9     		bls	.L4
  55              		.loc 1 592 0 discriminator 5
  56 001c 019B     		ldr	r3, [sp, #4]
  57 001e 0133     		adds	r3, r3, #1
  58 0020 0193     		str	r3, [sp, #4]
  59              	.L2:
  60              		.loc 1 592 0 discriminator 6
  61 0022 019B     		ldr	r3, [sp, #4]
  62 0024 8342     		cmp	r3, r0
  63 0026 EFD3     		bcc	.L5
 593:../src/sam/components/display/ili93xx/ili93xx.c **** }
  64              		.loc 1 593 0 is_stmt 1
  65 0028 02B0     		add	sp, sp, #8
  66              		.cfi_def_cfa_offset 0
  67              		@ sp needed
  68 002a 7047     		bx	lr
  69              	.L8:
  70              		.align	2
  71              	.L7:
  72 002c 9F860100 		.word	99999
  73              		.cfi_endproc
  74              	.LFE187:
  76              		.section	.text.ili93xx_check_box_coordinates,"ax",%progbits
  77              		.align	2
  78              		.thumb
  79              		.thumb_func
  81              	ili93xx_check_box_coordinates:
  82              	.LFB188:
 594:../src/sam/components/display/ili93xx/ili93xx.c **** 
 595:../src/sam/components/display/ili93xx/ili93xx.c **** /**
 596:../src/sam/components/display/ili93xx/ili93xx.c ****  * \brief Check box coordinates.
 597:../src/sam/components/display/ili93xx/ili93xx.c ****  *
 598:../src/sam/components/display/ili93xx/ili93xx.c ****  * \param p_ul_x1 X coordinate of upper-left corner on LCD.
 599:../src/sam/components/display/ili93xx/ili93xx.c ****  * \param p_ul_y1 Y coordinate of upper-left corner on LCD.
 600:../src/sam/components/display/ili93xx/ili93xx.c ****  * \param p_ul_x2 X coordinate of lower-right corner on LCD.
 601:../src/sam/components/display/ili93xx/ili93xx.c ****  * \param p_ul_y2 Y coordinate of lower-right corner on LCD.
 602:../src/sam/components/display/ili93xx/ili93xx.c ****  */
 603:../src/sam/components/display/ili93xx/ili93xx.c **** static void ili93xx_check_box_coordinates(uint32_t *p_ul_x1, uint32_t *p_ul_y1,
 604:../src/sam/components/display/ili93xx/ili93xx.c **** 		uint32_t *p_ul_x2, uint32_t *p_ul_y2)
 605:../src/sam/components/display/ili93xx/ili93xx.c **** {
  83              		.loc 1 605 0
  84              		.cfi_startproc
  85              		@ args = 0, pretend = 0, frame = 0
  86              		@ frame_needed = 0, uses_anonymous_args = 0
  87              		@ link register save eliminated.
  88              	.LVL1:
  89 0000 30B4     		push	{r4, r5}
  90              		.cfi_def_cfa_offset 8
  91              		.cfi_offset 4, -8
  92              		.cfi_offset 5, -4
 606:../src/sam/components/display/ili93xx/ili93xx.c **** 	uint32_t dw;
 607:../src/sam/components/display/ili93xx/ili93xx.c **** 
 608:../src/sam/components/display/ili93xx/ili93xx.c **** 	if (*p_ul_x1 >= g_ul_lcd_x_length) {
  93              		.loc 1 608 0
  94 0002 0568     		ldr	r5, [r0]
  95 0004 124C     		ldr	r4, .L17
  96 0006 2468     		ldr	r4, [r4]
  97 0008 A542     		cmp	r5, r4
  98 000a 01D3     		bcc	.L10
 609:../src/sam/components/display/ili93xx/ili93xx.c **** 		*p_ul_x1 = g_ul_lcd_x_length - 1;
  99              		.loc 1 609 0
 100 000c 651E     		subs	r5, r4, #1
 101 000e 0560     		str	r5, [r0]
 102              	.L10:
 610:../src/sam/components/display/ili93xx/ili93xx.c **** 	}
 611:../src/sam/components/display/ili93xx/ili93xx.c **** 
 612:../src/sam/components/display/ili93xx/ili93xx.c **** 	if (*p_ul_x2 >= g_ul_lcd_x_length) {
 103              		.loc 1 612 0
 104 0010 1568     		ldr	r5, [r2]
 105 0012 AC42     		cmp	r4, r5
 106 0014 01D8     		bhi	.L11
 613:../src/sam/components/display/ili93xx/ili93xx.c **** 		*p_ul_x2 = g_ul_lcd_x_length - 1;
 107              		.loc 1 613 0
 108 0016 013C     		subs	r4, r4, #1
 109 0018 1460     		str	r4, [r2]
 110              	.L11:
 614:../src/sam/components/display/ili93xx/ili93xx.c **** 	}
 615:../src/sam/components/display/ili93xx/ili93xx.c **** 
 616:../src/sam/components/display/ili93xx/ili93xx.c **** 	if (*p_ul_y1 >= g_ul_lcd_y_length) {
 111              		.loc 1 616 0
 112 001a 0D68     		ldr	r5, [r1]
 113 001c 0D4C     		ldr	r4, .L17+4
 114 001e 2468     		ldr	r4, [r4]
 115 0020 A542     		cmp	r5, r4
 116 0022 01D3     		bcc	.L12
 617:../src/sam/components/display/ili93xx/ili93xx.c **** 		*p_ul_y1 = g_ul_lcd_y_length - 1;
 117              		.loc 1 617 0
 118 0024 651E     		subs	r5, r4, #1
 119 0026 0D60     		str	r5, [r1]
 120              	.L12:
 618:../src/sam/components/display/ili93xx/ili93xx.c **** 	}
 619:../src/sam/components/display/ili93xx/ili93xx.c **** 
 620:../src/sam/components/display/ili93xx/ili93xx.c **** 	if (*p_ul_y2 >= g_ul_lcd_y_length) {
 121              		.loc 1 620 0
 122 0028 1D68     		ldr	r5, [r3]
 123 002a AC42     		cmp	r4, r5
 124 002c 01D8     		bhi	.L13
 621:../src/sam/components/display/ili93xx/ili93xx.c **** 		*p_ul_y2 = g_ul_lcd_y_length - 1;
 125              		.loc 1 621 0
 126 002e 013C     		subs	r4, r4, #1
 127 0030 1C60     		str	r4, [r3]
 128              	.L13:
 622:../src/sam/components/display/ili93xx/ili93xx.c **** 	}
 623:../src/sam/components/display/ili93xx/ili93xx.c **** 
 624:../src/sam/components/display/ili93xx/ili93xx.c **** 	if (*p_ul_x1 > *p_ul_x2) {
 129              		.loc 1 624 0
 130 0032 0468     		ldr	r4, [r0]
 131 0034 1568     		ldr	r5, [r2]
 132 0036 AC42     		cmp	r4, r5
 133 0038 01D9     		bls	.L14
 134              	.LVL2:
 625:../src/sam/components/display/ili93xx/ili93xx.c **** 		dw = *p_ul_x1;
 626:../src/sam/components/display/ili93xx/ili93xx.c **** 		*p_ul_x1 = *p_ul_x2;
 135              		.loc 1 626 0
 136 003a 0560     		str	r5, [r0]
 627:../src/sam/components/display/ili93xx/ili93xx.c **** 		*p_ul_x2 = dw;
 137              		.loc 1 627 0
 138 003c 1460     		str	r4, [r2]
 139              	.LVL3:
 140              	.L14:
 628:../src/sam/components/display/ili93xx/ili93xx.c **** 	}
 629:../src/sam/components/display/ili93xx/ili93xx.c **** 
 630:../src/sam/components/display/ili93xx/ili93xx.c **** 	if (*p_ul_y1 > *p_ul_y2) {
 141              		.loc 1 630 0
 142 003e 0A68     		ldr	r2, [r1]
 143              	.LVL4:
 144 0040 1868     		ldr	r0, [r3]
 145              	.LVL5:
 146 0042 8242     		cmp	r2, r0
 147 0044 01D9     		bls	.L9
 148              	.LVL6:
 631:../src/sam/components/display/ili93xx/ili93xx.c **** 		dw = *p_ul_y1;
 632:../src/sam/components/display/ili93xx/ili93xx.c **** 		*p_ul_y1 = *p_ul_y2;
 149              		.loc 1 632 0
 150 0046 0860     		str	r0, [r1]
 633:../src/sam/components/display/ili93xx/ili93xx.c **** 		*p_ul_y2 = dw;
 151              		.loc 1 633 0
 152 0048 1A60     		str	r2, [r3]
 153              	.LVL7:
 154              	.L9:
 634:../src/sam/components/display/ili93xx/ili93xx.c **** 	}
 635:../src/sam/components/display/ili93xx/ili93xx.c **** }
 155              		.loc 1 635 0
 156 004a 30BC     		pop	{r4, r5}
 157              		.cfi_restore 5
 158              		.cfi_restore 4
 159              		.cfi_def_cfa_offset 0
 160 004c 7047     		bx	lr
 161              	.L18:
 162 004e 00BF     		.align	2
 163              	.L17:
 164 0050 00000000 		.word	.LANCHOR0
 165 0054 00000000 		.word	.LANCHOR1
 166              		.cfi_endproc
 167              	.LFE188:
 169              		.section	.text.ili9341_write_cmd,"ax",%progbits
 170              		.align	2
 171              		.thumb
 172              		.thumb_func
 174              	ili9341_write_cmd:
 175              	.LFB175:
 300:../src/sam/components/display/ili93xx/ili93xx.c ****   /* Configure SPI Chip Select: SPI Mode 0, 8bits */
 176              		.loc 1 300 0
 177              		.cfi_startproc
 178              		@ args = 0, pretend = 0, frame = 0
 179              		@ frame_needed = 0, uses_anonymous_args = 0
 180              	.LVL8:
 181 0000 10B5     		push	{r4, lr}
 182              		.cfi_def_cfa_offset 8
 183              		.cfi_offset 4, -8
 184              		.cfi_offset 14, -4
 185 0002 0446     		mov	r4, r0
 307:../src/sam/components/display/ili93xx/ili93xx.c ****   spi_write(BOARD_ILI9341_SPI, uc_cmd, BOARD_ILI9341_SPI_NPCS, 0);
 186              		.loc 1 307 0
 187 0004 0220     		movs	r0, #2
 188              	.LVL9:
 189 0006 FFF7FEFF 		bl	pio_set_pin_low
 190              	.LVL10:
 308:../src/sam/components/display/ili93xx/ili93xx.c **** 
 191              		.loc 1 308 0
 192 000a 0023     		movs	r3, #0
 193 000c 1A46     		mov	r2, r3
 194 000e 2146     		mov	r1, r4
 195 0010 0148     		ldr	r0, .L21
 196 0012 FFF7FEFF 		bl	spi_write
 197              	.LVL11:
 198 0016 10BD     		pop	{r4, pc}
 199              	.L22:
 200              		.align	2
 201              	.L21:
 202 0018 00800040 		.word	1073774592
 203              		.cfi_endproc
 204              	.LFE175:
 206              		.section	.text.ili93xx_write_ram_prepare,"ax",%progbits
 207              		.align	2
 208              		.thumb
 209              		.thumb_func
 211              	ili93xx_write_ram_prepare:
 212              	.LFB178:
 364:../src/sam/components/display/ili93xx/ili93xx.c **** 	if (g_uc_device_type == DEVICE_TYPE_ILI9325) {
 213              		.loc 1 364 0
 214              		.cfi_startproc
 215              		@ args = 0, pretend = 0, frame = 0
 216              		@ frame_needed = 0, uses_anonymous_args = 0
 217 0000 08B5     		push	{r3, lr}
 218              		.cfi_def_cfa_offset 8
 219              		.cfi_offset 3, -8
 220              		.cfi_offset 14, -4
 365:../src/sam/components/display/ili93xx/ili93xx.c **** 
 221              		.loc 1 365 0
 222 0002 054B     		ldr	r3, .L26
 223 0004 1B78     		ldrb	r3, [r3]	@ zero_extendqisi2
 224 0006 012B     		cmp	r3, #1
 225 0008 04D0     		beq	.L23
 367:../src/sam/components/display/ili93xx/ili93xx.c **** 		/** memory write command (R2Ch)*/
 226              		.loc 1 367 0
 227 000a 022B     		cmp	r3, #2
 228 000c 02D1     		bne	.L23
 369:../src/sam/components/display/ili93xx/ili93xx.c **** 	}
 229              		.loc 1 369 0
 230 000e 2C20     		movs	r0, #44
 231 0010 FFF7FEFF 		bl	ili9341_write_cmd
 232              	.LVL12:
 233              	.L23:
 234 0014 08BD     		pop	{r3, pc}
 235              	.L27:
 236 0016 00BF     		.align	2
 237              	.L26:
 238 0018 00000000 		.word	.LANCHOR2
 239              		.cfi_endproc
 240              	.LFE178:
 242              		.section	.text.ili93xx_write_ram,"ax",%progbits
 243              		.align	2
 244              		.thumb
 245              		.thumb_func
 247              	ili93xx_write_ram:
 248              	.LFB179:
 379:../src/sam/components/display/ili93xx/ili93xx.c **** 
 249              		.loc 1 379 0
 250              		.cfi_startproc
 251              		@ args = 0, pretend = 0, frame = 0
 252              		@ frame_needed = 0, uses_anonymous_args = 0
 253              	.LVL13:
 254 0000 38B5     		push	{r3, r4, r5, lr}
 255              		.cfi_def_cfa_offset 16
 256              		.cfi_offset 3, -16
 257              		.cfi_offset 4, -12
 258              		.cfi_offset 5, -8
 259              		.cfi_offset 14, -4
 260 0002 0546     		mov	r5, r0
 382:../src/sam/components/display/ili93xx/ili93xx.c **** 
 261              		.loc 1 382 0
 262 0004 0220     		movs	r0, #2
 263              	.LVL14:
 264 0006 FFF7FEFF 		bl	pio_set_pin_high
 265              	.LVL15:
 385:../src/sam/components/display/ili93xx/ili93xx.c ****   spi_write(BOARD_ILI9341_SPI, (ul_color & 0xFF), BOARD_ILI9341_SPI_NPCS, 0);
 266              		.loc 1 385 0
 267 000a 074C     		ldr	r4, .L30
 268 000c 0023     		movs	r3, #0
 269 000e 1A46     		mov	r2, r3
 270 0010 290A     		lsrs	r1, r5, #8
 271 0012 2046     		mov	r0, r4
 272 0014 FFF7FEFF 		bl	spi_write
 273              	.LVL16:
 386:../src/sam/components/display/ili93xx/ili93xx.c **** #endif
 274              		.loc 1 386 0
 275 0018 0023     		movs	r3, #0
 276 001a 1A46     		mov	r2, r3
 277 001c E9B2     		uxtb	r1, r5
 278 001e 2046     		mov	r0, r4
 279 0020 FFF7FEFF 		bl	spi_write
 280              	.LVL17:
 281 0024 38BD     		pop	{r3, r4, r5, pc}
 282              	.L31:
 283 0026 00BF     		.align	2
 284              	.L30:
 285 0028 00800040 		.word	1073774592
 286              		.cfi_endproc
 287              	.LFE179:
 289              		.section	.text.ili93xx_write_ram_buffer,"ax",%progbits
 290              		.align	2
 291              		.thumb
 292              		.thumb_func
 294              	ili93xx_write_ram_buffer:
 295              	.LFB180:
 420:../src/sam/components/display/ili93xx/ili93xx.c **** 	uint32_t ul_addr;
 296              		.loc 1 420 0
 297              		.cfi_startproc
 298              		@ args = 0, pretend = 0, frame = 0
 299              		@ frame_needed = 0, uses_anonymous_args = 0
 300              	.LVL18:
 301 0000 70B5     		push	{r4, r5, r6, lr}
 302              		.cfi_def_cfa_offset 16
 303              		.cfi_offset 4, -16
 304              		.cfi_offset 5, -12
 305              		.cfi_offset 6, -8
 306              		.cfi_offset 14, -4
 307 0002 0546     		mov	r5, r0
 308 0004 0E46     		mov	r6, r1
 309              	.LVL19:
 422:../src/sam/components/display/ili93xx/ili93xx.c **** 		ili93xx_write_ram(p_ul_buf[ul_addr]);
 310              		.loc 1 422 0
 311 0006 0024     		movs	r4, #0
 312 0008 27E0     		b	.L33
 313              	.LVL20:
 314              	.L34:
 423:../src/sam/components/display/ili93xx/ili93xx.c **** 		ili93xx_write_ram(p_ul_buf[ul_addr + 1]);
 315              		.loc 1 423 0 discriminator 3
 316 000a 35F81400 		ldrh	r0, [r5, r4, lsl #1]
 317 000e FFF7FEFF 		bl	ili93xx_write_ram
 318              	.LVL21:
 424:../src/sam/components/display/ili93xx/ili93xx.c **** 		ili93xx_write_ram(p_ul_buf[ul_addr + 2]);
 319              		.loc 1 424 0 discriminator 3
 320 0012 631C     		adds	r3, r4, #1
 321 0014 35F81300 		ldrh	r0, [r5, r3, lsl #1]
 322 0018 FFF7FEFF 		bl	ili93xx_write_ram
 323              	.LVL22:
 425:../src/sam/components/display/ili93xx/ili93xx.c **** 		ili93xx_write_ram(p_ul_buf[ul_addr + 3]);
 324              		.loc 1 425 0 discriminator 3
 325 001c A31C     		adds	r3, r4, #2
 326 001e 35F81300 		ldrh	r0, [r5, r3, lsl #1]
 327 0022 FFF7FEFF 		bl	ili93xx_write_ram
 328              	.LVL23:
 426:../src/sam/components/display/ili93xx/ili93xx.c **** 		ili93xx_write_ram(p_ul_buf[ul_addr + 4]);
 329              		.loc 1 426 0 discriminator 3
 330 0026 E31C     		adds	r3, r4, #3
 331 0028 35F81300 		ldrh	r0, [r5, r3, lsl #1]
 332 002c FFF7FEFF 		bl	ili93xx_write_ram
 333              	.LVL24:
 427:../src/sam/components/display/ili93xx/ili93xx.c **** 		ili93xx_write_ram(p_ul_buf[ul_addr + 5]);
 334              		.loc 1 427 0 discriminator 3
 335 0030 231D     		adds	r3, r4, #4
 336 0032 35F81300 		ldrh	r0, [r5, r3, lsl #1]
 337 0036 FFF7FEFF 		bl	ili93xx_write_ram
 338              	.LVL25:
 428:../src/sam/components/display/ili93xx/ili93xx.c **** 		ili93xx_write_ram(p_ul_buf[ul_addr + 6]);
 339              		.loc 1 428 0 discriminator 3
 340 003a 631D     		adds	r3, r4, #5
 341 003c 35F81300 		ldrh	r0, [r5, r3, lsl #1]
 342 0040 FFF7FEFF 		bl	ili93xx_write_ram
 343              	.LVL26:
 429:../src/sam/components/display/ili93xx/ili93xx.c **** 		ili93xx_write_ram(p_ul_buf[ul_addr + 7]);
 344              		.loc 1 429 0 discriminator 3
 345 0044 A31D     		adds	r3, r4, #6
 346 0046 35F81300 		ldrh	r0, [r5, r3, lsl #1]
 347 004a FFF7FEFF 		bl	ili93xx_write_ram
 348              	.LVL27:
 430:../src/sam/components/display/ili93xx/ili93xx.c **** 	}
 349              		.loc 1 430 0 discriminator 3
 350 004e E31D     		adds	r3, r4, #7
 351 0050 35F81300 		ldrh	r0, [r5, r3, lsl #1]
 352 0054 FFF7FEFF 		bl	ili93xx_write_ram
 353              	.LVL28:
 422:../src/sam/components/display/ili93xx/ili93xx.c **** 		ili93xx_write_ram(p_ul_buf[ul_addr]);
 354              		.loc 1 422 0 discriminator 3
 355 0058 0834     		adds	r4, r4, #8
 356              	.LVL29:
 357              	.L33:
 422:../src/sam/components/display/ili93xx/ili93xx.c **** 		ili93xx_write_ram(p_ul_buf[ul_addr]);
 358              		.loc 1 422 0 is_stmt 0 discriminator 1
 359 005a 26F00703 		bic	r3, r6, #7
 360 005e 9C42     		cmp	r4, r3
 361 0060 D3D3     		bcc	.L34
 362 0062 04E0     		b	.L35
 363              	.L36:
 433:../src/sam/components/display/ili93xx/ili93xx.c **** 	}
 364              		.loc 1 433 0 is_stmt 1 discriminator 2
 365 0064 35F81400 		ldrh	r0, [r5, r4, lsl #1]
 366 0068 FFF7FEFF 		bl	ili93xx_write_ram
 367              	.LVL30:
 432:../src/sam/components/display/ili93xx/ili93xx.c **** 		ili93xx_write_ram(p_ul_buf[ul_addr]);
 368              		.loc 1 432 0 discriminator 2
 369 006c 0134     		adds	r4, r4, #1
 370              	.LVL31:
 371              	.L35:
 432:../src/sam/components/display/ili93xx/ili93xx.c **** 		ili93xx_write_ram(p_ul_buf[ul_addr]);
 372              		.loc 1 432 0 is_stmt 0 discriminator 1
 373 006e B442     		cmp	r4, r6
 374 0070 F8D3     		bcc	.L36
 435:../src/sam/components/display/ili93xx/ili93xx.c **** 
 375              		.loc 1 435 0 is_stmt 1
 376 0072 70BD     		pop	{r4, r5, r6, pc}
 377              		.cfi_endproc
 378              	.LFE180:
 380              		.section	.text.ili93xx_read_register,"ax",%progbits
 381              		.align	2
 382              		.thumb
 383              		.thumb_func
 385              	ili93xx_read_register:
 386              	.LFB186:
 570:../src/sam/components/display/ili93xx/ili93xx.c ****   status_code_t result;
 387              		.loc 1 570 0
 388              		.cfi_startproc
 389              		@ args = 0, pretend = 0, frame = 0
 390              		@ frame_needed = 0, uses_anonymous_args = 0
 391              	.LVL32:
 392 0000 F8B5     		push	{r3, r4, r5, r6, r7, lr}
 393              		.cfi_def_cfa_offset 24
 394              		.cfi_offset 3, -24
 395              		.cfi_offset 4, -20
 396              		.cfi_offset 5, -16
 397              		.cfi_offset 6, -12
 398              		.cfi_offset 7, -8
 399              		.cfi_offset 14, -4
 400 0002 0746     		mov	r7, r0
 401 0004 0D46     		mov	r5, r1
 402 0006 1646     		mov	r6, r2
 575:../src/sam/components/display/ili93xx/ili93xx.c ****   result = spi_write(BOARD_ILI9341_SPI, uc_reg, BOARD_ILI9341_SPI_NPCS, 0);
 403              		.loc 1 575 0
 404 0008 0220     		movs	r0, #2
 405              	.LVL33:
 406 000a FFF7FEFF 		bl	pio_set_pin_low
 407              	.LVL34:
 576:../src/sam/components/display/ili93xx/ili93xx.c ****   /* select data in the DC resgister. */
 408              		.loc 1 576 0
 409 000e 084C     		ldr	r4, .L40
 410 0010 0023     		movs	r3, #0
 411 0012 1A46     		mov	r2, r3
 412 0014 3946     		mov	r1, r7
 413 0016 2046     		mov	r0, r4
 414 0018 FFF7FEFF 		bl	spi_write
 415              	.LVL35:
 578:../src/sam/components/display/ili93xx/ili93xx.c ****   result = spi_read_packet(BOARD_ILI9341_SPI, p_data, uc_datacnt);
 416              		.loc 1 578 0
 417 001c 0220     		movs	r0, #2
 418 001e FFF7FEFF 		bl	pio_set_pin_high
 419              	.LVL36:
 579:../src/sam/components/display/ili93xx/ili93xx.c **** /*	for (uint8_t i = 0; i < uc_datacnt; i++) {
 420              		.loc 1 579 0
 421 0022 3246     		mov	r2, r6
 422 0024 2946     		mov	r1, r5
 423 0026 2046     		mov	r0, r4
 424 0028 FFF7FEFF 		bl	spi_read_packet
 425              	.LVL37:
 426 002c F8BD     		pop	{r3, r4, r5, r6, r7, pc}
 427              	.LVL38:
 428              	.L41:
 429 002e 00BF     		.align	2
 430              	.L40:
 431 0030 00800040 		.word	1073774592
 432              		.cfi_endproc
 433              	.LFE186:
 435              		.section	.text.ili93xx_write_register_datas,"ax",%progbits
 436              		.align	2
 437              		.thumb
 438              		.thumb_func
 440              	ili93xx_write_register_datas:
 441              	.LFB181:
 444:../src/sam/components/display/ili93xx/ili93xx.c ****   /* select command in the DC register. */
 442              		.loc 1 444 0
 443              		.cfi_startproc
 444              		@ args = 0, pretend = 0, frame = 8
 445              		@ frame_needed = 0, uses_anonymous_args = 0
 446              	.LVL39:
 447 0000 F0B5     		push	{r4, r5, r6, r7, lr}
 448              		.cfi_def_cfa_offset 20
 449              		.cfi_offset 4, -20
 450              		.cfi_offset 5, -16
 451              		.cfi_offset 6, -12
 452              		.cfi_offset 7, -8
 453              		.cfi_offset 14, -4
 454 0002 83B0     		sub	sp, sp, #12
 455              		.cfi_def_cfa_offset 32
 456 0004 0E46     		mov	r6, r1
 457 0006 1746     		mov	r7, r2
 458 0008 02AC     		add	r4, sp, #8
 459 000a 04F8010D 		strb	r0, [r4, #-1]!
 446:../src/sam/components/display/ili93xx/ili93xx.c ****   spi_write_packet(BOARD_ILI9341_SPI, &uc_reg, 1);
 460              		.loc 1 446 0
 461 000e 0220     		movs	r0, #2
 462              	.LVL40:
 463 0010 FFF7FEFF 		bl	pio_set_pin_low
 464              	.LVL41:
 447:../src/sam/components/display/ili93xx/ili93xx.c **** 
 465              		.loc 1 447 0
 466 0014 074D     		ldr	r5, .L44
 467 0016 0122     		movs	r2, #1
 468 0018 2146     		mov	r1, r4
 469 001a 2846     		mov	r0, r5
 470 001c FFF7FEFF 		bl	spi_write_packet
 471              	.LVL42:
 450:../src/sam/components/display/ili93xx/ili93xx.c **** 
 472              		.loc 1 450 0
 473 0020 0220     		movs	r0, #2
 474 0022 FFF7FEFF 		bl	pio_set_pin_high
 475              	.LVL43:
 452:../src/sam/components/display/ili93xx/ili93xx.c **** 
 476              		.loc 1 452 0
 477 0026 3A46     		mov	r2, r7
 478 0028 3146     		mov	r1, r6
 479 002a 2846     		mov	r0, r5
 480 002c FFF7FEFF 		bl	spi_write_packet
 481              	.LVL44:
 454:../src/sam/components/display/ili93xx/ili93xx.c **** 
 482              		.loc 1 454 0
 483 0030 03B0     		add	sp, sp, #12
 484              		.cfi_def_cfa_offset 20
 485              		@ sp needed
 486 0032 F0BD     		pop	{r4, r5, r6, r7, pc}
 487              	.LVL45:
 488              	.L45:
 489              		.align	2
 490              	.L44:
 491 0034 00800040 		.word	1073774592
 492              		.cfi_endproc
 493              	.LFE181:
 495              		.section	.text.ili93xx_write_register_word,"ax",%progbits
 496              		.align	2
 497              		.thumb
 498              		.thumb_func
 500              	ili93xx_write_register_word:
 501              	.LFB182:
 463:../src/sam/components/display/ili93xx/ili93xx.c ****   ili93xx_write_register_datas(uc_reg, (uint8_t*)&us_data, 2);
 502              		.loc 1 463 0
 503              		.cfi_startproc
 504              		@ args = 0, pretend = 0, frame = 8
 505              		@ frame_needed = 0, uses_anonymous_args = 0
 506              	.LVL46:
 507 0000 00B5     		push	{lr}
 508              		.cfi_def_cfa_offset 4
 509              		.cfi_offset 14, -4
 510 0002 83B0     		sub	sp, sp, #12
 511              		.cfi_def_cfa_offset 16
 512 0004 02AB     		add	r3, sp, #8
 513 0006 23F8021D 		strh	r1, [r3, #-2]!	@ movhi
 464:../src/sam/components/display/ili93xx/ili93xx.c **** }
 514              		.loc 1 464 0
 515 000a 0222     		movs	r2, #2
 516 000c 1946     		mov	r1, r3
 517              	.LVL47:
 518 000e FFF7FEFF 		bl	ili93xx_write_register_datas
 519              	.LVL48:
 465:../src/sam/components/display/ili93xx/ili93xx.c **** 
 520              		.loc 1 465 0
 521 0012 03B0     		add	sp, sp, #12
 522              		.cfi_def_cfa_offset 4
 523              		@ sp needed
 524 0014 5DF804FB 		ldr	pc, [sp], #4
 525              		.cfi_endproc
 526              	.LFE182:
 528              		.section	.text.ili93xx_write_register,"ax",%progbits
 529              		.align	2
 530              		.thumb
 531              		.thumb_func
 533              	ili93xx_write_register:
 534              	.LFB183:
 475:../src/sam/components/display/ili93xx/ili93xx.c **** 
 535              		.loc 1 475 0
 536              		.cfi_startproc
 537              		@ args = 0, pretend = 0, frame = 8
 538              		@ frame_needed = 0, uses_anonymous_args = 0
 539              	.LVL49:
 540 0000 70B5     		push	{r4, r5, r6, lr}
 541              		.cfi_def_cfa_offset 16
 542              		.cfi_offset 4, -16
 543              		.cfi_offset 5, -12
 544              		.cfi_offset 6, -8
 545              		.cfi_offset 14, -4
 546 0002 82B0     		sub	sp, sp, #8
 547              		.cfi_def_cfa_offset 24
 548 0004 0646     		mov	r6, r0
 549 0006 0191     		str	r1, [sp, #4]
 550 0008 1546     		mov	r5, r2
 478:../src/sam/components/display/ili93xx/ili93xx.c ****   /* Enable SPI */
 551              		.loc 1 478 0
 552 000a 134C     		ldr	r4, .L52
 553 000c 0022     		movs	r2, #0
 554              	.LVL50:
 555 000e 1146     		mov	r1, r2
 556              	.LVL51:
 557 0010 2046     		mov	r0, r4
 558              	.LVL52:
 559 0012 FFF7FEFF 		bl	spi_set_bits_per_transfer
 560              	.LVL53:
 561              	.LBB21:
 562              	.LBB22:
 563              		.file 2 "/home/bekeband/workspace/OLIMEX_Start/src/spi.h"
   1:/home/bekeband/workspace/OLIMEX_Start/src/spi.h **** /**
   2:/home/bekeband/workspace/OLIMEX_Start/src/spi.h ****  * \file
   3:/home/bekeband/workspace/OLIMEX_Start/src/spi.h ****  *
   4:/home/bekeband/workspace/OLIMEX_Start/src/spi.h ****  * \brief Serial Peripheral Interface (SPI) driver for SAM.
   5:/home/bekeband/workspace/OLIMEX_Start/src/spi.h ****  *
   6:/home/bekeband/workspace/OLIMEX_Start/src/spi.h ****  * Copyright (c) 2011-2016 Atmel Corporation. All rights reserved.
   7:/home/bekeband/workspace/OLIMEX_Start/src/spi.h ****  *
   8:/home/bekeband/workspace/OLIMEX_Start/src/spi.h ****  * \asf_license_start
   9:/home/bekeband/workspace/OLIMEX_Start/src/spi.h ****  *
  10:/home/bekeband/workspace/OLIMEX_Start/src/spi.h ****  * \page License
  11:/home/bekeband/workspace/OLIMEX_Start/src/spi.h ****  *
  12:/home/bekeband/workspace/OLIMEX_Start/src/spi.h ****  * Redistribution and use in source and binary forms, with or without
  13:/home/bekeband/workspace/OLIMEX_Start/src/spi.h ****  * modification, are permitted provided that the following conditions are met:
  14:/home/bekeband/workspace/OLIMEX_Start/src/spi.h ****  *
  15:/home/bekeband/workspace/OLIMEX_Start/src/spi.h ****  * 1. Redistributions of source code must retain the above copyright notice,
  16:/home/bekeband/workspace/OLIMEX_Start/src/spi.h ****  *    this list of conditions and the following disclaimer.
  17:/home/bekeband/workspace/OLIMEX_Start/src/spi.h ****  *
  18:/home/bekeband/workspace/OLIMEX_Start/src/spi.h ****  * 2. Redistributions in binary form must reproduce the above copyright notice,
  19:/home/bekeband/workspace/OLIMEX_Start/src/spi.h ****  *    this list of conditions and the following disclaimer in the documentation
  20:/home/bekeband/workspace/OLIMEX_Start/src/spi.h ****  *    and/or other materials provided with the distribution.
  21:/home/bekeband/workspace/OLIMEX_Start/src/spi.h ****  *
  22:/home/bekeband/workspace/OLIMEX_Start/src/spi.h ****  * 3. The name of Atmel may not be used to endorse or promote products derived
  23:/home/bekeband/workspace/OLIMEX_Start/src/spi.h ****  *    from this software without specific prior written permission.
  24:/home/bekeband/workspace/OLIMEX_Start/src/spi.h ****  *
  25:/home/bekeband/workspace/OLIMEX_Start/src/spi.h ****  * 4. This software may only be redistributed and used in connection with an
  26:/home/bekeband/workspace/OLIMEX_Start/src/spi.h ****  *    Atmel microcontroller product.
  27:/home/bekeband/workspace/OLIMEX_Start/src/spi.h ****  *
  28:/home/bekeband/workspace/OLIMEX_Start/src/spi.h ****  * THIS SOFTWARE IS PROVIDED BY ATMEL "AS IS" AND ANY EXPRESS OR IMPLIED
  29:/home/bekeband/workspace/OLIMEX_Start/src/spi.h ****  * WARRANTIES, INCLUDING, BUT NOT LIMITED TO, THE IMPLIED WARRANTIES OF
  30:/home/bekeband/workspace/OLIMEX_Start/src/spi.h ****  * MERCHANTABILITY, FITNESS FOR A PARTICULAR PURPOSE AND NON-INFRINGEMENT ARE
  31:/home/bekeband/workspace/OLIMEX_Start/src/spi.h ****  * EXPRESSLY AND SPECIFICALLY DISCLAIMED. IN NO EVENT SHALL ATMEL BE LIABLE FOR
  32:/home/bekeband/workspace/OLIMEX_Start/src/spi.h ****  * ANY DIRECT, INDIRECT, INCIDENTAL, SPECIAL, EXEMPLARY, OR CONSEQUENTIAL
  33:/home/bekeband/workspace/OLIMEX_Start/src/spi.h ****  * DAMAGES (INCLUDING, BUT NOT LIMITED TO, PROCUREMENT OF SUBSTITUTE GOODS
  34:/home/bekeband/workspace/OLIMEX_Start/src/spi.h ****  * OR SERVICES; LOSS OF USE, DATA, OR PROFITS; OR BUSINESS INTERRUPTION)
  35:/home/bekeband/workspace/OLIMEX_Start/src/spi.h ****  * HOWEVER CAUSED AND ON ANY THEORY OF LIABILITY, WHETHER IN CONTRACT,
  36:/home/bekeband/workspace/OLIMEX_Start/src/spi.h ****  * STRICT LIABILITY, OR TORT (INCLUDING NEGLIGENCE OR OTHERWISE) ARISING IN
  37:/home/bekeband/workspace/OLIMEX_Start/src/spi.h ****  * ANY WAY OUT OF THE USE OF THIS SOFTWARE, EVEN IF ADVISED OF THE
  38:/home/bekeband/workspace/OLIMEX_Start/src/spi.h ****  * POSSIBILITY OF SUCH DAMAGE.
  39:/home/bekeband/workspace/OLIMEX_Start/src/spi.h ****  *
  40:/home/bekeband/workspace/OLIMEX_Start/src/spi.h ****  * \asf_license_stop
  41:/home/bekeband/workspace/OLIMEX_Start/src/spi.h ****  *
  42:/home/bekeband/workspace/OLIMEX_Start/src/spi.h ****  */
  43:/home/bekeband/workspace/OLIMEX_Start/src/spi.h **** /*
  44:/home/bekeband/workspace/OLIMEX_Start/src/spi.h ****  * Support and FAQ: visit <a href="http://www.atmel.com/design-support/">Atmel Support</a>
  45:/home/bekeband/workspace/OLIMEX_Start/src/spi.h ****  */
  46:/home/bekeband/workspace/OLIMEX_Start/src/spi.h **** 
  47:/home/bekeband/workspace/OLIMEX_Start/src/spi.h **** #ifndef SPI_H_INCLUDED
  48:/home/bekeband/workspace/OLIMEX_Start/src/spi.h **** #define SPI_H_INCLUDED
  49:/home/bekeband/workspace/OLIMEX_Start/src/spi.h **** 
  50:/home/bekeband/workspace/OLIMEX_Start/src/spi.h **** #include "compiler.h"
  51:/home/bekeband/workspace/OLIMEX_Start/src/spi.h **** 
  52:/home/bekeband/workspace/OLIMEX_Start/src/spi.h **** /// @cond 0
  53:/home/bekeband/workspace/OLIMEX_Start/src/spi.h **** /**INDENT-OFF**/
  54:/home/bekeband/workspace/OLIMEX_Start/src/spi.h **** #ifdef __cplusplus
  55:/home/bekeband/workspace/OLIMEX_Start/src/spi.h **** extern "C" {
  56:/home/bekeband/workspace/OLIMEX_Start/src/spi.h **** #endif
  57:/home/bekeband/workspace/OLIMEX_Start/src/spi.h **** /**INDENT-ON**/
  58:/home/bekeband/workspace/OLIMEX_Start/src/spi.h **** /// @endcond
  59:/home/bekeband/workspace/OLIMEX_Start/src/spi.h **** 
  60:/home/bekeband/workspace/OLIMEX_Start/src/spi.h **** /** Time-out value (number of attempts). */
  61:/home/bekeband/workspace/OLIMEX_Start/src/spi.h **** #define SPI_TIMEOUT       150000
  62:/home/bekeband/workspace/OLIMEX_Start/src/spi.h **** 
  63:/home/bekeband/workspace/OLIMEX_Start/src/spi.h **** /** Status codes used by the SPI driver. */
  64:/home/bekeband/workspace/OLIMEX_Start/src/spi.h **** typedef enum
  65:/home/bekeband/workspace/OLIMEX_Start/src/spi.h **** {
  66:/home/bekeband/workspace/OLIMEX_Start/src/spi.h **** 	SPI_ERROR = -1,
  67:/home/bekeband/workspace/OLIMEX_Start/src/spi.h **** 	SPI_OK = 0,
  68:/home/bekeband/workspace/OLIMEX_Start/src/spi.h **** 	SPI_ERROR_TIMEOUT = 1,
  69:/home/bekeband/workspace/OLIMEX_Start/src/spi.h **** 	SPI_ERROR_ARGUMENT,
  70:/home/bekeband/workspace/OLIMEX_Start/src/spi.h **** 	SPI_ERROR_OVERRUN,
  71:/home/bekeband/workspace/OLIMEX_Start/src/spi.h **** 	SPI_ERROR_MODE_FAULT,
  72:/home/bekeband/workspace/OLIMEX_Start/src/spi.h **** 	SPI_ERROR_OVERRUN_AND_MODE_FAULT
  73:/home/bekeband/workspace/OLIMEX_Start/src/spi.h **** } spi_status_t;
  74:/home/bekeband/workspace/OLIMEX_Start/src/spi.h **** 
  75:/home/bekeband/workspace/OLIMEX_Start/src/spi.h **** /** SPI Chip Select behavior modes while transferring. */
  76:/home/bekeband/workspace/OLIMEX_Start/src/spi.h **** typedef enum spi_cs_behavior {
  77:/home/bekeband/workspace/OLIMEX_Start/src/spi.h **** 	/** CS does not rise until a new transfer is requested on different chip select. */
  78:/home/bekeband/workspace/OLIMEX_Start/src/spi.h **** 	SPI_CS_KEEP_LOW = SPI_CSR_CSAAT,
  79:/home/bekeband/workspace/OLIMEX_Start/src/spi.h **** 	/** CS rises if there is no more data to transfer. */
  80:/home/bekeband/workspace/OLIMEX_Start/src/spi.h **** 	SPI_CS_RISE_NO_TX = 0,
  81:/home/bekeband/workspace/OLIMEX_Start/src/spi.h **** 	/** CS is de-asserted systematically during a time DLYBCS. */
  82:/home/bekeband/workspace/OLIMEX_Start/src/spi.h **** 	SPI_CS_RISE_FORCED = SPI_CSR_CSNAAT
  83:/home/bekeband/workspace/OLIMEX_Start/src/spi.h **** } spi_cs_behavior_t;
  84:/home/bekeband/workspace/OLIMEX_Start/src/spi.h **** 
  85:/home/bekeband/workspace/OLIMEX_Start/src/spi.h **** /**
  86:/home/bekeband/workspace/OLIMEX_Start/src/spi.h ****  * \brief Generate Peripheral Chip Select Value from Chip Select ID
  87:/home/bekeband/workspace/OLIMEX_Start/src/spi.h ****  * \note When chip select n is working, PCS bit n is set to low level.
  88:/home/bekeband/workspace/OLIMEX_Start/src/spi.h ****  *
  89:/home/bekeband/workspace/OLIMEX_Start/src/spi.h ****  * \param chip_sel_id The chip select number used
  90:/home/bekeband/workspace/OLIMEX_Start/src/spi.h ****  */
  91:/home/bekeband/workspace/OLIMEX_Start/src/spi.h **** #define spi_get_pcs(chip_sel_id) ((~(1u<<(chip_sel_id)))&0xF)
  92:/home/bekeband/workspace/OLIMEX_Start/src/spi.h **** 
  93:/home/bekeband/workspace/OLIMEX_Start/src/spi.h **** /**
  94:/home/bekeband/workspace/OLIMEX_Start/src/spi.h ****  * \brief Reset SPI and set it to Slave mode.
  95:/home/bekeband/workspace/OLIMEX_Start/src/spi.h ****  *
  96:/home/bekeband/workspace/OLIMEX_Start/src/spi.h ****  * \param p_spi Pointer to an SPI instance.
  97:/home/bekeband/workspace/OLIMEX_Start/src/spi.h ****  */
  98:/home/bekeband/workspace/OLIMEX_Start/src/spi.h **** static inline void spi_reset(Spi *p_spi)
  99:/home/bekeband/workspace/OLIMEX_Start/src/spi.h **** {
 100:/home/bekeband/workspace/OLIMEX_Start/src/spi.h **** 	p_spi->SPI_CR = SPI_CR_SWRST;
 101:/home/bekeband/workspace/OLIMEX_Start/src/spi.h **** }
 102:/home/bekeband/workspace/OLIMEX_Start/src/spi.h **** 
 103:/home/bekeband/workspace/OLIMEX_Start/src/spi.h **** /**
 104:/home/bekeband/workspace/OLIMEX_Start/src/spi.h ****  * \brief Enable SPI.
 105:/home/bekeband/workspace/OLIMEX_Start/src/spi.h ****  *
 106:/home/bekeband/workspace/OLIMEX_Start/src/spi.h ****  * \param p_spi Pointer to an SPI instance.
 107:/home/bekeband/workspace/OLIMEX_Start/src/spi.h ****  */
 108:/home/bekeband/workspace/OLIMEX_Start/src/spi.h **** static inline void spi_enable(Spi *p_spi)
 109:/home/bekeband/workspace/OLIMEX_Start/src/spi.h **** {
 110:/home/bekeband/workspace/OLIMEX_Start/src/spi.h **** 	p_spi->SPI_CR = SPI_CR_SPIEN;
 564              		.loc 2 110 0
 565 0016 0123     		movs	r3, #1
 566 0018 2360     		str	r3, [r4]
 567              	.LVL54:
 568              	.LBE22:
 569              	.LBE21:
 483:../src/sam/components/display/ili93xx/ili93xx.c ****   spi_write(BOARD_ILI9341_SPI, uc_reg, BOARD_ILI9341_SPI_NPCS, 0);
 570              		.loc 1 483 0
 571 001a 0220     		movs	r0, #2
 572 001c FFF7FEFF 		bl	pio_set_pin_low
 573              	.LVL55:
 484:../src/sam/components/display/ili93xx/ili93xx.c **** 
 574              		.loc 1 484 0
 575 0020 0023     		movs	r3, #0
 576 0022 1A46     		mov	r2, r3
 577 0024 3146     		mov	r1, r6
 578 0026 2046     		mov	r0, r4
 579 0028 FFF7FEFF 		bl	spi_write
 580              	.LVL56:
 487:../src/sam/components/display/ili93xx/ili93xx.c **** 
 581              		.loc 1 487 0
 582 002c 0220     		movs	r0, #2
 583 002e FFF7FEFF 		bl	pio_set_pin_high
 584              	.LVL57:
 585              	.LBB23:
 489:../src/sam/components/display/ili93xx/ili93xx.c ****       spi_write(BOARD_ILI9341_SPI, &p_data, BOARD_ILI9341_SPI_NPCS, 0);
 586              		.loc 1 489 0
 587 0032 0024     		movs	r4, #0
 588 0034 0BE0     		b	.L49
 589              	.LVL58:
 590              	.L50:
 490:../src/sam/components/display/ili93xx/ili93xx.c ****       p_data++;
 591              		.loc 1 490 0 discriminator 3
 592 0036 01A9     		add	r1, sp, #4
 593              	.LVL59:
 594 0038 89B2     		uxth	r1, r1
 595              	.LVL60:
 596 003a 0023     		movs	r3, #0
 597 003c 1A46     		mov	r2, r3
 598 003e 0648     		ldr	r0, .L52
 599 0040 FFF7FEFF 		bl	spi_write
 600              	.LVL61:
 491:../src/sam/components/display/ili93xx/ili93xx.c ****   }
 601              		.loc 1 491 0 discriminator 3
 602 0044 019B     		ldr	r3, [sp, #4]
 603 0046 0133     		adds	r3, r3, #1
 604 0048 0193     		str	r3, [sp, #4]
 489:../src/sam/components/display/ili93xx/ili93xx.c ****       spi_write(BOARD_ILI9341_SPI, &p_data, BOARD_ILI9341_SPI_NPCS, 0);
 605              		.loc 1 489 0 discriminator 3
 606 004a 0134     		adds	r4, r4, #1
 607              	.LVL62:
 608 004c E4B2     		uxtb	r4, r4
 609              	.LVL63:
 610              	.L49:
 489:../src/sam/components/display/ili93xx/ili93xx.c ****       spi_write(BOARD_ILI9341_SPI, &p_data, BOARD_ILI9341_SPI_NPCS, 0);
 611              		.loc 1 489 0 is_stmt 0 discriminator 1
 612 004e AC42     		cmp	r4, r5
 613 0050 F1D3     		bcc	.L50
 614              	.LBE23:
 501:../src/sam/components/display/ili93xx/ili93xx.c **** 
 615              		.loc 1 501 0 is_stmt 1
 616 0052 02B0     		add	sp, sp, #8
 617              		.cfi_def_cfa_offset 16
 618              		@ sp needed
 619 0054 70BD     		pop	{r4, r5, r6, pc}
 620              	.LVL64:
 621              	.L53:
 622 0056 00BF     		.align	2
 623              	.L52:
 624 0058 00800040 		.word	1073774592
 625              		.cfi_endproc
 626              	.LFE183:
 628              		.section	.text.ili93xx_read_ram_prepare,"ax",%progbits
 629              		.align	2
 630              		.thumb
 631              		.thumb_func
 633              	ili93xx_read_ram_prepare:
 634              	.LFB184:
 507:../src/sam/components/display/ili93xx/ili93xx.c **** 	if (g_uc_device_type == DEVICE_TYPE_ILI9325) {
 635              		.loc 1 507 0
 636              		.cfi_startproc
 637              		@ args = 0, pretend = 0, frame = 0
 638              		@ frame_needed = 0, uses_anonymous_args = 0
 639 0000 08B5     		push	{r3, lr}
 640              		.cfi_def_cfa_offset 8
 641              		.cfi_offset 3, -8
 642              		.cfi_offset 14, -4
 508:../src/sam/components/display/ili93xx/ili93xx.c **** 		LCD_IR(0);
 643              		.loc 1 508 0
 644 0002 0A4B     		ldr	r3, .L58
 645 0004 1B78     		ldrb	r3, [r3]	@ zero_extendqisi2
 646 0006 012B     		cmp	r3, #1
 647 0008 06D1     		bne	.L55
 648              	.LBB24:
 509:../src/sam/components/display/ili93xx/ili93xx.c **** 		/** Write Data to GRAM (R22h) */
 649              		.loc 1 509 0
 650 000a 0020     		movs	r0, #0
 651 000c FFF7FEFF 		bl	LCD_IR
 652              	.LVL65:
 511:../src/sam/components/display/ili93xx/ili93xx.c **** 	} else if (g_uc_device_type == DEVICE_TYPE_ILI9341) {
 653              		.loc 1 511 0
 654 0010 2220     		movs	r0, #34
 655 0012 FFF7FEFF 		bl	LCD_IR
 656              	.LVL66:
 657              	.LBE24:
 658 0016 08BD     		pop	{r3, pc}
 659              	.L55:
 512:../src/sam/components/display/ili93xx/ili93xx.c **** 		LCD_IR(0);
 660              		.loc 1 512 0
 661 0018 022B     		cmp	r3, #2
 662 001a 05D1     		bne	.L54
 663              	.LBB25:
 513:../src/sam/components/display/ili93xx/ili93xx.c **** 		/** Write Data to GRAM (R2Eh) */
 664              		.loc 1 513 0
 665 001c 0020     		movs	r0, #0
 666 001e FFF7FEFF 		bl	LCD_IR
 667              	.LVL67:
 515:../src/sam/components/display/ili93xx/ili93xx.c **** 	}
 668              		.loc 1 515 0
 669 0022 2E20     		movs	r0, #46
 670 0024 FFF7FEFF 		bl	LCD_IR
 671              	.LVL68:
 672              	.L54:
 673 0028 08BD     		pop	{r3, pc}
 674              	.L59:
 675 002a 00BF     		.align	2
 676              	.L58:
 677 002c 00000000 		.word	.LANCHOR2
 678              	.LBE25:
 679              		.cfi_endproc
 680              	.LFE184:
 682              		.section	.text.ili93xx_read_ram,"ax",%progbits
 683              		.align	2
 684              		.thumb
 685              		.thumb_func
 687              	ili93xx_read_ram:
 688              	.LFB185:
 528:../src/sam/components/display/ili93xx/ili93xx.c **** 	uint8_t value[3];
 689              		.loc 1 528 0
 690              		.cfi_startproc
 691              		@ args = 0, pretend = 0, frame = 0
 692              		@ frame_needed = 0, uses_anonymous_args = 0
 693 0000 38B5     		push	{r3, r4, r5, lr}
 694              		.cfi_def_cfa_offset 16
 695              		.cfi_offset 3, -16
 696              		.cfi_offset 4, -12
 697              		.cfi_offset 5, -8
 698              		.cfi_offset 14, -4
 531:../src/sam/components/display/ili93xx/ili93xx.c **** 		/** dummy read*/
 699              		.loc 1 531 0
 700 0002 174B     		ldr	r3, .L64
 701 0004 1B78     		ldrb	r3, [r3]	@ zero_extendqisi2
 702 0006 012B     		cmp	r3, #1
 703 0008 17D1     		bne	.L61
 704              	.LBB26:
 533:../src/sam/components/display/ili93xx/ili93xx.c **** 		value[1] = LCD_RD();
 705              		.loc 1 533 0
 706 000a FFF7FEFF 		bl	LCD_RD
 707              	.LVL69:
 534:../src/sam/components/display/ili93xx/ili93xx.c **** 		/** data upper byte*/
 708              		.loc 1 534 0
 709 000e FFF7FEFF 		bl	LCD_RD
 710              	.LVL70:
 536:../src/sam/components/display/ili93xx/ili93xx.c **** 		/** data lower byte */
 711              		.loc 1 536 0
 712 0012 FFF7FEFF 		bl	LCD_RD
 713              	.LVL71:
 714 0016 C4B2     		uxtb	r4, r0
 538:../src/sam/components/display/ili93xx/ili93xx.c **** 
 715              		.loc 1 538 0
 716 0018 FFF7FEFF 		bl	LCD_RD
 717              	.LVL72:
 718 001c C3B2     		uxtb	r3, r0
 542:../src/sam/components/display/ili93xx/ili93xx.c **** 				((value[1] & 0xE0) << 5) |
 719              		.loc 1 542 0
 720 001e 04F0F800 		and	r0, r4, #248
 721 0022 6403     		lsls	r4, r4, #13
 722 0024 A4B2     		uxth	r4, r4
 723 0026 0443     		orrs	r4, r4, r0
 543:../src/sam/components/display/ili93xx/ili93xx.c **** 				((value[1] & 0x1F) << 19);
 724              		.loc 1 543 0
 725 0028 5801     		lsls	r0, r3, #5
 726 002a 00F4E050 		and	r0, r0, #7168
 542:../src/sam/components/display/ili93xx/ili93xx.c **** 				((value[1] & 0xE0) << 5) |
 727              		.loc 1 542 0
 728 002e 2043     		orrs	r0, r0, r4
 544:../src/sam/components/display/ili93xx/ili93xx.c **** 	} else if (g_uc_device_type == DEVICE_TYPE_ILI9341) {
 729              		.loc 1 544 0
 730 0030 DB04     		lsls	r3, r3, #19
 731 0032 03F47803 		and	r3, r3, #16252928
 543:../src/sam/components/display/ili93xx/ili93xx.c **** 				((value[1] & 0x1F) << 19);
 732              		.loc 1 543 0
 733 0036 1843     		orrs	r0, r0, r3
 734              	.LVL73:
 735              	.LBE26:
 736 0038 38BD     		pop	{r3, r4, r5, pc}
 737              	.LVL74:
 738              	.L61:
 545:../src/sam/components/display/ili93xx/ili93xx.c **** 		/** dummy read */
 739              		.loc 1 545 0
 740 003a 022B     		cmp	r3, #2
 741 003c 0ED1     		bne	.L62
 742              	.LBB27:
 547:../src/sam/components/display/ili93xx/ili93xx.c **** 		/** the highest byte - R byte*/
 743              		.loc 1 547 0
 744 003e FFF7FEFF 		bl	LCD_RD
 745              	.LVL75:
 549:../src/sam/components/display/ili93xx/ili93xx.c **** 		/** the middle byte - G byte*/
 746              		.loc 1 549 0
 747 0042 FFF7FEFF 		bl	LCD_RD
 748              	.LVL76:
 749 0046 C5B2     		uxtb	r5, r0
 551:../src/sam/components/display/ili93xx/ili93xx.c **** 		/** the lowest byte - B byte*/
 750              		.loc 1 551 0
 751 0048 FFF7FEFF 		bl	LCD_RD
 752              	.LVL77:
 753 004c C4B2     		uxtb	r4, r0
 553:../src/sam/components/display/ili93xx/ili93xx.c **** 		/** combine R, G, B byte to a color value */
 754              		.loc 1 553 0
 755 004e FFF7FEFF 		bl	LCD_RD
 756              	.LVL78:
 757 0052 C0B2     		uxtb	r0, r0
 555:../src/sam/components/display/ili93xx/ili93xx.c **** 	}
 758              		.loc 1 555 0
 759 0054 2402     		lsls	r4, r4, #8
 760 0056 44EA0544 		orr	r4, r4, r5, lsl #16
 761 005a 2043     		orrs	r0, r0, r4
 762              	.LVL79:
 763              	.L62:
 764              	.LBE27:
 559:../src/sam/components/display/ili93xx/ili93xx.c **** 
 765              		.loc 1 559 0
 766 005c 38BD     		pop	{r3, r4, r5, pc}
 767              	.L65:
 768 005e 00BF     		.align	2
 769              	.L64:
 770 0060 00000000 		.word	.LANCHOR2
 771              		.cfi_endproc
 772              	.LFE185:
 774              		.section	.text.ili93xx_device_type_identify,"ax",%progbits
 775              		.align	2
 776              		.global	ili93xx_device_type_identify
 777              		.thumb
 778              		.thumb_func
 780              	ili93xx_device_type_identify:
 781              	.LFB189:
 636:../src/sam/components/display/ili93xx/ili93xx.c **** 
 637:../src/sam/components/display/ili93xx/ili93xx.c **** /**
 638:../src/sam/components/display/ili93xx/ili93xx.c ****  * \brief Read device ID to idenfity the device
 639:../src/sam/components/display/ili93xx/ili93xx.c ****  *        ILI9325 device ID locates in Device Code Read (R00h) register.
 640:../src/sam/components/display/ili93xx/ili93xx.c ****  *        ILI9341 device ID locates in Read ID4 (RD3h) register.
 641:../src/sam/components/display/ili93xx/ili93xx.c ****  *
 642:../src/sam/components/display/ili93xx/ili93xx.c ****  * \return 0 if secceed in identifying device; otherwise fails.
 643:../src/sam/components/display/ili93xx/ili93xx.c ****  */
 644:../src/sam/components/display/ili93xx/ili93xx.c **** uint8_t ili93xx_device_type_identify(void)
 645:../src/sam/components/display/ili93xx/ili93xx.c **** {
 782              		.loc 1 645 0
 783              		.cfi_startproc
 784              		@ args = 0, pretend = 0, frame = 16
 785              		@ frame_needed = 0, uses_anonymous_args = 0
 786 0000 00B5     		push	{lr}
 787              		.cfi_def_cfa_offset 4
 788              		.cfi_offset 14, -4
 789 0002 87B0     		sub	sp, sp, #28
 790              		.cfi_def_cfa_offset 32
 646:../src/sam/components/display/ili93xx/ili93xx.c ****   uint8_t paratable[10];
 647:../src/sam/components/display/ili93xx/ili93xx.c ****   uint16_t chipid;
 648:../src/sam/components/display/ili93xx/ili93xx.c **** 
 649:../src/sam/components/display/ili93xx/ili93xx.c ****   /** Read ID4 (RD4h) register to get device code for ILI9341*/
 650:../src/sam/components/display/ili93xx/ili93xx.c ****   ili93xx_read_register(ILI9341_CMD_READ_DISP_STATUS, paratable, 5);
 791              		.loc 1 650 0
 792 0004 0522     		movs	r2, #5
 793 0006 03A9     		add	r1, sp, #12
 794 0008 0920     		movs	r0, #9
 795 000a FFF7FEFF 		bl	ili93xx_read_register
 796              	.LVL80:
 651:../src/sam/components/display/ili93xx/ili93xx.c ****   printf("ILI9341_CMD_READ_DISP_STATUS = %2x %2x %2x %2x\r\n", paratable[1], paratable[2], paratabl
 797              		.loc 1 651 0
 798 000e 9DF80D10 		ldrb	r1, [sp, #13]	@ zero_extendqisi2
 799 0012 9DF80E20 		ldrb	r2, [sp, #14]	@ zero_extendqisi2
 800 0016 9DF80F30 		ldrb	r3, [sp, #15]	@ zero_extendqisi2
 801 001a 9DF81000 		ldrb	r0, [sp, #16]	@ zero_extendqisi2
 802 001e 0090     		str	r0, [sp]
 803 0020 2948     		ldr	r0, .L71
 804 0022 FFF7FEFF 		bl	iprintf
 805              	.LVL81:
 652:../src/sam/components/display/ili93xx/ili93xx.c ****   ili93xx_read_register(ILI9341_CMD_READ_DISP_ID, paratable, 4);
 806              		.loc 1 652 0
 807 0026 0422     		movs	r2, #4
 808 0028 03A9     		add	r1, sp, #12
 809 002a 1046     		mov	r0, r2
 810 002c FFF7FEFF 		bl	ili93xx_read_register
 811              	.LVL82:
 653:../src/sam/components/display/ili93xx/ili93xx.c ****   printf("ILI9341_CMD_READ_DISP_ID = %2x %2x %2x\r\n", paratable[1], paratable[2], paratable[3]);
 812              		.loc 1 653 0
 813 0030 9DF80F30 		ldrb	r3, [sp, #15]	@ zero_extendqisi2
 814 0034 9DF80E20 		ldrb	r2, [sp, #14]	@ zero_extendqisi2
 815 0038 9DF80D10 		ldrb	r1, [sp, #13]	@ zero_extendqisi2
 816 003c 2348     		ldr	r0, .L71+4
 817 003e FFF7FEFF 		bl	iprintf
 818              	.LVL83:
 654:../src/sam/components/display/ili93xx/ili93xx.c ****   ili93xx_read_register(ILI9341_CMD_READ_DISP_POWER_MODE, paratable, 2);
 819              		.loc 1 654 0
 820 0042 0222     		movs	r2, #2
 821 0044 03A9     		add	r1, sp, #12
 822 0046 0A20     		movs	r0, #10
 823 0048 FFF7FEFF 		bl	ili93xx_read_register
 824              	.LVL84:
 655:../src/sam/components/display/ili93xx/ili93xx.c ****   printf("ILI9341_CMD_READ_DISP_POWER_MODE = %2x\r\n", paratable[1]);
 825              		.loc 1 655 0
 826 004c 9DF80D10 		ldrb	r1, [sp, #13]	@ zero_extendqisi2
 827 0050 1F48     		ldr	r0, .L71+8
 828 0052 FFF7FEFF 		bl	iprintf
 829              	.LVL85:
 656:../src/sam/components/display/ili93xx/ili93xx.c ****   ili93xx_read_register(ILI9341_CMD_READ_DISP_MADCTRL, paratable, 2);
 830              		.loc 1 656 0
 831 0056 0222     		movs	r2, #2
 832 0058 03A9     		add	r1, sp, #12
 833 005a 0B20     		movs	r0, #11
 834 005c FFF7FEFF 		bl	ili93xx_read_register
 835              	.LVL86:
 657:../src/sam/components/display/ili93xx/ili93xx.c ****   printf("ILI9341_CMD_READ_DISP_MADCTRL = %2x\r\n", paratable[1]);
 836              		.loc 1 657 0
 837 0060 9DF80D10 		ldrb	r1, [sp, #13]	@ zero_extendqisi2
 838 0064 1B48     		ldr	r0, .L71+12
 839 0066 FFF7FEFF 		bl	iprintf
 840              	.LVL87:
 658:../src/sam/components/display/ili93xx/ili93xx.c **** 
 659:../src/sam/components/display/ili93xx/ili93xx.c ****   chipid = ((uint16_t)paratable[2] << 8) + paratable[3];
 841              		.loc 1 659 0
 842 006a 9DF80E20 		ldrb	r2, [sp, #14]	@ zero_extendqisi2
 843 006e 9DF80F30 		ldrb	r3, [sp, #15]	@ zero_extendqisi2
 844 0072 03EB0223 		add	r3, r3, r2, lsl #8
 845 0076 9BB2     		uxth	r3, r3
 846              	.LVL88:
 660:../src/sam/components/display/ili93xx/ili93xx.c **** 
 661:../src/sam/components/display/ili93xx/ili93xx.c ****   if (chipid == ILI9341_DEVICE_CODE) { g_uc_device_type = DEVICE_TYPE_ILI9341; return 0; }
 847              		.loc 1 661 0
 848 0078 49F24132 		movw	r2, #37697
 849 007c 9342     		cmp	r3, r2
 850 007e 04D1     		bne	.L67
 851              		.loc 1 661 0 is_stmt 0 discriminator 1
 852 0080 0222     		movs	r2, #2
 853 0082 154B     		ldr	r3, .L71+16
 854              	.LVL89:
 855 0084 1A70     		strb	r2, [r3]
 856 0086 0020     		movs	r0, #0
 857 0088 1AE0     		b	.L68
 858              	.LVL90:
 859              	.L67:
 662:../src/sam/components/display/ili93xx/ili93xx.c **** 
 663:../src/sam/components/display/ili93xx/ili93xx.c ****   /** Driver Code Read (R00h) for ILI9325*/
 664:../src/sam/components/display/ili93xx/ili93xx.c ****   ili93xx_read_register(ILI9325_DEVICE_CODE_REG, paratable, 2);
 860              		.loc 1 664 0 is_stmt 1
 861 008a 0222     		movs	r2, #2
 862 008c 03A9     		add	r1, sp, #12
 863 008e 0020     		movs	r0, #0
 864 0090 FFF7FEFF 		bl	ili93xx_read_register
 865              	.LVL91:
 665:../src/sam/components/display/ili93xx/ili93xx.c ****   chipid = ((uint16_t)paratable[0] << 8) + paratable[1];
 866              		.loc 1 665 0
 867 0094 9DF80C20 		ldrb	r2, [sp, #12]	@ zero_extendqisi2
 868 0098 9DF80D30 		ldrb	r3, [sp, #13]	@ zero_extendqisi2
 869 009c 03EB0223 		add	r3, r3, r2, lsl #8
 870 00a0 9BB2     		uxth	r3, r3
 871              	.LVL92:
 666:../src/sam/components/display/ili93xx/ili93xx.c ****   if (chipid == ILI9325_DEVICE_CODE) { g_uc_device_type = DEVICE_TYPE_ILI9325; return 0;}
 872              		.loc 1 666 0
 873 00a2 49F22532 		movw	r2, #37669
 874 00a6 9342     		cmp	r3, r2
 875 00a8 04D1     		bne	.L69
 876              		.loc 1 666 0 is_stmt 0 discriminator 1
 877 00aa 0122     		movs	r2, #1
 878 00ac 0A4B     		ldr	r3, .L71+16
 879              	.LVL93:
 880 00ae 1A70     		strb	r2, [r3]
 881 00b0 0020     		movs	r0, #0
 882 00b2 05E0     		b	.L68
 883              	.LVL94:
 884              	.L69:
 667:../src/sam/components/display/ili93xx/ili93xx.c **** 
 668:../src/sam/components/display/ili93xx/ili93xx.c ****   printf("Device type identifity = %x\n\t", g_uc_device_type);
 885              		.loc 1 668 0 is_stmt 1
 886 00b4 084B     		ldr	r3, .L71+16
 887              	.LVL95:
 888 00b6 1978     		ldrb	r1, [r3]	@ zero_extendqisi2
 889 00b8 0848     		ldr	r0, .L71+20
 890 00ba FFF7FEFF 		bl	iprintf
 891              	.LVL96:
 669:../src/sam/components/display/ili93xx/ili93xx.c **** 
 670:../src/sam/components/display/ili93xx/ili93xx.c ****   return 1;
 892              		.loc 1 670 0
 893 00be 0120     		movs	r0, #1
 894              	.L68:
 671:../src/sam/components/display/ili93xx/ili93xx.c **** }
 895              		.loc 1 671 0
 896 00c0 07B0     		add	sp, sp, #28
 897              		.cfi_def_cfa_offset 4
 898              		@ sp needed
 899 00c2 5DF804FB 		ldr	pc, [sp], #4
 900              	.L72:
 901 00c6 00BF     		.align	2
 902              	.L71:
 903 00c8 00000000 		.word	.LC0
 904 00cc 34000000 		.word	.LC1
 905 00d0 60000000 		.word	.LC2
 906 00d4 8C000000 		.word	.LC3
 907 00d8 00000000 		.word	.LANCHOR2
 908 00dc B4000000 		.word	.LC4
 909              		.cfi_endproc
 910              	.LFE189:
 912              		.section	.text.ili93xx_device_type,"ax",%progbits
 913              		.align	2
 914              		.global	ili93xx_device_type
 915              		.thumb
 916              		.thumb_func
 918              	ili93xx_device_type:
 919              	.LFB192:
 672:../src/sam/components/display/ili93xx/ili93xx.c **** 
 673:../src/sam/components/display/ili93xx/ili93xx.c **** /* \brief Initialize the ILI93XX lcd driver.
 674:../src/sam/components/display/ili93xx/ili93xx.c **** *
 675:../src/sam/components/display/ili93xx/ili93xx.c **** * \note Make sure below works have been done before calling ili93xx_init_w_spi()
 676:../src/sam/components/display/ili93xx/ili93xx.c **** * 1. ILI93xx related Pins have been initialized correctly.
 677:../src/sam/components/display/ili93xx/ili93xx.c **** * 2. SPI has been configured correctly for access ILI93xx (8-bit system
 678:../src/sam/components/display/ili93xx/ili93xx.c **** *    interface for now).
 679:../src/sam/components/display/ili93xx/ili93xx.c **** *
 680:../src/sam/components/display/ili93xx/ili93xx.c **** * \param p_opt pointer to ILI93xx option structure.
 681:../src/sam/components/display/ili93xx/ili93xx.c **** *
 682:../src/sam/components/display/ili93xx/ili93xx.c **** * \return 0 if initialization succeeds, otherwise fails.
 683:../src/sam/components/display/ili93xx/ili93xx.c **** */
 684:../src/sam/components/display/ili93xx/ili93xx.c **** uint32_t ili93xx_init_w_spi(struct ili93xx_opt_t *p_opt)
 685:../src/sam/components/display/ili93xx/ili93xx.c **** {
 686:../src/sam/components/display/ili93xx/ili93xx.c ****   uint8_t paratable[6];
 687:../src/sam/components/display/ili93xx/ili93xx.c **** 
 688:../src/sam/components/display/ili93xx/ili93xx.c ****     /* SPI device structure */
 689:../src/sam/components/display/ili93xx/ili93xx.c ****     struct spi_device ILI9341_SPI_DEVICE = {
 690:../src/sam/components/display/ili93xx/ili93xx.c **** 	// Board specific chip select configuration
 691:../src/sam/components/display/ili93xx/ili93xx.c **** 	.id = BOARD_ILI9341_SPI_NPCS
 692:../src/sam/components/display/ili93xx/ili93xx.c ****     };
 693:../src/sam/components/display/ili93xx/ili93xx.c **** 
 694:../src/sam/components/display/ili93xx/ili93xx.c ****     g_uc_device_type = DEVICE_TYPE_ILI9341;
 695:../src/sam/components/display/ili93xx/ili93xx.c **** 
 696:../src/sam/components/display/ili93xx/ili93xx.c ****     /* Reset LCD module */
 697:../src/sam/components/display/ili93xx/ili93xx.c ****     gpio_set_pin_high(BOARD_ILI9341_RSTN_GPIO);
 698:../src/sam/components/display/ili93xx/ili93xx.c ****     ili93xx_delay(2); /* wait for at least 2ms */
 699:../src/sam/components/display/ili93xx/ili93xx.c **** 
 700:../src/sam/components/display/ili93xx/ili93xx.c ****     gpio_set_pin_low(BOARD_ILI9341_RSTN_GPIO);
 701:../src/sam/components/display/ili93xx/ili93xx.c ****     ili93xx_delay(20); /* wait for at least 20ms */
 702:../src/sam/components/display/ili93xx/ili93xx.c **** 
 703:../src/sam/components/display/ili93xx/ili93xx.c ****     gpio_set_pin_high(BOARD_ILI9341_RSTN_GPIO);
 704:../src/sam/components/display/ili93xx/ili93xx.c ****     ili93xx_delay(50); /* wait for at least 50ms */
 705:../src/sam/components/display/ili93xx/ili93xx.c **** 
 706:../src/sam/components/display/ili93xx/ili93xx.c **** 
 707:../src/sam/components/display/ili93xx/ili93xx.c ****     /* Finish current transfer and reset SPI */
 708:../src/sam/components/display/ili93xx/ili93xx.c ****     spi_disable(BOARD_ILI9341_SPI);
 709:../src/sam/components/display/ili93xx/ili93xx.c ****     spi_reset(BOARD_ILI9341_SPI);
 710:../src/sam/components/display/ili93xx/ili93xx.c ****     spi_set_lastxfer(BOARD_ILI9341_SPI);
 711:../src/sam/components/display/ili93xx/ili93xx.c **** 
 712:../src/sam/components/display/ili93xx/ili93xx.c ****     /* Enable Interrupt */
 713:../src/sam/components/display/ili93xx/ili93xx.c ****     NVIC_DisableIRQ(BOARD_ILI9341_SPI_IRQN);
 714:../src/sam/components/display/ili93xx/ili93xx.c ****     NVIC_ClearPendingIRQ(BOARD_ILI9341_SPI_IRQN);
 715:../src/sam/components/display/ili93xx/ili93xx.c ****     NVIC_SetPriority(BOARD_ILI9341_SPI_IRQN, 0);
 716:../src/sam/components/display/ili93xx/ili93xx.c ****     NVIC_EnableIRQ(BOARD_ILI9341_SPI_IRQN);
 717:../src/sam/components/display/ili93xx/ili93xx.c **** 
 718:../src/sam/components/display/ili93xx/ili93xx.c ****     /* Init, select and configure the chip */
 719:../src/sam/components/display/ili93xx/ili93xx.c ****     spi_master_init(BOARD_ILI9341_SPI);
 720:../src/sam/components/display/ili93xx/ili93xx.c ****     spi_master_setup_device(BOARD_ILI9341_SPI, &ILI9341_SPI_DEVICE, SPI_MODE_0, ILI9341_SPI_BAUDRAT
 721:../src/sam/components/display/ili93xx/ili93xx.c ****     spi_select_device(BOARD_ILI9341_SPI, &ILI9341_SPI_DEVICE);
 722:../src/sam/components/display/ili93xx/ili93xx.c **** 
 723:../src/sam/components/display/ili93xx/ili93xx.c ****     /* Enable the SPI peripheral */
 724:../src/sam/components/display/ili93xx/ili93xx.c ****     spi_enable(BOARD_ILI9341_SPI);
 725:../src/sam/components/display/ili93xx/ili93xx.c **** //    spi_enable_interrupt(BOARD_ILI9341_SPI, SPI_IER_RDRF);
 726:../src/sam/components/display/ili93xx/ili93xx.c **** 
 727:../src/sam/components/display/ili93xx/ili93xx.c ****     g_ul_lcd_x_length = ILI93XX_LCD_WIDTH;
 728:../src/sam/components/display/ili93xx/ili93xx.c ****     g_ul_lcd_y_length = ILI93XX_LCD_HEIGHT;
 729:../src/sam/components/display/ili93xx/ili93xx.c **** 
 730:../src/sam/components/display/ili93xx/ili93xx.c **** //    ioport_set_pin_level(SPI_NPCS0_GPIO, IOPORT_PIN_LEVEL_LOW);
 731:../src/sam/components/display/ili93xx/ili93xx.c **** 
 732:../src/sam/components/display/ili93xx/ili93xx.c ****     /** Identify the LCD driver device*/
 733:../src/sam/components/display/ili93xx/ili93xx.c **** //    ili93xx_device_type_identify();
 734:../src/sam/components/display/ili93xx/ili93xx.c **** 	//{	return 1; }
 735:../src/sam/components/display/ili93xx/ili93xx.c **** 
 736:../src/sam/components/display/ili93xx/ili93xx.c ****     /** init for ILI9341 **/
 737:../src/sam/components/display/ili93xx/ili93xx.c ****     /** power control A configuration*/
 738:../src/sam/components/display/ili93xx/ili93xx.c ****     paratable[0] = 0x39;
 739:../src/sam/components/display/ili93xx/ili93xx.c ****     paratable[1] = 0x2C;
 740:../src/sam/components/display/ili93xx/ili93xx.c ****     paratable[2] = 0x00;
 741:../src/sam/components/display/ili93xx/ili93xx.c ****     paratable[3] = 0x34;
 742:../src/sam/components/display/ili93xx/ili93xx.c ****     paratable[4] = 0x02;
 743:../src/sam/components/display/ili93xx/ili93xx.c ****     ili93xx_write_register_datas(ILI9341_CMD_POWER_CONTROL_A, paratable, 5);
 744:../src/sam/components/display/ili93xx/ili93xx.c **** 
 745:../src/sam/components/display/ili93xx/ili93xx.c ****     /** power control B configuration */
 746:../src/sam/components/display/ili93xx/ili93xx.c ****     paratable[0] = 0;
 747:../src/sam/components/display/ili93xx/ili93xx.c ****     paratable[1] = 0xAA;
 748:../src/sam/components/display/ili93xx/ili93xx.c ****     paratable[2] = 0xB0;
 749:../src/sam/components/display/ili93xx/ili93xx.c ****     ili93xx_write_register_datas(ILI9341_CMD_POWER_CONTROL_B, paratable, 3);
 750:../src/sam/components/display/ili93xx/ili93xx.c **** 
 751:../src/sam/components/display/ili93xx/ili93xx.c ****     /** Pump Ratio Control configuration */
 752:../src/sam/components/display/ili93xx/ili93xx.c ****     paratable[0] = 0x30;
 753:../src/sam/components/display/ili93xx/ili93xx.c ****     ili93xx_write_register_datas(ILI9341_CMD_PUMP_RATIO_CONTROL, paratable, 1);
 754:../src/sam/components/display/ili93xx/ili93xx.c **** 
 755:../src/sam/components/display/ili93xx/ili93xx.c ****     /** Power Control 1 configuration*/
 756:../src/sam/components/display/ili93xx/ili93xx.c ****     paratable[0] = 0x25;
 757:../src/sam/components/display/ili93xx/ili93xx.c ****     ili93xx_write_register_datas(ILI9341_CMD_POWER_CONTROL_1, paratable, 1);
 758:../src/sam/components/display/ili93xx/ili93xx.c **** 
 759:../src/sam/components/display/ili93xx/ili93xx.c ****     /** Power Control 2 configuration*/
 760:../src/sam/components/display/ili93xx/ili93xx.c ****     paratable[0] = 0x11;
 761:../src/sam/components/display/ili93xx/ili93xx.c ****     ili93xx_write_register_datas(ILI9341_CMD_POWER_CONTROL_2, paratable, 1);
 762:../src/sam/components/display/ili93xx/ili93xx.c **** 
 763:../src/sam/components/display/ili93xx/ili93xx.c ****     /** VOM Control 1 configuration*/
 764:../src/sam/components/display/ili93xx/ili93xx.c ****     paratable[0] = 0x5C;
 765:../src/sam/components/display/ili93xx/ili93xx.c ****     paratable[1] = 0x4C;
 766:../src/sam/components/display/ili93xx/ili93xx.c ****     ili93xx_write_register_datas(ILI9341_CMD_VCOM_CONTROL_1, paratable, 2);
 767:../src/sam/components/display/ili93xx/ili93xx.c **** 
 768:../src/sam/components/display/ili93xx/ili93xx.c ****     /** VOM control 2 configuration*/
 769:../src/sam/components/display/ili93xx/ili93xx.c ****     paratable[0] = 0x94;
 770:../src/sam/components/display/ili93xx/ili93xx.c ****     ili93xx_write_register_datas(ILI9341_CMD_VCOM_CONTROL_2, paratable, 1);
 771:../src/sam/components/display/ili93xx/ili93xx.c **** 
 772:../src/sam/components/display/ili93xx/ili93xx.c ****     /** Driver Timing Control A configuration*/
 773:../src/sam/components/display/ili93xx/ili93xx.c ****     paratable[0] = 0x85;
 774:../src/sam/components/display/ili93xx/ili93xx.c ****     paratable[1] = 0x01;
 775:../src/sam/components/display/ili93xx/ili93xx.c ****     paratable[2] = 0x78;
 776:../src/sam/components/display/ili93xx/ili93xx.c ****     ili93xx_write_register_datas(ILI9341_CMD_DRIVER_TIMING_CTL_A, paratable, 3);
 777:../src/sam/components/display/ili93xx/ili93xx.c **** 
 778:../src/sam/components/display/ili93xx/ili93xx.c ****     /** Driver Timing Control B configuration*/
 779:../src/sam/components/display/ili93xx/ili93xx.c ****     paratable[0] = 0x00;
 780:../src/sam/components/display/ili93xx/ili93xx.c ****     paratable[1] = 0x00;
 781:../src/sam/components/display/ili93xx/ili93xx.c ****     ili93xx_write_register_datas(ILI9341_CMD_DRIVER_TIMING_CTL_B, paratable, 2);
 782:../src/sam/components/display/ili93xx/ili93xx.c **** 
 783:../src/sam/components/display/ili93xx/ili93xx.c ****     /** Memory Access Control configuration*/
 784:../src/sam/components/display/ili93xx/ili93xx.c ****     paratable[0] = ILI9341_CMD_MEMORY_ACCESS_CONTROL_BGR | ILI9341_CMD_MEMORY_ACCESS_CONTROL_MX;
 785:../src/sam/components/display/ili93xx/ili93xx.c ****     ili93xx_write_register_datas(ILI9341_CMD_MEMORY_ACCESS_CONTROL, paratable, 1);
 786:../src/sam/components/display/ili93xx/ili93xx.c **** 
 787:../src/sam/components/display/ili93xx/ili93xx.c ****     /** Colmod Pixel Format Set configuation*/
 788:../src/sam/components/display/ili93xx/ili93xx.c **** #if defined(BITS_16_COLOR)
 789:../src/sam/components/display/ili93xx/ili93xx.c ****     paratable[0] = ILI9341_CMD_PIXEL_FORMAT_16_BITS;
 790:../src/sam/components/display/ili93xx/ili93xx.c **** #endif
 791:../src/sam/components/display/ili93xx/ili93xx.c **** #if defined(BITS_24_COLOR)
 792:../src/sam/components/display/ili93xx/ili93xx.c ****     paratable[0] = ILI9341_CMD_PIXEL_FORMAT_24_BITS;
 793:../src/sam/components/display/ili93xx/ili93xx.c **** #endif
 794:../src/sam/components/display/ili93xx/ili93xx.c ****     ili93xx_write_register_datas(ILI9341_CMD_PIXEL_FORMAT_SET, paratable, 1);
 795:../src/sam/components/display/ili93xx/ili93xx.c **** 
 796:../src/sam/components/display/ili93xx/ili93xx.c ****     /** Display Function Control */
 797:../src/sam/components/display/ili93xx/ili93xx.c ****     paratable[0] = 0x02;
 798:../src/sam/components/display/ili93xx/ili93xx.c ****     paratable[1] = 0x82;
 799:../src/sam/components/display/ili93xx/ili93xx.c ****     paratable[2] = 0x27;
 800:../src/sam/components/display/ili93xx/ili93xx.c ****     paratable[3] = 0x00;
 801:../src/sam/components/display/ili93xx/ili93xx.c ****     ili93xx_write_register_datas(ILI9341_CMD_DISPLAY_FUNCTION_CTL, paratable, 4);
 802:../src/sam/components/display/ili93xx/ili93xx.c **** 
 803:../src/sam/components/display/ili93xx/ili93xx.c ****     /** set window area*/
 804:../src/sam/components/display/ili93xx/ili93xx.c ****     ili93xx_set_window(0, 0, p_opt->ul_width, p_opt->ul_height);
 805:../src/sam/components/display/ili93xx/ili93xx.c ****     ili93xx_set_foreground_color(p_opt->foreground_color);
 806:../src/sam/components/display/ili93xx/ili93xx.c ****     /** Leave sleep mode*/
 807:../src/sam/components/display/ili93xx/ili93xx.c ****     ili93xx_write_register_datas(ILI9341_CMD_SLEEP_OUT, paratable, 0);
 808:../src/sam/components/display/ili93xx/ili93xx.c ****     ili93xx_delay(10);
 809:../src/sam/components/display/ili93xx/ili93xx.c ****     /** Display on*/
 810:../src/sam/components/display/ili93xx/ili93xx.c ****     ili93xx_write_register_datas(ILI9341_CMD_DISPLAY_ON, paratable, 0);
 811:../src/sam/components/display/ili93xx/ili93xx.c **** 
 812:../src/sam/components/display/ili93xx/ili93xx.c **** //    ili93xx_device_type_identify();
 813:../src/sam/components/display/ili93xx/ili93xx.c **** 
 814:../src/sam/components/display/ili93xx/ili93xx.c ****     return 0;
 815:../src/sam/components/display/ili93xx/ili93xx.c **** 
 816:../src/sam/components/display/ili93xx/ili93xx.c **** };
 817:../src/sam/components/display/ili93xx/ili93xx.c **** 
 818:../src/sam/components/display/ili93xx/ili93xx.c **** /**
 819:../src/sam/components/display/ili93xx/ili93xx.c ****  * \brief Initialize the ILI93XX lcd driver.
 820:../src/sam/components/display/ili93xx/ili93xx.c ****  *
 821:../src/sam/components/display/ili93xx/ili93xx.c ****  * \note Make sure below works have been done before calling ili93xx_init()
 822:../src/sam/components/display/ili93xx/ili93xx.c ****  * 1. ILI93xx related Pins have been initialized correctly.
 823:../src/sam/components/display/ili93xx/ili93xx.c ****  * 2. SMC has been configured correctly for access ILI93xx (8-bit system
 824:../src/sam/components/display/ili93xx/ili93xx.c ****  *    interface for now).
 825:../src/sam/components/display/ili93xx/ili93xx.c ****  *
 826:../src/sam/components/display/ili93xx/ili93xx.c ****  * \param p_opt pointer to ILI93xx option structure.
 827:../src/sam/components/display/ili93xx/ili93xx.c ****  *
 828:../src/sam/components/display/ili93xx/ili93xx.c ****  * \return 0 if initialization succeeds, otherwise fails.
 829:../src/sam/components/display/ili93xx/ili93xx.c ****  */
 830:../src/sam/components/display/ili93xx/ili93xx.c **** uint32_t ili93xx_init(struct ili93xx_opt_t *p_opt)
 831:../src/sam/components/display/ili93xx/ili93xx.c **** {
 832:../src/sam/components/display/ili93xx/ili93xx.c **** 	uint8_t paratable[6];
 833:../src/sam/components/display/ili93xx/ili93xx.c **** 
 834:../src/sam/components/display/ili93xx/ili93xx.c **** 	/** Identify the LCD driver device*/
 835:../src/sam/components/display/ili93xx/ili93xx.c **** 	if (ili93xx_device_type_identify() != 0) {
 836:../src/sam/components/display/ili93xx/ili93xx.c **** 		return 1;
 837:../src/sam/components/display/ili93xx/ili93xx.c **** 	}
 838:../src/sam/components/display/ili93xx/ili93xx.c **** 
 839:../src/sam/components/display/ili93xx/ili93xx.c **** 	g_ul_lcd_x_length = ILI93XX_LCD_WIDTH;
 840:../src/sam/components/display/ili93xx/ili93xx.c **** 	g_ul_lcd_y_length = ILI93XX_LCD_HEIGHT;
 841:../src/sam/components/display/ili93xx/ili93xx.c **** 
 842:../src/sam/components/display/ili93xx/ili93xx.c **** 	if (g_uc_device_type == DEVICE_TYPE_ILI9325) {
 843:../src/sam/components/display/ili93xx/ili93xx.c **** 		/** Turn off LCD */
 844:../src/sam/components/display/ili93xx/ili93xx.c **** 		ili93xx_write_register_word(ILI9325_DISP_CTRL1, ILI9325_DISP_CTRL1_GON |
 845:../src/sam/components/display/ili93xx/ili93xx.c **** 				ILI9325_DISP_CTRL1_DTE | ILI9325_DISP_CTRL1_D(0x03));
 846:../src/sam/components/display/ili93xx/ili93xx.c **** 
 847:../src/sam/components/display/ili93xx/ili93xx.c **** 		/** Start initial sequence */
 848:../src/sam/components/display/ili93xx/ili93xx.c **** 		/** Disable sleep and standby mode*/
 849:../src/sam/components/display/ili93xx/ili93xx.c **** 		ili93xx_write_register_word(ILI9325_POWER_CTRL1, 0x0000);
 850:../src/sam/components/display/ili93xx/ili93xx.c **** 		/** Start internal OSC */
 851:../src/sam/components/display/ili93xx/ili93xx.c **** 		ili93xx_write_register_word(ILI9325_START_OSC_CTRL,
 852:../src/sam/components/display/ili93xx/ili93xx.c **** 				ILI9325_START_OSC_CTRL_EN);
 853:../src/sam/components/display/ili93xx/ili93xx.c **** 		/** Set SS bit and direction output from S720 to S1 */
 854:../src/sam/components/display/ili93xx/ili93xx.c **** 		ili93xx_write_register_word(ILI9325_DRIVER_OUTPUT_CTRL1,
 855:../src/sam/components/display/ili93xx/ili93xx.c **** 				ILI9325_DRIVER_OUTPUT_CTRL1_SS);
 856:../src/sam/components/display/ili93xx/ili93xx.c **** 		/** Set 1 line inversion */
 857:../src/sam/components/display/ili93xx/ili93xx.c **** 		ili93xx_write_register_word(ILI9325_LCD_DRIVING_CTRL,
 858:../src/sam/components/display/ili93xx/ili93xx.c **** 				ILI9325_LCD_DRIVING_CTRL_BIT10 | ILI9325_LCD_DRIVING_CTRL_EOR
 859:../src/sam/components/display/ili93xx/ili93xx.c **** 				| ILI9325_LCD_DRIVING_CTRL_BC0);
 860:../src/sam/components/display/ili93xx/ili93xx.c **** 		/** Disable resizing feature */
 861:../src/sam/components/display/ili93xx/ili93xx.c **** 		ili93xx_write_register_word(ILI9325_RESIZE_CTRL, 0x0000);
 862:../src/sam/components/display/ili93xx/ili93xx.c **** 		/** Set the back porch and front porch */
 863:../src/sam/components/display/ili93xx/ili93xx.c **** 		ili93xx_write_register_word(ILI9325_DISP_CTRL2,
 864:../src/sam/components/display/ili93xx/ili93xx.c **** 				ILI9325_DISP_CTRL2_BP(
 865:../src/sam/components/display/ili93xx/ili93xx.c **** 				0x07) | ILI9325_DISP_CTRL2_FP(0x02));
 866:../src/sam/components/display/ili93xx/ili93xx.c **** 		/** Set non-display area refresh cycle ISC[3:0] */
 867:../src/sam/components/display/ili93xx/ili93xx.c **** 		ili93xx_write_register_word(ILI9325_DISP_CTRL3, 0x0000);
 868:../src/sam/components/display/ili93xx/ili93xx.c **** 		/** Disable FMARK function */
 869:../src/sam/components/display/ili93xx/ili93xx.c **** 		ili93xx_write_register_word(ILI9325_DISP_CTRL4, 0x0000);
 870:../src/sam/components/display/ili93xx/ili93xx.c **** 		/** 18-bit RGB interface and writing display data by system
 871:../src/sam/components/display/ili93xx/ili93xx.c **** 		 *interface */
 872:../src/sam/components/display/ili93xx/ili93xx.c **** 		ili93xx_write_register_word(ILI9325_RGB_DISP_INTERFACE_CTRL1,
 873:../src/sam/components/display/ili93xx/ili93xx.c **** 				0x0000);
 874:../src/sam/components/display/ili93xx/ili93xx.c **** 		/** Set the output position of frame cycle */
 875:../src/sam/components/display/ili93xx/ili93xx.c **** 		ili93xx_write_register_word(ILI9325_FRAME_MAKER_POS, 0x0000);
 876:../src/sam/components/display/ili93xx/ili93xx.c **** 		/** RGB interface polarity */
 877:../src/sam/components/display/ili93xx/ili93xx.c **** 		ili93xx_write_register_word(ILI9325_RGB_DISP_INTERFACE_CTRL2,
 878:../src/sam/components/display/ili93xx/ili93xx.c **** 				0x0000);
 879:../src/sam/components/display/ili93xx/ili93xx.c **** 
 880:../src/sam/components/display/ili93xx/ili93xx.c **** 		/** Power on sequence */
 881:../src/sam/components/display/ili93xx/ili93xx.c **** 		/** Disable sleep and standby mode */
 882:../src/sam/components/display/ili93xx/ili93xx.c **** 		ili93xx_write_register_word(ILI9325_POWER_CTRL1, 0x0000);
 883:../src/sam/components/display/ili93xx/ili93xx.c **** 
 884:../src/sam/components/display/ili93xx/ili93xx.c **** 		/**
 885:../src/sam/components/display/ili93xx/ili93xx.c **** 		 * Selects the operating frequency of the step-up circuit 1,2
 886:../src/sam/components/display/ili93xx/ili93xx.c **** 		 * and Sets the ratio factor of Vci.
 887:../src/sam/components/display/ili93xx/ili93xx.c **** 		 */
 888:../src/sam/components/display/ili93xx/ili93xx.c **** 		ili93xx_write_register_word(ILI9325_POWER_CTRL2, 0x0000);
 889:../src/sam/components/display/ili93xx/ili93xx.c **** 		/** Set VREG1OUT voltage */
 890:../src/sam/components/display/ili93xx/ili93xx.c **** 		ili93xx_write_register_word(ILI9325_POWER_CTRL3, 0x0000);
 891:../src/sam/components/display/ili93xx/ili93xx.c **** 		/** Set VCOM amplitude */
 892:../src/sam/components/display/ili93xx/ili93xx.c **** 		ili93xx_write_register_word(ILI9325_POWER_CTRL4, 0x0000);
 893:../src/sam/components/display/ili93xx/ili93xx.c **** 		ili93xx_delay(200);
 894:../src/sam/components/display/ili93xx/ili93xx.c **** 
 895:../src/sam/components/display/ili93xx/ili93xx.c **** 		/** Enable power supply and source driver */
 896:../src/sam/components/display/ili93xx/ili93xx.c **** 
 897:../src/sam/components/display/ili93xx/ili93xx.c **** 		/**
 898:../src/sam/components/display/ili93xx/ili93xx.c **** 		 * Adjusts the constant current and Sets the factor used
 899:../src/sam/components/display/ili93xx/ili93xx.c **** 		 * in the step-up circuits.
 900:../src/sam/components/display/ili93xx/ili93xx.c **** 		 */
 901:../src/sam/components/display/ili93xx/ili93xx.c **** 		ili93xx_write_register_word(ILI9325_POWER_CTRL1,
 902:../src/sam/components/display/ili93xx/ili93xx.c **** 				ILI9325_POWER_CTRL1_SAP | ILI9325_POWER_CTRL1_BT(0x02) |
 903:../src/sam/components/display/ili93xx/ili93xx.c **** 				ILI9325_POWER_CTRL1_APE |
 904:../src/sam/components/display/ili93xx/ili93xx.c **** 				ILI9325_POWER_CTRL1_AP(0x01));
 905:../src/sam/components/display/ili93xx/ili93xx.c **** 
 906:../src/sam/components/display/ili93xx/ili93xx.c **** 		/**
 907:../src/sam/components/display/ili93xx/ili93xx.c **** 		 * Select the operating frequency of the step-up circuit 1,2 and
 908:../src/sam/components/display/ili93xx/ili93xx.c **** 		 * Sets the ratio factor of Vci
 909:../src/sam/components/display/ili93xx/ili93xx.c **** 		 */
 910:../src/sam/components/display/ili93xx/ili93xx.c **** 		ili93xx_write_register_word(ILI9325_POWER_CTRL2,
 911:../src/sam/components/display/ili93xx/ili93xx.c **** 				ILI9325_POWER_CTRL2_DC1(0x02) |
 912:../src/sam/components/display/ili93xx/ili93xx.c **** 				ILI9325_POWER_CTRL2_DC0(0x02) | ILI9325_POWER_CTRL2_VC(0x07));
 913:../src/sam/components/display/ili93xx/ili93xx.c **** 		ili93xx_delay(50);
 914:../src/sam/components/display/ili93xx/ili93xx.c **** 		/** Internal reference voltage= Vci */
 915:../src/sam/components/display/ili93xx/ili93xx.c **** 		ili93xx_write_register_word(ILI9325_POWER_CTRL3,
 916:../src/sam/components/display/ili93xx/ili93xx.c **** 				ILI9325_POWER_CTRL3_PON | ILI9325_POWER_CTRL3_VRH(0x0B));
 917:../src/sam/components/display/ili93xx/ili93xx.c **** 		ili93xx_delay(50);
 918:../src/sam/components/display/ili93xx/ili93xx.c **** 		/** Set VDV[4:0] for VCOM amplitude */
 919:../src/sam/components/display/ili93xx/ili93xx.c **** 		ili93xx_write_register_word(ILI9325_POWER_CTRL4,
 920:../src/sam/components/display/ili93xx/ili93xx.c **** 				ILI9325_POWER_CTRL4_VDV(0x11));
 921:../src/sam/components/display/ili93xx/ili93xx.c **** 		/** Set VCM[5:0] for VCOMH */
 922:../src/sam/components/display/ili93xx/ili93xx.c **** 		ili93xx_write_register_word(ILI9325_POWER_CTRL7,
 923:../src/sam/components/display/ili93xx/ili93xx.c **** 				ILI9325_POWER_CTRL7_VCM(0x19));
 924:../src/sam/components/display/ili93xx/ili93xx.c **** 		/** Set Frame Rate */
 925:../src/sam/components/display/ili93xx/ili93xx.c **** 		ili93xx_write_register_word(ILI9325_FRAME_RATE_AND_COLOR_CTRL,
 926:../src/sam/components/display/ili93xx/ili93xx.c **** 				ILI9325_FRAME_RATE_AND_COLOR_CTRL_FRS(0x0D));
 927:../src/sam/components/display/ili93xx/ili93xx.c **** 		ili93xx_delay(50);
 928:../src/sam/components/display/ili93xx/ili93xx.c **** 
 929:../src/sam/components/display/ili93xx/ili93xx.c **** 		/** Adjust the Gamma Curve */
 930:../src/sam/components/display/ili93xx/ili93xx.c **** 		ili93xx_write_register_word(ILI9325_GAMMA_CTL1, 0x0000);
 931:../src/sam/components/display/ili93xx/ili93xx.c **** 		ili93xx_write_register_word(ILI9325_GAMMA_CTL2,
 932:../src/sam/components/display/ili93xx/ili93xx.c **** 				ILI9325_GAMMA_CTL2_KP3(0x02) |
 933:../src/sam/components/display/ili93xx/ili93xx.c **** 				ILI9325_GAMMA_CTL2_KP2(0x04));
 934:../src/sam/components/display/ili93xx/ili93xx.c **** 		ili93xx_write_register_word(ILI9325_GAMMA_CTL3,
 935:../src/sam/components/display/ili93xx/ili93xx.c **** 				ILI9325_GAMMA_CTL3_KP5(0x02) |
 936:../src/sam/components/display/ili93xx/ili93xx.c **** 				ILI9325_GAMMA_CTL3_KP4(0x00));
 937:../src/sam/components/display/ili93xx/ili93xx.c **** 		ili93xx_write_register_word(ILI9325_GAMMA_CTL4,
 938:../src/sam/components/display/ili93xx/ili93xx.c **** 				ILI9325_GAMMA_CTL4_RP1(0x00) |
 939:../src/sam/components/display/ili93xx/ili93xx.c **** 				ILI9325_GAMMA_CTL4_RP0(0x07));
 940:../src/sam/components/display/ili93xx/ili93xx.c **** 		ili93xx_write_register_word(ILI9325_GAMMA_CTL5,
 941:../src/sam/components/display/ili93xx/ili93xx.c **** 				ILI9325_GAMMA_CTL5_VRP1(0x14) |
 942:../src/sam/components/display/ili93xx/ili93xx.c **** 				ILI9325_GAMMA_CTL5_VRP0(0x04));
 943:../src/sam/components/display/ili93xx/ili93xx.c **** 		ili93xx_write_register_word(ILI9325_GAMMA_CTL6,
 944:../src/sam/components/display/ili93xx/ili93xx.c **** 				ILI9325_GAMMA_CTL6_KN1(0x07) |
 945:../src/sam/components/display/ili93xx/ili93xx.c **** 				ILI9325_GAMMA_CTL6_KN0(0x05));
 946:../src/sam/components/display/ili93xx/ili93xx.c **** 		ili93xx_write_register_word(ILI9325_GAMMA_CTL7,
 947:../src/sam/components/display/ili93xx/ili93xx.c **** 				ILI9325_GAMMA_CTL7_KN3(0x03) |
 948:../src/sam/components/display/ili93xx/ili93xx.c **** 				ILI9325_GAMMA_CTL7_KN2(0x05));
 949:../src/sam/components/display/ili93xx/ili93xx.c **** 		ili93xx_write_register_word(ILI9325_GAMMA_CTL8,
 950:../src/sam/components/display/ili93xx/ili93xx.c **** 				ILI9325_GAMMA_CTL8_KN5(0x07) |
 951:../src/sam/components/display/ili93xx/ili93xx.c **** 				ILI9325_GAMMA_CTL8_KN4(0x07));
 952:../src/sam/components/display/ili93xx/ili93xx.c **** 		ili93xx_write_register_word(ILI9325_GAMMA_CTL9,
 953:../src/sam/components/display/ili93xx/ili93xx.c **** 				ILI9325_GAMMA_CTL9_RN1(0x07) |
 954:../src/sam/components/display/ili93xx/ili93xx.c **** 				ILI9325_GAMMA_CTL9_RN0(0x01));
 955:../src/sam/components/display/ili93xx/ili93xx.c **** 		ili93xx_write_register_word(ILI9325_GAMMA_CTL10,
 956:../src/sam/components/display/ili93xx/ili93xx.c **** 				ILI9325_GAMMA_CTL10_VRN1(0x00) |
 957:../src/sam/components/display/ili93xx/ili93xx.c **** 				ILI9325_GAMMA_CTL10_VRN0(0x0E));
 958:../src/sam/components/display/ili93xx/ili93xx.c **** 		/**
 959:../src/sam/components/display/ili93xx/ili93xx.c **** 		 * Use the high speed write mode (HWM=1)
 960:../src/sam/components/display/ili93xx/ili93xx.c **** 		 * When TRI = 1, data are transferred to the internal RAM in
 961:../src/sam/components/display/ili93xx/ili93xx.c **** 		 * 8-bit x 3 transfers mode via the 8-bit interface.
 962:../src/sam/components/display/ili93xx/ili93xx.c **** 		 * DFM Set the mode of transferring data to the internal RAM
 963:../src/sam/components/display/ili93xx/ili93xx.c **** 		 * when TRI = 1.
 964:../src/sam/components/display/ili93xx/ili93xx.c **** 		 * I/D[1:0] = 11 Horizontal : increment Vertical : increment,
 965:../src/sam/components/display/ili93xx/ili93xx.c **** 		 * AM=0:Horizontal
 966:../src/sam/components/display/ili93xx/ili93xx.c **** 		 */
 967:../src/sam/components/display/ili93xx/ili93xx.c **** 		ili93xx_write_register_word(ILI9325_ENTRY_MODE,
 968:../src/sam/components/display/ili93xx/ili93xx.c **** 				ILI9325_ENTRY_MODE_TRI | ILI9325_ENTRY_MODE_DFM |
 969:../src/sam/components/display/ili93xx/ili93xx.c **** 				ILI9325_ENTRY_MODE_ID(0x01) | ILI9325_ENTRY_MODE_BGR);
 970:../src/sam/components/display/ili93xx/ili93xx.c **** 		/**
 971:../src/sam/components/display/ili93xx/ili93xx.c **** 		 * Sets the number of lines to drive the LCD at an interval of 8
 972:../src/sam/components/display/ili93xx/ili93xx.c **** 		 * lines. The scan direction is from G320 to G1
 973:../src/sam/components/display/ili93xx/ili93xx.c **** 		 */
 974:../src/sam/components/display/ili93xx/ili93xx.c **** 		ili93xx_write_register_word(ILI9325_DRIVER_OUTPUT_CTRL2,
 975:../src/sam/components/display/ili93xx/ili93xx.c **** 				ILI9325_DRIVER_OUTPUT_CTRL2_GS |
 976:../src/sam/components/display/ili93xx/ili93xx.c **** 				ILI9325_DRIVER_OUTPUT_CTRL2_NL(0x27));
 977:../src/sam/components/display/ili93xx/ili93xx.c **** 
 978:../src/sam/components/display/ili93xx/ili93xx.c **** 		/** Vertical Scrolling */
 979:../src/sam/components/display/ili93xx/ili93xx.c **** 		/** Disable scrolling and enable the grayscale inversion */
 980:../src/sam/components/display/ili93xx/ili93xx.c **** 		ili93xx_write_register_word(ILI9325_BASE_IMG_DISP_CTRL,
 981:../src/sam/components/display/ili93xx/ili93xx.c **** 				ILI9325_BASE_IMG_DISP_CTRL_REV);
 982:../src/sam/components/display/ili93xx/ili93xx.c **** 		ili93xx_write_register_word(ILI9325_VERTICAL_SCROLL_CTRL,
 983:../src/sam/components/display/ili93xx/ili93xx.c **** 				0x0000);
 984:../src/sam/components/display/ili93xx/ili93xx.c **** 
 985:../src/sam/components/display/ili93xx/ili93xx.c **** 		/** Disable Partial Display */
 986:../src/sam/components/display/ili93xx/ili93xx.c **** 		ili93xx_write_register_word(ILI9325_PARTIAL_IMG1_DISP_POS,
 987:../src/sam/components/display/ili93xx/ili93xx.c **** 				0x0000);
 988:../src/sam/components/display/ili93xx/ili93xx.c **** 		ili93xx_write_register_word(
 989:../src/sam/components/display/ili93xx/ili93xx.c **** 				ILI9325_PARTIAL_IMG1_AREA_START_LINE,
 990:../src/sam/components/display/ili93xx/ili93xx.c **** 				0x0000);
 991:../src/sam/components/display/ili93xx/ili93xx.c **** 		ili93xx_write_register_word(ILI9325_PARTIAL_IMG1_AREA_END_LINE,
 992:../src/sam/components/display/ili93xx/ili93xx.c **** 				0x0000);
 993:../src/sam/components/display/ili93xx/ili93xx.c **** 		ili93xx_write_register_word(ILI9325_PARTIAL_IMG2_DISP_POS,
 994:../src/sam/components/display/ili93xx/ili93xx.c **** 				0x0000);
 995:../src/sam/components/display/ili93xx/ili93xx.c **** 		ili93xx_write_register_word(
 996:../src/sam/components/display/ili93xx/ili93xx.c **** 				ILI9325_PARTIAL_IMG2_AREA_START_LINE,
 997:../src/sam/components/display/ili93xx/ili93xx.c **** 				0x0000);
 998:../src/sam/components/display/ili93xx/ili93xx.c **** 		ili93xx_write_register_word(ILI9325_PARTIAL_IMG2_AREA_END_LINE,
 999:../src/sam/components/display/ili93xx/ili93xx.c **** 				0x0000);
1000:../src/sam/components/display/ili93xx/ili93xx.c **** 
1001:../src/sam/components/display/ili93xx/ili93xx.c **** 		/** Panel Control */
1002:../src/sam/components/display/ili93xx/ili93xx.c **** 		ili93xx_write_register_word(ILI9325_PANEL_INTERFACE_CTRL1,
1003:../src/sam/components/display/ili93xx/ili93xx.c **** 				ILI9325_PANEL_INTERFACE_CTRL1_RTNI(0x10));
1004:../src/sam/components/display/ili93xx/ili93xx.c **** 		ili93xx_write_register_word(ILI9325_PANEL_INTERFACE_CTRL2,
1005:../src/sam/components/display/ili93xx/ili93xx.c **** 				ILI9325_PANEL_INTERFACE_CTRL2_NOWI(0x06));
1006:../src/sam/components/display/ili93xx/ili93xx.c **** 		ili93xx_write_register_word(ILI9325_PANEL_INTERFACE_CTRL4,
1007:../src/sam/components/display/ili93xx/ili93xx.c **** 				ILI9325_PANEL_INTERFACE_CTRL4_DIVE(0x01) |
1008:../src/sam/components/display/ili93xx/ili93xx.c **** 				ILI9325_PANEL_INTERFACE_CTRL4_RTNE(0x10));
1009:../src/sam/components/display/ili93xx/ili93xx.c **** 
1010:../src/sam/components/display/ili93xx/ili93xx.c **** 		ili93xx_set_window(0, 0, p_opt->ul_width, p_opt->ul_height);
1011:../src/sam/components/display/ili93xx/ili93xx.c **** 		ili93xx_set_foreground_color(p_opt->foreground_color);
1012:../src/sam/components/display/ili93xx/ili93xx.c **** 		ili93xx_set_cursor_position(0, 0);
1013:../src/sam/components/display/ili93xx/ili93xx.c **** 	} else if (g_uc_device_type == DEVICE_TYPE_ILI9341) {
1014:../src/sam/components/display/ili93xx/ili93xx.c **** 		/** init for ILI9341 **/
1015:../src/sam/components/display/ili93xx/ili93xx.c **** 		/** power control A configuration*/
1016:../src/sam/components/display/ili93xx/ili93xx.c **** 		paratable[0] = 0x39;
1017:../src/sam/components/display/ili93xx/ili93xx.c **** 		paratable[1] = 0x2C;
1018:../src/sam/components/display/ili93xx/ili93xx.c **** 		paratable[2] = 0x00;
1019:../src/sam/components/display/ili93xx/ili93xx.c **** 		paratable[3] = 0x34;
1020:../src/sam/components/display/ili93xx/ili93xx.c **** 		paratable[4] = 0x02;
1021:../src/sam/components/display/ili93xx/ili93xx.c **** 		ili93xx_write_register(ILI9341_CMD_POWER_CONTROL_A, paratable, 5);
1022:../src/sam/components/display/ili93xx/ili93xx.c **** 
1023:../src/sam/components/display/ili93xx/ili93xx.c **** 		/** power control B configuration */
1024:../src/sam/components/display/ili93xx/ili93xx.c **** 		paratable[0] = 0;
1025:../src/sam/components/display/ili93xx/ili93xx.c **** 		paratable[1] = 0xAA;
1026:../src/sam/components/display/ili93xx/ili93xx.c **** 		paratable[2] = 0xB0;
1027:../src/sam/components/display/ili93xx/ili93xx.c **** 		ili93xx_write_register(ILI9341_CMD_POWER_CONTROL_B, paratable, 3);
1028:../src/sam/components/display/ili93xx/ili93xx.c **** 
1029:../src/sam/components/display/ili93xx/ili93xx.c **** 		/** Pump Ratio Control configuration */
1030:../src/sam/components/display/ili93xx/ili93xx.c **** 		paratable[0] = 0x30;
1031:../src/sam/components/display/ili93xx/ili93xx.c **** 		ili93xx_write_register(ILI9341_CMD_PUMP_RATIO_CONTROL,
1032:../src/sam/components/display/ili93xx/ili93xx.c **** 				paratable, 1);
1033:../src/sam/components/display/ili93xx/ili93xx.c **** 
1034:../src/sam/components/display/ili93xx/ili93xx.c **** 		/** Power Control 1 configuration*/
1035:../src/sam/components/display/ili93xx/ili93xx.c **** 		paratable[0] = 0x25;
1036:../src/sam/components/display/ili93xx/ili93xx.c **** 		ili93xx_write_register(ILI9341_CMD_POWER_CONTROL_1, paratable, 1);
1037:../src/sam/components/display/ili93xx/ili93xx.c **** 
1038:../src/sam/components/display/ili93xx/ili93xx.c **** 		/** Power Control 2 configuration*/
1039:../src/sam/components/display/ili93xx/ili93xx.c **** 		paratable[0] = 0x11;
1040:../src/sam/components/display/ili93xx/ili93xx.c **** 		ili93xx_write_register(ILI9341_CMD_POWER_CONTROL_2, paratable, 1);
1041:../src/sam/components/display/ili93xx/ili93xx.c **** 
1042:../src/sam/components/display/ili93xx/ili93xx.c **** 		/** VOM Control 1 configuration*/
1043:../src/sam/components/display/ili93xx/ili93xx.c **** 		paratable[0] = 0x5C;
1044:../src/sam/components/display/ili93xx/ili93xx.c **** 		paratable[1] = 0x4C;
1045:../src/sam/components/display/ili93xx/ili93xx.c **** 		ili93xx_write_register(ILI9341_CMD_VCOM_CONTROL_1, paratable, 2);
1046:../src/sam/components/display/ili93xx/ili93xx.c **** 
1047:../src/sam/components/display/ili93xx/ili93xx.c **** 		/** VOM control 2 configuration*/
1048:../src/sam/components/display/ili93xx/ili93xx.c **** 		paratable[0] = 0x94;
1049:../src/sam/components/display/ili93xx/ili93xx.c **** 		ili93xx_write_register(ILI9341_CMD_VCOM_CONTROL_2, paratable, 1);
1050:../src/sam/components/display/ili93xx/ili93xx.c **** 
1051:../src/sam/components/display/ili93xx/ili93xx.c **** 		/** Driver Timing Control A configuration*/
1052:../src/sam/components/display/ili93xx/ili93xx.c **** 		paratable[0] = 0x85;
1053:../src/sam/components/display/ili93xx/ili93xx.c **** 		paratable[1] = 0x01;
1054:../src/sam/components/display/ili93xx/ili93xx.c **** 		paratable[2] = 0x78;
1055:../src/sam/components/display/ili93xx/ili93xx.c **** 		ili93xx_write_register(ILI9341_CMD_DRIVER_TIMING_CTL_A, paratable, 3);
1056:../src/sam/components/display/ili93xx/ili93xx.c **** 
1057:../src/sam/components/display/ili93xx/ili93xx.c **** 		/** Driver Timing Control B configuration*/
1058:../src/sam/components/display/ili93xx/ili93xx.c **** 		paratable[0] = 0x00;
1059:../src/sam/components/display/ili93xx/ili93xx.c **** 		paratable[1] = 0x00;
1060:../src/sam/components/display/ili93xx/ili93xx.c **** 		ili93xx_write_register(ILI9341_CMD_DRIVER_TIMING_CTL_B, paratable, 2);
1061:../src/sam/components/display/ili93xx/ili93xx.c **** 
1062:../src/sam/components/display/ili93xx/ili93xx.c **** 		/** Memory Access Control configuration*/
1063:../src/sam/components/display/ili93xx/ili93xx.c **** 		paratable[0] = ILI9341_CMD_MEMORY_ACCESS_CONTROL_MX |
1064:../src/sam/components/display/ili93xx/ili93xx.c **** 				ILI9341_CMD_MEMORY_ACCESS_CONTROL_BGR;
1065:../src/sam/components/display/ili93xx/ili93xx.c **** 		ili93xx_write_register(ILI9341_CMD_MEMORY_ACCESS_CONTROL,
1066:../src/sam/components/display/ili93xx/ili93xx.c **** 				paratable, 1);
1067:../src/sam/components/display/ili93xx/ili93xx.c **** 
1068:../src/sam/components/display/ili93xx/ili93xx.c **** 		/** Colmod Pixel Format Set configuation*/
1069:../src/sam/components/display/ili93xx/ili93xx.c **** 		paratable[0] = 0x06;
1070:../src/sam/components/display/ili93xx/ili93xx.c **** 		ili93xx_write_register(ILI9341_CMD_PIXEL_FORMAT_SET, paratable, 1);
1071:../src/sam/components/display/ili93xx/ili93xx.c **** 
1072:../src/sam/components/display/ili93xx/ili93xx.c **** 		/** Display Function Control */
1073:../src/sam/components/display/ili93xx/ili93xx.c **** 		paratable[0] = 0x02;
1074:../src/sam/components/display/ili93xx/ili93xx.c **** 		paratable[1] = 0x82;
1075:../src/sam/components/display/ili93xx/ili93xx.c **** 		paratable[2] = 0x27;
1076:../src/sam/components/display/ili93xx/ili93xx.c **** 		paratable[3] = 0x00;
1077:../src/sam/components/display/ili93xx/ili93xx.c **** 		ili93xx_write_register(ILI9341_CMD_DISPLAY_FUNCTION_CTL, paratable, 4);
1078:../src/sam/components/display/ili93xx/ili93xx.c **** 		
1079:../src/sam/components/display/ili93xx/ili93xx.c **** 		/** set window area*/
1080:../src/sam/components/display/ili93xx/ili93xx.c **** 		ili93xx_set_window(0, 0, p_opt->ul_width, p_opt->ul_height);
1081:../src/sam/components/display/ili93xx/ili93xx.c **** 		ili93xx_set_foreground_color(p_opt->foreground_color);
1082:../src/sam/components/display/ili93xx/ili93xx.c **** 		/** Leave sleep mode*/
1083:../src/sam/components/display/ili93xx/ili93xx.c **** 		ili93xx_write_register(ILI9341_CMD_SLEEP_OUT, paratable, 0);
1084:../src/sam/components/display/ili93xx/ili93xx.c **** 		ili93xx_delay(10);
1085:../src/sam/components/display/ili93xx/ili93xx.c **** 		/** Display on*/
1086:../src/sam/components/display/ili93xx/ili93xx.c **** 		ili93xx_write_register(ILI9341_CMD_DISPLAY_ON, paratable, 0);
1087:../src/sam/components/display/ili93xx/ili93xx.c **** 	} else {
1088:../src/sam/components/display/ili93xx/ili93xx.c **** 		/** exit with return value 1 if device type is not supported.*/
1089:../src/sam/components/display/ili93xx/ili93xx.c **** 		return 1;
1090:../src/sam/components/display/ili93xx/ili93xx.c **** 	}
1091:../src/sam/components/display/ili93xx/ili93xx.c **** 
1092:../src/sam/components/display/ili93xx/ili93xx.c **** 	return 0;
1093:../src/sam/components/display/ili93xx/ili93xx.c **** }
1094:../src/sam/components/display/ili93xx/ili93xx.c **** 
1095:../src/sam/components/display/ili93xx/ili93xx.c **** /**
1096:../src/sam/components/display/ili93xx/ili93xx.c ****  * \brief get the device type.
1097:../src/sam/components/display/ili93xx/ili93xx.c ****  */
1098:../src/sam/components/display/ili93xx/ili93xx.c **** uint8_t ili93xx_device_type(void)
1099:../src/sam/components/display/ili93xx/ili93xx.c **** {
 920              		.loc 1 1099 0
 921              		.cfi_startproc
 922              		@ args = 0, pretend = 0, frame = 0
 923              		@ frame_needed = 0, uses_anonymous_args = 0
 924              		@ link register save eliminated.
1100:../src/sam/components/display/ili93xx/ili93xx.c **** 	return g_uc_device_type;
1101:../src/sam/components/display/ili93xx/ili93xx.c **** }
 925              		.loc 1 1101 0
 926 0000 014B     		ldr	r3, .L74
 927 0002 1878     		ldrb	r0, [r3]	@ zero_extendqisi2
 928 0004 7047     		bx	lr
 929              	.L75:
 930 0006 00BF     		.align	2
 931              	.L74:
 932 0008 00000000 		.word	.LANCHOR2
 933              		.cfi_endproc
 934              	.LFE192:
 936              		.section	.text.ili93xx_display_on,"ax",%progbits
 937              		.align	2
 938              		.global	ili93xx_display_on
 939              		.thumb
 940              		.thumb_func
 942              	ili93xx_display_on:
 943              	.LFB193:
1102:../src/sam/components/display/ili93xx/ili93xx.c **** 
1103:../src/sam/components/display/ili93xx/ili93xx.c **** /**
1104:../src/sam/components/display/ili93xx/ili93xx.c ****  * \brief Turn on the LCD.
1105:../src/sam/components/display/ili93xx/ili93xx.c ****  */
1106:../src/sam/components/display/ili93xx/ili93xx.c **** void ili93xx_display_on(void)
1107:../src/sam/components/display/ili93xx/ili93xx.c **** {
 944              		.loc 1 1107 0
 945              		.cfi_startproc
 946              		@ args = 0, pretend = 0, frame = 0
 947              		@ frame_needed = 0, uses_anonymous_args = 0
 948 0000 08B5     		push	{r3, lr}
 949              		.cfi_def_cfa_offset 8
 950              		.cfi_offset 3, -8
 951              		.cfi_offset 14, -4
1108:../src/sam/components/display/ili93xx/ili93xx.c **** 	if (g_uc_device_type == DEVICE_TYPE_ILI9325) {
 952              		.loc 1 1108 0
 953 0002 084B     		ldr	r3, .L80
 954 0004 1B78     		ldrb	r3, [r3]	@ zero_extendqisi2
 955 0006 012B     		cmp	r3, #1
 956 0008 05D1     		bne	.L77
1109:../src/sam/components/display/ili93xx/ili93xx.c **** 		ili93xx_write_register_word(ILI9325_DISP_CTRL1,
 957              		.loc 1 1109 0
 958 000a 40F23311 		movw	r1, #307
 959 000e 0720     		movs	r0, #7
 960 0010 FFF7FEFF 		bl	ili93xx_write_register_word
 961              	.LVL97:
 962 0014 08BD     		pop	{r3, pc}
 963              	.L77:
1110:../src/sam/components/display/ili93xx/ili93xx.c **** 				ILI9325_DISP_CTRL1_BASEE |
1111:../src/sam/components/display/ili93xx/ili93xx.c **** 				ILI9325_DISP_CTRL1_GON |
1112:../src/sam/components/display/ili93xx/ili93xx.c **** 				ILI9325_DISP_CTRL1_DTE |
1113:../src/sam/components/display/ili93xx/ili93xx.c **** 				ILI9325_DISP_CTRL1_D(0x03));
1114:../src/sam/components/display/ili93xx/ili93xx.c **** 	} else if (g_uc_device_type == DEVICE_TYPE_ILI9341) {
 964              		.loc 1 1114 0
 965 0016 022B     		cmp	r3, #2
 966 0018 02D1     		bne	.L76
1115:../src/sam/components/display/ili93xx/ili93xx.c **** 	    ili9341_write_cmd(ILI9341_CMD_DISPLAY_ON);
 967              		.loc 1 1115 0
 968 001a 2920     		movs	r0, #41
 969 001c FFF7FEFF 		bl	ili9341_write_cmd
 970              	.LVL98:
 971              	.L76:
 972 0020 08BD     		pop	{r3, pc}
 973              	.L81:
 974 0022 00BF     		.align	2
 975              	.L80:
 976 0024 00000000 		.word	.LANCHOR2
 977              		.cfi_endproc
 978              	.LFE193:
 980              		.section	.text.ili93xx_display_off,"ax",%progbits
 981              		.align	2
 982              		.global	ili93xx_display_off
 983              		.thumb
 984              		.thumb_func
 986              	ili93xx_display_off:
 987              	.LFB194:
1116:../src/sam/components/display/ili93xx/ili93xx.c **** 	}
1117:../src/sam/components/display/ili93xx/ili93xx.c **** }
1118:../src/sam/components/display/ili93xx/ili93xx.c **** 
1119:../src/sam/components/display/ili93xx/ili93xx.c **** /**
1120:../src/sam/components/display/ili93xx/ili93xx.c ****  * \brief Turn off the LCD.
1121:../src/sam/components/display/ili93xx/ili93xx.c ****  */
1122:../src/sam/components/display/ili93xx/ili93xx.c **** void ili93xx_display_off(void)
1123:../src/sam/components/display/ili93xx/ili93xx.c **** {
 988              		.loc 1 1123 0
 989              		.cfi_startproc
 990              		@ args = 0, pretend = 0, frame = 0
 991              		@ frame_needed = 0, uses_anonymous_args = 0
 992 0000 08B5     		push	{r3, lr}
 993              		.cfi_def_cfa_offset 8
 994              		.cfi_offset 3, -8
 995              		.cfi_offset 14, -4
1124:../src/sam/components/display/ili93xx/ili93xx.c ****   if (g_uc_device_type == DEVICE_TYPE_ILI9325) {
 996              		.loc 1 1124 0
 997 0002 074B     		ldr	r3, .L86
 998 0004 1B78     		ldrb	r3, [r3]	@ zero_extendqisi2
 999 0006 012B     		cmp	r3, #1
 1000 0008 04D1     		bne	.L83
1125:../src/sam/components/display/ili93xx/ili93xx.c ****       ili93xx_write_register_word(ILI9325_DISP_CTRL1, 0x00);
 1001              		.loc 1 1125 0
 1002 000a 0021     		movs	r1, #0
 1003 000c 0720     		movs	r0, #7
 1004 000e FFF7FEFF 		bl	ili93xx_write_register_word
 1005              	.LVL99:
 1006 0012 08BD     		pop	{r3, pc}
 1007              	.L83:
1126:../src/sam/components/display/ili93xx/ili93xx.c ****   } else if (g_uc_device_type == DEVICE_TYPE_ILI9341) {
 1008              		.loc 1 1126 0
 1009 0014 022B     		cmp	r3, #2
 1010 0016 02D1     		bne	.L82
1127:../src/sam/components/display/ili93xx/ili93xx.c ****       ili9341_write_cmd(ILI9341_CMD_DISPLAY_OFF);
 1011              		.loc 1 1127 0
 1012 0018 2820     		movs	r0, #40
 1013 001a FFF7FEFF 		bl	ili9341_write_cmd
 1014              	.LVL100:
 1015              	.L82:
 1016 001e 08BD     		pop	{r3, pc}
 1017              	.L87:
 1018              		.align	2
 1019              	.L86:
 1020 0020 00000000 		.word	.LANCHOR2
 1021              		.cfi_endproc
 1022              	.LFE194:
 1024              		.section	.text.ili93xx_set_foreground_color,"ax",%progbits
 1025              		.align	2
 1026              		.global	ili93xx_set_foreground_color
 1027              		.thumb
 1028              		.thumb_func
 1030              	ili93xx_set_foreground_color:
 1031              	.LFB195:
1128:../src/sam/components/display/ili93xx/ili93xx.c **** //      ili93xx_write_register(ILI9341_CMD_DISPLAY_OFF, NULL, 0);
1129:../src/sam/components/display/ili93xx/ili93xx.c ****   }
1130:../src/sam/components/display/ili93xx/ili93xx.c **** }
1131:../src/sam/components/display/ili93xx/ili93xx.c **** 
1132:../src/sam/components/display/ili93xx/ili93xx.c **** 
1133:../src/sam/components/display/ili93xx/ili93xx.c **** /**
1134:../src/sam/components/display/ili93xx/ili93xx.c ****  * \brief Set foreground color.
1135:../src/sam/components/display/ili93xx/ili93xx.c ****  *
1136:../src/sam/components/display/ili93xx/ili93xx.c ****  * \param ul_color foreground color.
1137:../src/sam/components/display/ili93xx/ili93xx.c ****  */
1138:../src/sam/components/display/ili93xx/ili93xx.c **** void ili93xx_set_foreground_color(ili93xx_color_t ul_color)
1139:../src/sam/components/display/ili93xx/ili93xx.c **** {
 1032              		.loc 1 1139 0
 1033              		.cfi_startproc
 1034              		@ args = 0, pretend = 0, frame = 0
 1035              		@ frame_needed = 0, uses_anonymous_args = 0
 1036              		@ link register save eliminated.
 1037              	.LVL101:
1140:../src/sam/components/display/ili93xx/ili93xx.c ****   uint32_t i;
1141:../src/sam/components/display/ili93xx/ili93xx.c **** 
1142:../src/sam/components/display/ili93xx/ili93xx.c ****   /** Fill the cache with selected color */
1143:../src/sam/components/display/ili93xx/ili93xx.c ****   for (i = 0; i < LCD_DATA_CACHE_SIZE; ++i) {
 1038              		.loc 1 1143 0
 1039 0000 0023     		movs	r3, #0
 1040 0002 03E0     		b	.L89
 1041              	.LVL102:
 1042              	.L90:
1144:../src/sam/components/display/ili93xx/ili93xx.c ****       g_ul_pixel_cache[i] = ul_color;
 1043              		.loc 1 1144 0 discriminator 3
 1044 0004 034A     		ldr	r2, .L91
 1045 0006 22F81300 		strh	r0, [r2, r3, lsl #1]	@ movhi
1143:../src/sam/components/display/ili93xx/ili93xx.c ****       g_ul_pixel_cache[i] = ul_color;
 1046              		.loc 1 1143 0 discriminator 3
 1047 000a 0133     		adds	r3, r3, #1
 1048              	.LVL103:
 1049              	.L89:
1143:../src/sam/components/display/ili93xx/ili93xx.c ****       g_ul_pixel_cache[i] = ul_color;
 1050              		.loc 1 1143 0 is_stmt 0 discriminator 1
 1051 000c EF2B     		cmp	r3, #239
 1052 000e F9D9     		bls	.L90
1145:../src/sam/components/display/ili93xx/ili93xx.c ****   }
1146:../src/sam/components/display/ili93xx/ili93xx.c **** }
 1053              		.loc 1 1146 0 is_stmt 1
 1054 0010 7047     		bx	lr
 1055              	.L92:
 1056 0012 00BF     		.align	2
 1057              	.L91:
 1058 0014 00000000 		.word	.LANCHOR3
 1059              		.cfi_endproc
 1060              	.LFE195:
 1062              		.section	.text.ili93xx_set_window,"ax",%progbits
 1063              		.align	2
 1064              		.global	ili93xx_set_window
 1065              		.thumb
 1066              		.thumb_func
 1068              	ili93xx_set_window:
 1069              	.LFB197:
1147:../src/sam/components/display/ili93xx/ili93xx.c **** 
1148:../src/sam/components/display/ili93xx/ili93xx.c **** /**
1149:../src/sam/components/display/ili93xx/ili93xx.c ****  * \brief Fill the LCD buffer with the specified color.
1150:../src/sam/components/display/ili93xx/ili93xx.c ****  *
1151:../src/sam/components/display/ili93xx/ili93xx.c ****  * \param ul_color fill color.
1152:../src/sam/components/display/ili93xx/ili93xx.c ****  */
1153:../src/sam/components/display/ili93xx/ili93xx.c **** void ili93xx_fill(ili93xx_color_t ul_color)
1154:../src/sam/components/display/ili93xx/ili93xx.c **** {
1155:../src/sam/components/display/ili93xx/ili93xx.c **** 	uint32_t dw;
1156:../src/sam/components/display/ili93xx/ili93xx.c **** 	if (g_uc_device_type == DEVICE_TYPE_ILI9325) {
1157:../src/sam/components/display/ili93xx/ili93xx.c **** 		ili93xx_set_cursor_position(0, 0);
1158:../src/sam/components/display/ili93xx/ili93xx.c **** 	} else if (g_uc_device_type == DEVICE_TYPE_ILI9341) {
1159:../src/sam/components/display/ili93xx/ili93xx.c **** 		ili93xx_set_window(0, 0, g_ul_lcd_x_length, g_ul_lcd_y_length);
1160:../src/sam/components/display/ili93xx/ili93xx.c **** 	}
1161:../src/sam/components/display/ili93xx/ili93xx.c **** 
1162:../src/sam/components/display/ili93xx/ili93xx.c **** 	ili93xx_write_ram_prepare();
1163:../src/sam/components/display/ili93xx/ili93xx.c **** 
1164:../src/sam/components/display/ili93xx/ili93xx.c **** 	for (dw = ILI93XX_LCD_WIDTH * ILI93XX_LCD_HEIGHT; dw > 0; dw--) {
1165:../src/sam/components/display/ili93xx/ili93xx.c **** 		ili93xx_write_ram(ul_color);
1166:../src/sam/components/display/ili93xx/ili93xx.c **** 	}
1167:../src/sam/components/display/ili93xx/ili93xx.c **** }
1168:../src/sam/components/display/ili93xx/ili93xx.c **** 
1169:../src/sam/components/display/ili93xx/ili93xx.c **** /**
1170:../src/sam/components/display/ili93xx/ili93xx.c ****  * \brief Set display window.
1171:../src/sam/components/display/ili93xx/ili93xx.c ****  *
1172:../src/sam/components/display/ili93xx/ili93xx.c ****  * \param ul_x Horizontal address start position
1173:../src/sam/components/display/ili93xx/ili93xx.c ****  * \param ul_y Vertical address start position
1174:../src/sam/components/display/ili93xx/ili93xx.c ****  * \param ul_width The width of the window.
1175:../src/sam/components/display/ili93xx/ili93xx.c ****  * \param ul_height The height of the window.
1176:../src/sam/components/display/ili93xx/ili93xx.c ****  */
1177:../src/sam/components/display/ili93xx/ili93xx.c **** void ili93xx_set_window(uint32_t ul_x, uint32_t ul_y, uint32_t ul_width,
1178:../src/sam/components/display/ili93xx/ili93xx.c **** 		uint32_t ul_height)
1179:../src/sam/components/display/ili93xx/ili93xx.c **** {
 1070              		.loc 1 1179 0
 1071              		.cfi_startproc
 1072              		@ args = 0, pretend = 0, frame = 8
 1073              		@ frame_needed = 0, uses_anonymous_args = 0
 1074              	.LVL104:
 1075 0000 F0B5     		push	{r4, r5, r6, r7, lr}
 1076              		.cfi_def_cfa_offset 20
 1077              		.cfi_offset 4, -20
 1078              		.cfi_offset 5, -16
 1079              		.cfi_offset 6, -12
 1080              		.cfi_offset 7, -8
 1081              		.cfi_offset 14, -4
 1082 0002 83B0     		sub	sp, sp, #12
 1083              		.cfi_def_cfa_offset 32
 1084 0004 0C46     		mov	r4, r1
 1085 0006 1746     		mov	r7, r2
 1086 0008 1E46     		mov	r6, r3
1180:../src/sam/components/display/ili93xx/ili93xx.c **** 	Assert(ul_x <= (g_ul_lcd_x_length - 1));
1181:../src/sam/components/display/ili93xx/ili93xx.c **** 	Assert(ul_y <= (g_ul_lcd_y_length - 1));
1182:../src/sam/components/display/ili93xx/ili93xx.c **** 	Assert(ul_width <= (g_ul_lcd_x_length - ul_x));
1183:../src/sam/components/display/ili93xx/ili93xx.c **** 	Assert(ul_height <= (g_ul_lcd_y_length - ul_y));
1184:../src/sam/components/display/ili93xx/ili93xx.c **** 	if (g_uc_device_type == DEVICE_TYPE_ILI9325) {
 1087              		.loc 1 1184 0
 1088 000a 244B     		ldr	r3, .L97
 1089              	.LVL105:
 1090 000c 1B78     		ldrb	r3, [r3]	@ zero_extendqisi2
 1091 000e 012B     		cmp	r3, #1
 1092 0010 16D1     		bne	.L94
1185:../src/sam/components/display/ili93xx/ili93xx.c **** 		/** Set Horizontal Address Start Position */
1186:../src/sam/components/display/ili93xx/ili93xx.c **** 		ili93xx_write_register_word(ILI9325_HORIZONTAL_ADDR_START,
 1093              		.loc 1 1186 0
 1094 0012 85B2     		uxth	r5, r0
 1095 0014 2946     		mov	r1, r5
 1096              	.LVL106:
 1097 0016 5020     		movs	r0, #80
 1098              	.LVL107:
 1099 0018 FFF7FEFF 		bl	ili93xx_write_register_word
 1100              	.LVL108:
1187:../src/sam/components/display/ili93xx/ili93xx.c **** 				(uint16_t)ul_x);
1188:../src/sam/components/display/ili93xx/ili93xx.c **** 
1189:../src/sam/components/display/ili93xx/ili93xx.c **** 		/** Set Horizontal Address End Position */
1190:../src/sam/components/display/ili93xx/ili93xx.c **** 		ili93xx_write_register_word(ILI9325_HORIZONTAL_ADDR_END,
 1101              		.loc 1 1190 0
 1102 001c E819     		adds	r0, r5, r7
 1103 001e 411E     		subs	r1, r0, #1
 1104 0020 89B2     		uxth	r1, r1
 1105 0022 5120     		movs	r0, #81
 1106 0024 FFF7FEFF 		bl	ili93xx_write_register_word
 1107              	.LVL109:
1191:../src/sam/components/display/ili93xx/ili93xx.c **** 				(uint16_t)(ul_x + ul_width - 1));
1192:../src/sam/components/display/ili93xx/ili93xx.c **** 
1193:../src/sam/components/display/ili93xx/ili93xx.c **** 		/** Set Vertical Address Start Position */
1194:../src/sam/components/display/ili93xx/ili93xx.c **** 		ili93xx_write_register_word(ILI9325_VERTICAL_ADDR_START,
 1108              		.loc 1 1194 0
 1109 0028 A4B2     		uxth	r4, r4
 1110              	.LVL110:
 1111 002a 2146     		mov	r1, r4
 1112 002c 5220     		movs	r0, #82
 1113 002e FFF7FEFF 		bl	ili93xx_write_register_word
 1114              	.LVL111:
1195:../src/sam/components/display/ili93xx/ili93xx.c **** 				(uint16_t)ul_y);
1196:../src/sam/components/display/ili93xx/ili93xx.c **** 
1197:../src/sam/components/display/ili93xx/ili93xx.c **** 		/** Set Vertical Address End Position */
1198:../src/sam/components/display/ili93xx/ili93xx.c **** 		ili93xx_write_register_word(ILI9325_VERTICAL_ADDR_END,
 1115              		.loc 1 1198 0
 1116 0032 3444     		add	r4, r4, r6
 1117 0034 611E     		subs	r1, r4, #1
 1118 0036 89B2     		uxth	r1, r1
 1119 0038 5320     		movs	r0, #83
 1120 003a FFF7FEFF 		bl	ili93xx_write_register_word
 1121              	.LVL112:
 1122 003e 2BE0     		b	.L93
 1123              	.LVL113:
 1124              	.L94:
1199:../src/sam/components/display/ili93xx/ili93xx.c **** 				(uint16_t)(ul_y + ul_height - 1));
1200:../src/sam/components/display/ili93xx/ili93xx.c **** 	} else if (g_uc_device_type == DEVICE_TYPE_ILI9341) {
 1125              		.loc 1 1200 0
 1126 0040 022B     		cmp	r3, #2
 1127 0042 29D1     		bne	.L93
 1128              	.LBB28:
1201:../src/sam/components/display/ili93xx/ili93xx.c **** 		uint8_t paratable[4];
1202:../src/sam/components/display/ili93xx/ili93xx.c **** 
1203:../src/sam/components/display/ili93xx/ili93xx.c **** 		/** Set Column Address Position */
1204:../src/sam/components/display/ili93xx/ili93xx.c **** 		paratable[0] = (ul_x >> 8) & 0xFF;
 1129              		.loc 1 1204 0
 1130 0044 030A     		lsrs	r3, r0, #8
 1131 0046 8DF80430 		strb	r3, [sp, #4]
1205:../src/sam/components/display/ili93xx/ili93xx.c **** 		paratable[1] = ul_x & 0xFF;
 1132              		.loc 1 1205 0
 1133 004a C1B2     		uxtb	r1, r0
 1134              	.LVL114:
 1135 004c 8DF80510 		strb	r1, [sp, #5]
1206:../src/sam/components/display/ili93xx/ili93xx.c **** 		paratable[2] = ((ul_x + ul_width - 1) >> 8) & 0xFF;
 1136              		.loc 1 1206 0
 1137 0050 1044     		add	r0, r0, r2
 1138              	.LVL115:
 1139 0052 0138     		subs	r0, r0, #1
 1140 0054 000A     		lsrs	r0, r0, #8
 1141 0056 8DF80600 		strb	r0, [sp, #6]
1207:../src/sam/components/display/ili93xx/ili93xx.c **** 		paratable[3] = (ul_x + ul_width - 1) & 0xFF;
 1142              		.loc 1 1207 0
 1143 005a 8818     		adds	r0, r1, r2
 1144 005c 0138     		subs	r0, r0, #1
 1145 005e 8DF80700 		strb	r0, [sp, #7]
1208:../src/sam/components/display/ili93xx/ili93xx.c **** 		ili93xx_write_register_datas(ILI9341_CMD_COLUMN_ADDRESS_SET,
 1146              		.loc 1 1208 0
 1147 0062 0422     		movs	r2, #4
 1148              	.LVL116:
 1149 0064 0DEB0201 		add	r1, sp, r2
 1150 0068 2A20     		movs	r0, #42
 1151 006a FFF7FEFF 		bl	ili93xx_write_register_datas
 1152              	.LVL117:
1209:../src/sam/components/display/ili93xx/ili93xx.c **** 				paratable, 4);
1210:../src/sam/components/display/ili93xx/ili93xx.c **** 
1211:../src/sam/components/display/ili93xx/ili93xx.c **** 		/** Set Page Address Position */
1212:../src/sam/components/display/ili93xx/ili93xx.c **** 		paratable[0] = (ul_y >> 8) & 0xFF;
 1153              		.loc 1 1212 0
 1154 006e 230A     		lsrs	r3, r4, #8
 1155 0070 8DF80430 		strb	r3, [sp, #4]
1213:../src/sam/components/display/ili93xx/ili93xx.c **** 		paratable[1] = ul_y & 0xFF;
 1156              		.loc 1 1213 0
 1157 0074 E3B2     		uxtb	r3, r4
 1158 0076 8DF80530 		strb	r3, [sp, #5]
1214:../src/sam/components/display/ili93xx/ili93xx.c **** 		paratable[2] = ((ul_y + ul_height - 1) >> 8) & 0xFF;
 1159              		.loc 1 1214 0
 1160 007a 3444     		add	r4, r4, r6
 1161              	.LVL118:
 1162 007c 013C     		subs	r4, r4, #1
 1163 007e 240A     		lsrs	r4, r4, #8
 1164 0080 8DF80640 		strb	r4, [sp, #6]
1215:../src/sam/components/display/ili93xx/ili93xx.c **** 		paratable[3] = (ul_y + ul_height - 1) & 0xFF;
 1165              		.loc 1 1215 0
 1166 0084 1E44     		add	r6, r6, r3
 1167              	.LVL119:
 1168 0086 013E     		subs	r6, r6, #1
 1169 0088 8DF80760 		strb	r6, [sp, #7]
1216:../src/sam/components/display/ili93xx/ili93xx.c **** 		ili93xx_write_register_datas(ILI9341_CMD_PAGE_ADDRESS_SET,
 1170              		.loc 1 1216 0
 1171 008c 0422     		movs	r2, #4
 1172 008e 0DEB0201 		add	r1, sp, r2
 1173 0092 2B20     		movs	r0, #43
 1174 0094 FFF7FEFF 		bl	ili93xx_write_register_datas
 1175              	.LVL120:
 1176              	.L93:
 1177              	.LBE28:
1217:../src/sam/components/display/ili93xx/ili93xx.c **** 				       paratable, 4);
1218:../src/sam/components/display/ili93xx/ili93xx.c **** 	}
1219:../src/sam/components/display/ili93xx/ili93xx.c **** }
 1178              		.loc 1 1219 0
 1179 0098 03B0     		add	sp, sp, #12
 1180              		.cfi_def_cfa_offset 20
 1181              		@ sp needed
 1182 009a F0BD     		pop	{r4, r5, r6, r7, pc}
 1183              	.LVL121:
 1184              	.L98:
 1185              		.align	2
 1186              	.L97:
 1187 009c 00000000 		.word	.LANCHOR2
 1188              		.cfi_endproc
 1189              	.LFE197:
 1191              		.section	.text.ili93xx_init_w_spi,"ax",%progbits
 1192              		.align	2
 1193              		.global	ili93xx_init_w_spi
 1194              		.thumb
 1195              		.thumb_func
 1197              	ili93xx_init_w_spi:
 1198              	.LFB190:
 685:../src/sam/components/display/ili93xx/ili93xx.c ****   uint8_t paratable[6];
 1199              		.loc 1 685 0
 1200              		.cfi_startproc
 1201              		@ args = 0, pretend = 0, frame = 16
 1202              		@ frame_needed = 0, uses_anonymous_args = 0
 1203              	.LVL122:
 1204 0000 2DE9F043 		push	{r4, r5, r6, r7, r8, r9, lr}
 1205              		.cfi_def_cfa_offset 28
 1206              		.cfi_offset 4, -28
 1207              		.cfi_offset 5, -24
 1208              		.cfi_offset 6, -20
 1209              		.cfi_offset 7, -16
 1210              		.cfi_offset 8, -12
 1211              		.cfi_offset 9, -8
 1212              		.cfi_offset 14, -4
 1213 0004 87B0     		sub	sp, sp, #28
 1214              		.cfi_def_cfa_offset 56
 1215 0006 8146     		mov	r9, r0
 689:../src/sam/components/display/ili93xx/ili93xx.c **** 	// Board specific chip select configuration
 1216              		.loc 1 689 0
 1217 0008 0024     		movs	r4, #0
 1218 000a 0DF11808 		add	r8, sp, #24
 1219 000e 48F80C4D 		str	r4, [r8, #-12]!
 694:../src/sam/components/display/ili93xx/ili93xx.c **** 
 1220              		.loc 1 694 0
 1221 0012 0226     		movs	r6, #2
 1222 0014 6A4B     		ldr	r3, .L101
 1223 0016 1E70     		strb	r6, [r3]
 697:../src/sam/components/display/ili93xx/ili93xx.c ****     ili93xx_delay(2); /* wait for at least 2ms */
 1224              		.loc 1 697 0
 1225 0018 2046     		mov	r0, r4
 1226              	.LVL123:
 1227 001a FFF7FEFF 		bl	pio_set_pin_high
 1228              	.LVL124:
 698:../src/sam/components/display/ili93xx/ili93xx.c **** 
 1229              		.loc 1 698 0
 1230 001e 3046     		mov	r0, r6
 1231 0020 FFF7FEFF 		bl	ili93xx_delay
 1232              	.LVL125:
 700:../src/sam/components/display/ili93xx/ili93xx.c ****     ili93xx_delay(20); /* wait for at least 20ms */
 1233              		.loc 1 700 0
 1234 0024 2046     		mov	r0, r4
 1235 0026 FFF7FEFF 		bl	pio_set_pin_low
 1236              	.LVL126:
 701:../src/sam/components/display/ili93xx/ili93xx.c **** 
 1237              		.loc 1 701 0
 1238 002a 1420     		movs	r0, #20
 1239 002c FFF7FEFF 		bl	ili93xx_delay
 1240              	.LVL127:
 703:../src/sam/components/display/ili93xx/ili93xx.c ****     ili93xx_delay(50); /* wait for at least 50ms */
 1241              		.loc 1 703 0
 1242 0030 2046     		mov	r0, r4
 1243 0032 FFF7FEFF 		bl	pio_set_pin_high
 1244              	.LVL128:
 704:../src/sam/components/display/ili93xx/ili93xx.c **** 
 1245              		.loc 1 704 0
 1246 0036 3220     		movs	r0, #50
 1247 0038 FFF7FEFF 		bl	ili93xx_delay
 1248              	.LVL129:
 1249              	.LBB29:
 1250              	.LBB30:
 111:/home/bekeband/workspace/OLIMEX_Start/src/spi.h **** }
 112:/home/bekeband/workspace/OLIMEX_Start/src/spi.h **** 
 113:/home/bekeband/workspace/OLIMEX_Start/src/spi.h **** /**
 114:/home/bekeband/workspace/OLIMEX_Start/src/spi.h ****  * \brief Disable SPI.
 115:/home/bekeband/workspace/OLIMEX_Start/src/spi.h ****  *
 116:/home/bekeband/workspace/OLIMEX_Start/src/spi.h ****  * \note CS is de-asserted, which indicates that the last data is done, and user
 117:/home/bekeband/workspace/OLIMEX_Start/src/spi.h ****  * should check TX_EMPTY before disabling SPI.
 118:/home/bekeband/workspace/OLIMEX_Start/src/spi.h ****  *
 119:/home/bekeband/workspace/OLIMEX_Start/src/spi.h ****  * \param p_spi Pointer to an SPI instance.
 120:/home/bekeband/workspace/OLIMEX_Start/src/spi.h ****  */
 121:/home/bekeband/workspace/OLIMEX_Start/src/spi.h **** static inline void spi_disable(Spi *p_spi)
 122:/home/bekeband/workspace/OLIMEX_Start/src/spi.h **** {
 123:/home/bekeband/workspace/OLIMEX_Start/src/spi.h **** 	p_spi->SPI_CR = SPI_CR_SPIDIS;
 1251              		.loc 2 123 0
 1252 003c 614F     		ldr	r7, .L101+4
 1253 003e 3E60     		str	r6, [r7]
 1254              	.LVL130:
 1255              	.LBE30:
 1256              	.LBE29:
 1257              	.LBB31:
 1258              	.LBB32:
 100:/home/bekeband/workspace/OLIMEX_Start/src/spi.h **** }
 1259              		.loc 2 100 0
 1260 0040 8023     		movs	r3, #128
 1261 0042 3B60     		str	r3, [r7]
 1262              	.LVL131:
 1263              	.LBE32:
 1264              	.LBE31:
 1265              	.LBB33:
 1266              	.LBB34:
 124:/home/bekeband/workspace/OLIMEX_Start/src/spi.h **** }
 125:/home/bekeband/workspace/OLIMEX_Start/src/spi.h **** 
 126:/home/bekeband/workspace/OLIMEX_Start/src/spi.h **** /**
 127:/home/bekeband/workspace/OLIMEX_Start/src/spi.h ****  * \brief Issue a LASTXFER command.
 128:/home/bekeband/workspace/OLIMEX_Start/src/spi.h ****  *  The next transfer is the last transfer and after that CS is de-asserted.
 129:/home/bekeband/workspace/OLIMEX_Start/src/spi.h ****  *
 130:/home/bekeband/workspace/OLIMEX_Start/src/spi.h ****  * \param p_spi Pointer to an SPI instance.
 131:/home/bekeband/workspace/OLIMEX_Start/src/spi.h ****  */
 132:/home/bekeband/workspace/OLIMEX_Start/src/spi.h **** static inline void spi_set_lastxfer(Spi *p_spi)
 133:/home/bekeband/workspace/OLIMEX_Start/src/spi.h **** {
 134:/home/bekeband/workspace/OLIMEX_Start/src/spi.h **** 	p_spi->SPI_CR = SPI_CR_LASTXFER;
 1267              		.loc 2 134 0
 1268 0044 4FF08073 		mov	r3, #16777216
 1269 0048 3B60     		str	r3, [r7]
 1270              	.LVL132:
 1271              	.LBE34:
 1272              	.LBE33:
 1273              	.LBB35:
 1274              	.LBB36:
 1275              		.file 3 "/home/bekeband/workspace/OLIMEX_Start/src/core_cm3.h"
   1:/home/bekeband/workspace/OLIMEX_Start/src/core_cm3.h **** /**************************************************************************//**
   2:/home/bekeband/workspace/OLIMEX_Start/src/core_cm3.h ****  * @file     core_cm3.h
   3:/home/bekeband/workspace/OLIMEX_Start/src/core_cm3.h ****  * @brief    CMSIS Cortex-M3 Core Peripheral Access Layer Header File
   4:/home/bekeband/workspace/OLIMEX_Start/src/core_cm3.h ****  * @version  V4.00
   5:/home/bekeband/workspace/OLIMEX_Start/src/core_cm3.h ****  * @date     22. August 2014
   6:/home/bekeband/workspace/OLIMEX_Start/src/core_cm3.h ****  *
   7:/home/bekeband/workspace/OLIMEX_Start/src/core_cm3.h ****  * @note
   8:/home/bekeband/workspace/OLIMEX_Start/src/core_cm3.h ****  *
   9:/home/bekeband/workspace/OLIMEX_Start/src/core_cm3.h ****  ******************************************************************************/
  10:/home/bekeband/workspace/OLIMEX_Start/src/core_cm3.h **** /* Copyright (c) 2009 - 2014 ARM LIMITED
  11:/home/bekeband/workspace/OLIMEX_Start/src/core_cm3.h **** 
  12:/home/bekeband/workspace/OLIMEX_Start/src/core_cm3.h ****    All rights reserved.
  13:/home/bekeband/workspace/OLIMEX_Start/src/core_cm3.h ****    Redistribution and use in source and binary forms, with or without
  14:/home/bekeband/workspace/OLIMEX_Start/src/core_cm3.h ****    modification, are permitted provided that the following conditions are met:
  15:/home/bekeband/workspace/OLIMEX_Start/src/core_cm3.h ****    - Redistributions of source code must retain the above copyright
  16:/home/bekeband/workspace/OLIMEX_Start/src/core_cm3.h ****      notice, this list of conditions and the following disclaimer.
  17:/home/bekeband/workspace/OLIMEX_Start/src/core_cm3.h ****    - Redistributions in binary form must reproduce the above copyright
  18:/home/bekeband/workspace/OLIMEX_Start/src/core_cm3.h ****      notice, this list of conditions and the following disclaimer in the
  19:/home/bekeband/workspace/OLIMEX_Start/src/core_cm3.h ****      documentation and/or other materials provided with the distribution.
  20:/home/bekeband/workspace/OLIMEX_Start/src/core_cm3.h ****    - Neither the name of ARM nor the names of its contributors may be used
  21:/home/bekeband/workspace/OLIMEX_Start/src/core_cm3.h ****      to endorse or promote products derived from this software without
  22:/home/bekeband/workspace/OLIMEX_Start/src/core_cm3.h ****      specific prior written permission.
  23:/home/bekeband/workspace/OLIMEX_Start/src/core_cm3.h ****    *
  24:/home/bekeband/workspace/OLIMEX_Start/src/core_cm3.h ****    THIS SOFTWARE IS PROVIDED BY THE COPYRIGHT HOLDERS AND CONTRIBUTORS "AS IS"
  25:/home/bekeband/workspace/OLIMEX_Start/src/core_cm3.h ****    AND ANY EXPRESS OR IMPLIED WARRANTIES, INCLUDING, BUT NOT LIMITED TO, THE
  26:/home/bekeband/workspace/OLIMEX_Start/src/core_cm3.h ****    IMPLIED WARRANTIES OF MERCHANTABILITY AND FITNESS FOR A PARTICULAR PURPOSE
  27:/home/bekeband/workspace/OLIMEX_Start/src/core_cm3.h ****    ARE DISCLAIMED. IN NO EVENT SHALL COPYRIGHT HOLDERS AND CONTRIBUTORS BE
  28:/home/bekeband/workspace/OLIMEX_Start/src/core_cm3.h ****    LIABLE FOR ANY DIRECT, INDIRECT, INCIDENTAL, SPECIAL, EXEMPLARY, OR
  29:/home/bekeband/workspace/OLIMEX_Start/src/core_cm3.h ****    CONSEQUENTIAL DAMAGES (INCLUDING, BUT NOT LIMITED TO, PROCUREMENT OF
  30:/home/bekeband/workspace/OLIMEX_Start/src/core_cm3.h ****    SUBSTITUTE GOODS OR SERVICES; LOSS OF USE, DATA, OR PROFITS; OR BUSINESS
  31:/home/bekeband/workspace/OLIMEX_Start/src/core_cm3.h ****    INTERRUPTION) HOWEVER CAUSED AND ON ANY THEORY OF LIABILITY, WHETHER IN
  32:/home/bekeband/workspace/OLIMEX_Start/src/core_cm3.h ****    CONTRACT, STRICT LIABILITY, OR TORT (INCLUDING NEGLIGENCE OR OTHERWISE)
  33:/home/bekeband/workspace/OLIMEX_Start/src/core_cm3.h ****    ARISING IN ANY WAY OUT OF THE USE OF THIS SOFTWARE, EVEN IF ADVISED OF THE
  34:/home/bekeband/workspace/OLIMEX_Start/src/core_cm3.h ****    POSSIBILITY OF SUCH DAMAGE.
  35:/home/bekeband/workspace/OLIMEX_Start/src/core_cm3.h ****    ---------------------------------------------------------------------------*/
  36:/home/bekeband/workspace/OLIMEX_Start/src/core_cm3.h **** 
  37:/home/bekeband/workspace/OLIMEX_Start/src/core_cm3.h **** 
  38:/home/bekeband/workspace/OLIMEX_Start/src/core_cm3.h **** #if defined ( __ICCARM__ )
  39:/home/bekeband/workspace/OLIMEX_Start/src/core_cm3.h ****  #pragma system_include  /* treat file as system include file for MISRA check */
  40:/home/bekeband/workspace/OLIMEX_Start/src/core_cm3.h **** #endif
  41:/home/bekeband/workspace/OLIMEX_Start/src/core_cm3.h **** 
  42:/home/bekeband/workspace/OLIMEX_Start/src/core_cm3.h **** #ifndef __CORE_CM3_H_GENERIC
  43:/home/bekeband/workspace/OLIMEX_Start/src/core_cm3.h **** #define __CORE_CM3_H_GENERIC
  44:/home/bekeband/workspace/OLIMEX_Start/src/core_cm3.h **** 
  45:/home/bekeband/workspace/OLIMEX_Start/src/core_cm3.h **** #ifdef __cplusplus
  46:/home/bekeband/workspace/OLIMEX_Start/src/core_cm3.h ****  extern "C" {
  47:/home/bekeband/workspace/OLIMEX_Start/src/core_cm3.h **** #endif
  48:/home/bekeband/workspace/OLIMEX_Start/src/core_cm3.h **** 
  49:/home/bekeband/workspace/OLIMEX_Start/src/core_cm3.h **** /** \page CMSIS_MISRA_Exceptions  MISRA-C:2004 Compliance Exceptions
  50:/home/bekeband/workspace/OLIMEX_Start/src/core_cm3.h ****   CMSIS violates the following MISRA-C:2004 rules:
  51:/home/bekeband/workspace/OLIMEX_Start/src/core_cm3.h **** 
  52:/home/bekeband/workspace/OLIMEX_Start/src/core_cm3.h ****    \li Required Rule 8.5, object/function definition in header file.<br>
  53:/home/bekeband/workspace/OLIMEX_Start/src/core_cm3.h ****      Function definitions in header files are used to allow 'inlining'.
  54:/home/bekeband/workspace/OLIMEX_Start/src/core_cm3.h **** 
  55:/home/bekeband/workspace/OLIMEX_Start/src/core_cm3.h ****    \li Required Rule 18.4, declaration of union type or object of union type: '{...}'.<br>
  56:/home/bekeband/workspace/OLIMEX_Start/src/core_cm3.h ****      Unions are used for effective representation of core registers.
  57:/home/bekeband/workspace/OLIMEX_Start/src/core_cm3.h **** 
  58:/home/bekeband/workspace/OLIMEX_Start/src/core_cm3.h ****    \li Advisory Rule 19.7, Function-like macro defined.<br>
  59:/home/bekeband/workspace/OLIMEX_Start/src/core_cm3.h ****      Function-like macros are used to allow more efficient code.
  60:/home/bekeband/workspace/OLIMEX_Start/src/core_cm3.h ****  */
  61:/home/bekeband/workspace/OLIMEX_Start/src/core_cm3.h **** 
  62:/home/bekeband/workspace/OLIMEX_Start/src/core_cm3.h **** 
  63:/home/bekeband/workspace/OLIMEX_Start/src/core_cm3.h **** /*******************************************************************************
  64:/home/bekeband/workspace/OLIMEX_Start/src/core_cm3.h ****  *                 CMSIS definitions
  65:/home/bekeband/workspace/OLIMEX_Start/src/core_cm3.h ****  ******************************************************************************/
  66:/home/bekeband/workspace/OLIMEX_Start/src/core_cm3.h **** /** \ingroup Cortex_M3
  67:/home/bekeband/workspace/OLIMEX_Start/src/core_cm3.h ****   @{
  68:/home/bekeband/workspace/OLIMEX_Start/src/core_cm3.h ****  */
  69:/home/bekeband/workspace/OLIMEX_Start/src/core_cm3.h **** 
  70:/home/bekeband/workspace/OLIMEX_Start/src/core_cm3.h **** /*  CMSIS CM3 definitions */
  71:/home/bekeband/workspace/OLIMEX_Start/src/core_cm3.h **** #define __CM3_CMSIS_VERSION_MAIN  (0x04)                                   /*!< [31:16] CMSIS HAL m
  72:/home/bekeband/workspace/OLIMEX_Start/src/core_cm3.h **** #define __CM3_CMSIS_VERSION_SUB   (0x00)                                   /*!< [15:0]  CMSIS HAL s
  73:/home/bekeband/workspace/OLIMEX_Start/src/core_cm3.h **** #define __CM3_CMSIS_VERSION       ((__CM3_CMSIS_VERSION_MAIN << 16) | \
  74:/home/bekeband/workspace/OLIMEX_Start/src/core_cm3.h ****                                     __CM3_CMSIS_VERSION_SUB          )     /*!< CMSIS HAL version n
  75:/home/bekeband/workspace/OLIMEX_Start/src/core_cm3.h **** 
  76:/home/bekeband/workspace/OLIMEX_Start/src/core_cm3.h **** #define __CORTEX_M                (0x03)                                   /*!< Cortex-M Core      
  77:/home/bekeband/workspace/OLIMEX_Start/src/core_cm3.h **** 
  78:/home/bekeband/workspace/OLIMEX_Start/src/core_cm3.h **** 
  79:/home/bekeband/workspace/OLIMEX_Start/src/core_cm3.h **** #if   defined ( __CC_ARM )
  80:/home/bekeband/workspace/OLIMEX_Start/src/core_cm3.h ****   #define __ASM            __asm                                      /*!< asm keyword for ARM Comp
  81:/home/bekeband/workspace/OLIMEX_Start/src/core_cm3.h ****   #define __INLINE         __inline                                   /*!< inline keyword for ARM C
  82:/home/bekeband/workspace/OLIMEX_Start/src/core_cm3.h ****   #define __STATIC_INLINE  static __inline
  83:/home/bekeband/workspace/OLIMEX_Start/src/core_cm3.h **** 
  84:/home/bekeband/workspace/OLIMEX_Start/src/core_cm3.h **** #elif defined ( __GNUC__ )
  85:/home/bekeband/workspace/OLIMEX_Start/src/core_cm3.h ****   #define __ASM            __asm                                      /*!< asm keyword for GNU Comp
  86:/home/bekeband/workspace/OLIMEX_Start/src/core_cm3.h ****   #define __INLINE         inline                                     /*!< inline keyword for GNU C
  87:/home/bekeband/workspace/OLIMEX_Start/src/core_cm3.h ****   #define __STATIC_INLINE  static inline
  88:/home/bekeband/workspace/OLIMEX_Start/src/core_cm3.h **** 
  89:/home/bekeband/workspace/OLIMEX_Start/src/core_cm3.h **** #elif defined ( __ICCARM__ )
  90:/home/bekeband/workspace/OLIMEX_Start/src/core_cm3.h ****   #define __ASM            __asm                                      /*!< asm keyword for IAR Comp
  91:/home/bekeband/workspace/OLIMEX_Start/src/core_cm3.h ****   #define __INLINE         inline                                     /*!< inline keyword for IAR C
  92:/home/bekeband/workspace/OLIMEX_Start/src/core_cm3.h ****   #define __STATIC_INLINE  static inline
  93:/home/bekeband/workspace/OLIMEX_Start/src/core_cm3.h **** 
  94:/home/bekeband/workspace/OLIMEX_Start/src/core_cm3.h **** #elif defined ( __TMS470__ )
  95:/home/bekeband/workspace/OLIMEX_Start/src/core_cm3.h ****   #define __ASM            __asm                                      /*!< asm keyword for TI CCS C
  96:/home/bekeband/workspace/OLIMEX_Start/src/core_cm3.h ****   #define __STATIC_INLINE  static inline
  97:/home/bekeband/workspace/OLIMEX_Start/src/core_cm3.h **** 
  98:/home/bekeband/workspace/OLIMEX_Start/src/core_cm3.h **** #elif defined ( __TASKING__ )
  99:/home/bekeband/workspace/OLIMEX_Start/src/core_cm3.h ****   #define __ASM            __asm                                      /*!< asm keyword for TASKING 
 100:/home/bekeband/workspace/OLIMEX_Start/src/core_cm3.h ****   #define __INLINE         inline                                     /*!< inline keyword for TASKI
 101:/home/bekeband/workspace/OLIMEX_Start/src/core_cm3.h ****   #define __STATIC_INLINE  static inline
 102:/home/bekeband/workspace/OLIMEX_Start/src/core_cm3.h **** 
 103:/home/bekeband/workspace/OLIMEX_Start/src/core_cm3.h **** #elif defined ( __CSMC__ )
 104:/home/bekeband/workspace/OLIMEX_Start/src/core_cm3.h ****   #define __packed
 105:/home/bekeband/workspace/OLIMEX_Start/src/core_cm3.h ****   #define __ASM            _asm                                      /*!< asm keyword for COSMIC Co
 106:/home/bekeband/workspace/OLIMEX_Start/src/core_cm3.h ****   #define __INLINE         inline                                    /*use -pc99 on compile line !<
 107:/home/bekeband/workspace/OLIMEX_Start/src/core_cm3.h ****   #define __STATIC_INLINE  static inline
 108:/home/bekeband/workspace/OLIMEX_Start/src/core_cm3.h **** 
 109:/home/bekeband/workspace/OLIMEX_Start/src/core_cm3.h **** #endif
 110:/home/bekeband/workspace/OLIMEX_Start/src/core_cm3.h **** 
 111:/home/bekeband/workspace/OLIMEX_Start/src/core_cm3.h **** /** __FPU_USED indicates whether an FPU is used or not.
 112:/home/bekeband/workspace/OLIMEX_Start/src/core_cm3.h ****     This core does not support an FPU at all
 113:/home/bekeband/workspace/OLIMEX_Start/src/core_cm3.h **** */
 114:/home/bekeband/workspace/OLIMEX_Start/src/core_cm3.h **** #define __FPU_USED       0
 115:/home/bekeband/workspace/OLIMEX_Start/src/core_cm3.h **** 
 116:/home/bekeband/workspace/OLIMEX_Start/src/core_cm3.h **** #if defined ( __CC_ARM )
 117:/home/bekeband/workspace/OLIMEX_Start/src/core_cm3.h ****   #if defined __TARGET_FPU_VFP
 118:/home/bekeband/workspace/OLIMEX_Start/src/core_cm3.h ****     #warning "Compiler generates FPU instructions for a device without an FPU (check __FPU_PRESENT)
 119:/home/bekeband/workspace/OLIMEX_Start/src/core_cm3.h ****   #endif
 120:/home/bekeband/workspace/OLIMEX_Start/src/core_cm3.h **** 
 121:/home/bekeband/workspace/OLIMEX_Start/src/core_cm3.h **** #elif defined ( __GNUC__ )
 122:/home/bekeband/workspace/OLIMEX_Start/src/core_cm3.h ****   #if defined (__VFP_FP__) && !defined(__SOFTFP__)
 123:/home/bekeband/workspace/OLIMEX_Start/src/core_cm3.h ****     #warning "Compiler generates FPU instructions for a device without an FPU (check __FPU_PRESENT)
 124:/home/bekeband/workspace/OLIMEX_Start/src/core_cm3.h ****   #endif
 125:/home/bekeband/workspace/OLIMEX_Start/src/core_cm3.h **** 
 126:/home/bekeband/workspace/OLIMEX_Start/src/core_cm3.h **** #elif defined ( __ICCARM__ )
 127:/home/bekeband/workspace/OLIMEX_Start/src/core_cm3.h ****   #if defined __ARMVFP__
 128:/home/bekeband/workspace/OLIMEX_Start/src/core_cm3.h ****     #warning "Compiler generates FPU instructions for a device without an FPU (check __FPU_PRESENT)
 129:/home/bekeband/workspace/OLIMEX_Start/src/core_cm3.h ****   #endif
 130:/home/bekeband/workspace/OLIMEX_Start/src/core_cm3.h **** 
 131:/home/bekeband/workspace/OLIMEX_Start/src/core_cm3.h **** #elif defined ( __TMS470__ )
 132:/home/bekeband/workspace/OLIMEX_Start/src/core_cm3.h ****   #if defined __TI__VFP_SUPPORT____
 133:/home/bekeband/workspace/OLIMEX_Start/src/core_cm3.h ****     #warning "Compiler generates FPU instructions for a device without an FPU (check __FPU_PRESENT)
 134:/home/bekeband/workspace/OLIMEX_Start/src/core_cm3.h ****   #endif
 135:/home/bekeband/workspace/OLIMEX_Start/src/core_cm3.h **** 
 136:/home/bekeband/workspace/OLIMEX_Start/src/core_cm3.h **** #elif defined ( __TASKING__ )
 137:/home/bekeband/workspace/OLIMEX_Start/src/core_cm3.h ****   #if defined __FPU_VFP__
 138:/home/bekeband/workspace/OLIMEX_Start/src/core_cm3.h ****     #error "Compiler generates FPU instructions for a device without an FPU (check __FPU_PRESENT)"
 139:/home/bekeband/workspace/OLIMEX_Start/src/core_cm3.h ****   #endif
 140:/home/bekeband/workspace/OLIMEX_Start/src/core_cm3.h **** 
 141:/home/bekeband/workspace/OLIMEX_Start/src/core_cm3.h **** #elif defined ( __CSMC__ )		/* Cosmic */
 142:/home/bekeband/workspace/OLIMEX_Start/src/core_cm3.h ****   #if ( __CSMC__ & 0x400)		// FPU present for parser
 143:/home/bekeband/workspace/OLIMEX_Start/src/core_cm3.h ****     #error "Compiler generates FPU instructions for a device without an FPU (check __FPU_PRESENT)"
 144:/home/bekeband/workspace/OLIMEX_Start/src/core_cm3.h ****   #endif
 145:/home/bekeband/workspace/OLIMEX_Start/src/core_cm3.h **** #endif
 146:/home/bekeband/workspace/OLIMEX_Start/src/core_cm3.h **** 
 147:/home/bekeband/workspace/OLIMEX_Start/src/core_cm3.h **** #include <stdint.h>                      /* standard types definitions                      */
 148:/home/bekeband/workspace/OLIMEX_Start/src/core_cm3.h **** #include <core_cmInstr.h>                /* Core Instruction Access                         */
 149:/home/bekeband/workspace/OLIMEX_Start/src/core_cm3.h **** #include <core_cmFunc.h>                 /* Core Function Access                            */
 150:/home/bekeband/workspace/OLIMEX_Start/src/core_cm3.h **** 
 151:/home/bekeband/workspace/OLIMEX_Start/src/core_cm3.h **** #ifdef __cplusplus
 152:/home/bekeband/workspace/OLIMEX_Start/src/core_cm3.h **** }
 153:/home/bekeband/workspace/OLIMEX_Start/src/core_cm3.h **** #endif
 154:/home/bekeband/workspace/OLIMEX_Start/src/core_cm3.h **** 
 155:/home/bekeband/workspace/OLIMEX_Start/src/core_cm3.h **** #endif /* __CORE_CM3_H_GENERIC */
 156:/home/bekeband/workspace/OLIMEX_Start/src/core_cm3.h **** 
 157:/home/bekeband/workspace/OLIMEX_Start/src/core_cm3.h **** #ifndef __CMSIS_GENERIC
 158:/home/bekeband/workspace/OLIMEX_Start/src/core_cm3.h **** 
 159:/home/bekeband/workspace/OLIMEX_Start/src/core_cm3.h **** #ifndef __CORE_CM3_H_DEPENDANT
 160:/home/bekeband/workspace/OLIMEX_Start/src/core_cm3.h **** #define __CORE_CM3_H_DEPENDANT
 161:/home/bekeband/workspace/OLIMEX_Start/src/core_cm3.h **** 
 162:/home/bekeband/workspace/OLIMEX_Start/src/core_cm3.h **** #ifdef __cplusplus
 163:/home/bekeband/workspace/OLIMEX_Start/src/core_cm3.h ****  extern "C" {
 164:/home/bekeband/workspace/OLIMEX_Start/src/core_cm3.h **** #endif
 165:/home/bekeband/workspace/OLIMEX_Start/src/core_cm3.h **** 
 166:/home/bekeband/workspace/OLIMEX_Start/src/core_cm3.h **** /* check device defines and use defaults */
 167:/home/bekeband/workspace/OLIMEX_Start/src/core_cm3.h **** #if defined __CHECK_DEVICE_DEFINES
 168:/home/bekeband/workspace/OLIMEX_Start/src/core_cm3.h ****   #ifndef __CM3_REV
 169:/home/bekeband/workspace/OLIMEX_Start/src/core_cm3.h ****     #define __CM3_REV               0x0200
 170:/home/bekeband/workspace/OLIMEX_Start/src/core_cm3.h ****     #warning "__CM3_REV not defined in device header file; using default!"
 171:/home/bekeband/workspace/OLIMEX_Start/src/core_cm3.h ****   #endif
 172:/home/bekeband/workspace/OLIMEX_Start/src/core_cm3.h **** 
 173:/home/bekeband/workspace/OLIMEX_Start/src/core_cm3.h ****   #ifndef __MPU_PRESENT
 174:/home/bekeband/workspace/OLIMEX_Start/src/core_cm3.h ****     #define __MPU_PRESENT             0
 175:/home/bekeband/workspace/OLIMEX_Start/src/core_cm3.h ****     #warning "__MPU_PRESENT not defined in device header file; using default!"
 176:/home/bekeband/workspace/OLIMEX_Start/src/core_cm3.h ****   #endif
 177:/home/bekeband/workspace/OLIMEX_Start/src/core_cm3.h **** 
 178:/home/bekeband/workspace/OLIMEX_Start/src/core_cm3.h ****   #ifndef __NVIC_PRIO_BITS
 179:/home/bekeband/workspace/OLIMEX_Start/src/core_cm3.h ****     #define __NVIC_PRIO_BITS          4
 180:/home/bekeband/workspace/OLIMEX_Start/src/core_cm3.h ****     #warning "__NVIC_PRIO_BITS not defined in device header file; using default!"
 181:/home/bekeband/workspace/OLIMEX_Start/src/core_cm3.h ****   #endif
 182:/home/bekeband/workspace/OLIMEX_Start/src/core_cm3.h **** 
 183:/home/bekeband/workspace/OLIMEX_Start/src/core_cm3.h ****   #ifndef __Vendor_SysTickConfig
 184:/home/bekeband/workspace/OLIMEX_Start/src/core_cm3.h ****     #define __Vendor_SysTickConfig    0
 185:/home/bekeband/workspace/OLIMEX_Start/src/core_cm3.h ****     #warning "__Vendor_SysTickConfig not defined in device header file; using default!"
 186:/home/bekeband/workspace/OLIMEX_Start/src/core_cm3.h ****   #endif
 187:/home/bekeband/workspace/OLIMEX_Start/src/core_cm3.h **** #endif
 188:/home/bekeband/workspace/OLIMEX_Start/src/core_cm3.h **** 
 189:/home/bekeband/workspace/OLIMEX_Start/src/core_cm3.h **** /* IO definitions (access restrictions to peripheral registers) */
 190:/home/bekeband/workspace/OLIMEX_Start/src/core_cm3.h **** /**
 191:/home/bekeband/workspace/OLIMEX_Start/src/core_cm3.h ****     \defgroup CMSIS_glob_defs CMSIS Global Defines
 192:/home/bekeband/workspace/OLIMEX_Start/src/core_cm3.h **** 
 193:/home/bekeband/workspace/OLIMEX_Start/src/core_cm3.h ****     <strong>IO Type Qualifiers</strong> are used
 194:/home/bekeband/workspace/OLIMEX_Start/src/core_cm3.h ****     \li to specify the access to peripheral variables.
 195:/home/bekeband/workspace/OLIMEX_Start/src/core_cm3.h ****     \li for automatic generation of peripheral register debug information.
 196:/home/bekeband/workspace/OLIMEX_Start/src/core_cm3.h **** */
 197:/home/bekeband/workspace/OLIMEX_Start/src/core_cm3.h **** #ifdef __cplusplus
 198:/home/bekeband/workspace/OLIMEX_Start/src/core_cm3.h ****   #define   __I     volatile             /*!< Defines 'read only' permissions                 */
 199:/home/bekeband/workspace/OLIMEX_Start/src/core_cm3.h **** #else
 200:/home/bekeband/workspace/OLIMEX_Start/src/core_cm3.h ****   #define   __I     volatile const       /*!< Defines 'read only' permissions                 */
 201:/home/bekeband/workspace/OLIMEX_Start/src/core_cm3.h **** #endif
 202:/home/bekeband/workspace/OLIMEX_Start/src/core_cm3.h **** #define     __O     volatile             /*!< Defines 'write only' permissions                */
 203:/home/bekeband/workspace/OLIMEX_Start/src/core_cm3.h **** #define     __IO    volatile             /*!< Defines 'read / write' permissions              */
 204:/home/bekeband/workspace/OLIMEX_Start/src/core_cm3.h **** 
 205:/home/bekeband/workspace/OLIMEX_Start/src/core_cm3.h **** /*@} end of group Cortex_M3 */
 206:/home/bekeband/workspace/OLIMEX_Start/src/core_cm3.h **** 
 207:/home/bekeband/workspace/OLIMEX_Start/src/core_cm3.h **** 
 208:/home/bekeband/workspace/OLIMEX_Start/src/core_cm3.h **** 
 209:/home/bekeband/workspace/OLIMEX_Start/src/core_cm3.h **** /*******************************************************************************
 210:/home/bekeband/workspace/OLIMEX_Start/src/core_cm3.h ****  *                 Register Abstraction
 211:/home/bekeband/workspace/OLIMEX_Start/src/core_cm3.h ****   Core Register contain:
 212:/home/bekeband/workspace/OLIMEX_Start/src/core_cm3.h ****   - Core Register
 213:/home/bekeband/workspace/OLIMEX_Start/src/core_cm3.h ****   - Core NVIC Register
 214:/home/bekeband/workspace/OLIMEX_Start/src/core_cm3.h ****   - Core SCB Register
 215:/home/bekeband/workspace/OLIMEX_Start/src/core_cm3.h ****   - Core SysTick Register
 216:/home/bekeband/workspace/OLIMEX_Start/src/core_cm3.h ****   - Core Debug Register
 217:/home/bekeband/workspace/OLIMEX_Start/src/core_cm3.h ****   - Core MPU Register
 218:/home/bekeband/workspace/OLIMEX_Start/src/core_cm3.h ****  ******************************************************************************/
 219:/home/bekeband/workspace/OLIMEX_Start/src/core_cm3.h **** /** \defgroup CMSIS_core_register Defines and Type Definitions
 220:/home/bekeband/workspace/OLIMEX_Start/src/core_cm3.h ****     \brief Type definitions and defines for Cortex-M processor based devices.
 221:/home/bekeband/workspace/OLIMEX_Start/src/core_cm3.h **** */
 222:/home/bekeband/workspace/OLIMEX_Start/src/core_cm3.h **** 
 223:/home/bekeband/workspace/OLIMEX_Start/src/core_cm3.h **** /** \ingroup    CMSIS_core_register
 224:/home/bekeband/workspace/OLIMEX_Start/src/core_cm3.h ****     \defgroup   CMSIS_CORE  Status and Control Registers
 225:/home/bekeband/workspace/OLIMEX_Start/src/core_cm3.h ****     \brief  Core Register type definitions.
 226:/home/bekeband/workspace/OLIMEX_Start/src/core_cm3.h ****   @{
 227:/home/bekeband/workspace/OLIMEX_Start/src/core_cm3.h ****  */
 228:/home/bekeband/workspace/OLIMEX_Start/src/core_cm3.h **** 
 229:/home/bekeband/workspace/OLIMEX_Start/src/core_cm3.h **** /** \brief  Union type to access the Application Program Status Register (APSR).
 230:/home/bekeband/workspace/OLIMEX_Start/src/core_cm3.h ****  */
 231:/home/bekeband/workspace/OLIMEX_Start/src/core_cm3.h **** typedef union
 232:/home/bekeband/workspace/OLIMEX_Start/src/core_cm3.h **** {
 233:/home/bekeband/workspace/OLIMEX_Start/src/core_cm3.h ****   struct
 234:/home/bekeband/workspace/OLIMEX_Start/src/core_cm3.h ****   {
 235:/home/bekeband/workspace/OLIMEX_Start/src/core_cm3.h **** #if (__CORTEX_M != 0x04)
 236:/home/bekeband/workspace/OLIMEX_Start/src/core_cm3.h ****     uint32_t _reserved0:27;              /*!< bit:  0..26  Reserved                           */
 237:/home/bekeband/workspace/OLIMEX_Start/src/core_cm3.h **** #else
 238:/home/bekeband/workspace/OLIMEX_Start/src/core_cm3.h ****     uint32_t _reserved0:16;              /*!< bit:  0..15  Reserved                           */
 239:/home/bekeband/workspace/OLIMEX_Start/src/core_cm3.h ****     uint32_t GE:4;                       /*!< bit: 16..19  Greater than or Equal flags        */
 240:/home/bekeband/workspace/OLIMEX_Start/src/core_cm3.h ****     uint32_t _reserved1:7;               /*!< bit: 20..26  Reserved                           */
 241:/home/bekeband/workspace/OLIMEX_Start/src/core_cm3.h **** #endif
 242:/home/bekeband/workspace/OLIMEX_Start/src/core_cm3.h ****     uint32_t Q:1;                        /*!< bit:     27  Saturation condition flag          */
 243:/home/bekeband/workspace/OLIMEX_Start/src/core_cm3.h ****     uint32_t V:1;                        /*!< bit:     28  Overflow condition code flag       */
 244:/home/bekeband/workspace/OLIMEX_Start/src/core_cm3.h ****     uint32_t C:1;                        /*!< bit:     29  Carry condition code flag          */
 245:/home/bekeband/workspace/OLIMEX_Start/src/core_cm3.h ****     uint32_t Z:1;                        /*!< bit:     30  Zero condition code flag           */
 246:/home/bekeband/workspace/OLIMEX_Start/src/core_cm3.h ****     uint32_t N:1;                        /*!< bit:     31  Negative condition code flag       */
 247:/home/bekeband/workspace/OLIMEX_Start/src/core_cm3.h ****   } b;                                   /*!< Structure used for bit  access                  */
 248:/home/bekeband/workspace/OLIMEX_Start/src/core_cm3.h ****   uint32_t w;                            /*!< Type      used for word access                  */
 249:/home/bekeband/workspace/OLIMEX_Start/src/core_cm3.h **** } APSR_Type;
 250:/home/bekeband/workspace/OLIMEX_Start/src/core_cm3.h **** 
 251:/home/bekeband/workspace/OLIMEX_Start/src/core_cm3.h **** 
 252:/home/bekeband/workspace/OLIMEX_Start/src/core_cm3.h **** /** \brief  Union type to access the Interrupt Program Status Register (IPSR).
 253:/home/bekeband/workspace/OLIMEX_Start/src/core_cm3.h ****  */
 254:/home/bekeband/workspace/OLIMEX_Start/src/core_cm3.h **** typedef union
 255:/home/bekeband/workspace/OLIMEX_Start/src/core_cm3.h **** {
 256:/home/bekeband/workspace/OLIMEX_Start/src/core_cm3.h ****   struct
 257:/home/bekeband/workspace/OLIMEX_Start/src/core_cm3.h ****   {
 258:/home/bekeband/workspace/OLIMEX_Start/src/core_cm3.h ****     uint32_t ISR:9;                      /*!< bit:  0.. 8  Exception number                   */
 259:/home/bekeband/workspace/OLIMEX_Start/src/core_cm3.h ****     uint32_t _reserved0:23;              /*!< bit:  9..31  Reserved                           */
 260:/home/bekeband/workspace/OLIMEX_Start/src/core_cm3.h ****   } b;                                   /*!< Structure used for bit  access                  */
 261:/home/bekeband/workspace/OLIMEX_Start/src/core_cm3.h ****   uint32_t w;                            /*!< Type      used for word access                  */
 262:/home/bekeband/workspace/OLIMEX_Start/src/core_cm3.h **** } IPSR_Type;
 263:/home/bekeband/workspace/OLIMEX_Start/src/core_cm3.h **** 
 264:/home/bekeband/workspace/OLIMEX_Start/src/core_cm3.h **** 
 265:/home/bekeband/workspace/OLIMEX_Start/src/core_cm3.h **** /** \brief  Union type to access the Special-Purpose Program Status Registers (xPSR).
 266:/home/bekeband/workspace/OLIMEX_Start/src/core_cm3.h ****  */
 267:/home/bekeband/workspace/OLIMEX_Start/src/core_cm3.h **** typedef union
 268:/home/bekeband/workspace/OLIMEX_Start/src/core_cm3.h **** {
 269:/home/bekeband/workspace/OLIMEX_Start/src/core_cm3.h ****   struct
 270:/home/bekeband/workspace/OLIMEX_Start/src/core_cm3.h ****   {
 271:/home/bekeband/workspace/OLIMEX_Start/src/core_cm3.h ****     uint32_t ISR:9;                      /*!< bit:  0.. 8  Exception number                   */
 272:/home/bekeband/workspace/OLIMEX_Start/src/core_cm3.h **** #if (__CORTEX_M != 0x04)
 273:/home/bekeband/workspace/OLIMEX_Start/src/core_cm3.h ****     uint32_t _reserved0:15;              /*!< bit:  9..23  Reserved                           */
 274:/home/bekeband/workspace/OLIMEX_Start/src/core_cm3.h **** #else
 275:/home/bekeband/workspace/OLIMEX_Start/src/core_cm3.h ****     uint32_t _reserved0:7;               /*!< bit:  9..15  Reserved                           */
 276:/home/bekeband/workspace/OLIMEX_Start/src/core_cm3.h ****     uint32_t GE:4;                       /*!< bit: 16..19  Greater than or Equal flags        */
 277:/home/bekeband/workspace/OLIMEX_Start/src/core_cm3.h ****     uint32_t _reserved1:4;               /*!< bit: 20..23  Reserved                           */
 278:/home/bekeband/workspace/OLIMEX_Start/src/core_cm3.h **** #endif
 279:/home/bekeband/workspace/OLIMEX_Start/src/core_cm3.h ****     uint32_t T:1;                        /*!< bit:     24  Thumb bit        (read 0)          */
 280:/home/bekeband/workspace/OLIMEX_Start/src/core_cm3.h ****     uint32_t IT:2;                       /*!< bit: 25..26  saved IT state   (read 0)          */
 281:/home/bekeband/workspace/OLIMEX_Start/src/core_cm3.h ****     uint32_t Q:1;                        /*!< bit:     27  Saturation condition flag          */
 282:/home/bekeband/workspace/OLIMEX_Start/src/core_cm3.h ****     uint32_t V:1;                        /*!< bit:     28  Overflow condition code flag       */
 283:/home/bekeband/workspace/OLIMEX_Start/src/core_cm3.h ****     uint32_t C:1;                        /*!< bit:     29  Carry condition code flag          */
 284:/home/bekeband/workspace/OLIMEX_Start/src/core_cm3.h ****     uint32_t Z:1;                        /*!< bit:     30  Zero condition code flag           */
 285:/home/bekeband/workspace/OLIMEX_Start/src/core_cm3.h ****     uint32_t N:1;                        /*!< bit:     31  Negative condition code flag       */
 286:/home/bekeband/workspace/OLIMEX_Start/src/core_cm3.h ****   } b;                                   /*!< Structure used for bit  access                  */
 287:/home/bekeband/workspace/OLIMEX_Start/src/core_cm3.h ****   uint32_t w;                            /*!< Type      used for word access                  */
 288:/home/bekeband/workspace/OLIMEX_Start/src/core_cm3.h **** } xPSR_Type;
 289:/home/bekeband/workspace/OLIMEX_Start/src/core_cm3.h **** 
 290:/home/bekeband/workspace/OLIMEX_Start/src/core_cm3.h **** 
 291:/home/bekeband/workspace/OLIMEX_Start/src/core_cm3.h **** /** \brief  Union type to access the Control Registers (CONTROL).
 292:/home/bekeband/workspace/OLIMEX_Start/src/core_cm3.h ****  */
 293:/home/bekeband/workspace/OLIMEX_Start/src/core_cm3.h **** typedef union
 294:/home/bekeband/workspace/OLIMEX_Start/src/core_cm3.h **** {
 295:/home/bekeband/workspace/OLIMEX_Start/src/core_cm3.h ****   struct
 296:/home/bekeband/workspace/OLIMEX_Start/src/core_cm3.h ****   {
 297:/home/bekeband/workspace/OLIMEX_Start/src/core_cm3.h ****     uint32_t nPRIV:1;                    /*!< bit:      0  Execution privilege in Thread mode */
 298:/home/bekeband/workspace/OLIMEX_Start/src/core_cm3.h ****     uint32_t SPSEL:1;                    /*!< bit:      1  Stack to be used                   */
 299:/home/bekeband/workspace/OLIMEX_Start/src/core_cm3.h ****     uint32_t FPCA:1;                     /*!< bit:      2  FP extension active flag           */
 300:/home/bekeband/workspace/OLIMEX_Start/src/core_cm3.h ****     uint32_t _reserved0:29;              /*!< bit:  3..31  Reserved                           */
 301:/home/bekeband/workspace/OLIMEX_Start/src/core_cm3.h ****   } b;                                   /*!< Structure used for bit  access                  */
 302:/home/bekeband/workspace/OLIMEX_Start/src/core_cm3.h ****   uint32_t w;                            /*!< Type      used for word access                  */
 303:/home/bekeband/workspace/OLIMEX_Start/src/core_cm3.h **** } CONTROL_Type;
 304:/home/bekeband/workspace/OLIMEX_Start/src/core_cm3.h **** 
 305:/home/bekeband/workspace/OLIMEX_Start/src/core_cm3.h **** /*@} end of group CMSIS_CORE */
 306:/home/bekeband/workspace/OLIMEX_Start/src/core_cm3.h **** 
 307:/home/bekeband/workspace/OLIMEX_Start/src/core_cm3.h **** 
 308:/home/bekeband/workspace/OLIMEX_Start/src/core_cm3.h **** /** \ingroup    CMSIS_core_register
 309:/home/bekeband/workspace/OLIMEX_Start/src/core_cm3.h ****     \defgroup   CMSIS_NVIC  Nested Vectored Interrupt Controller (NVIC)
 310:/home/bekeband/workspace/OLIMEX_Start/src/core_cm3.h ****     \brief      Type definitions for the NVIC Registers
 311:/home/bekeband/workspace/OLIMEX_Start/src/core_cm3.h ****   @{
 312:/home/bekeband/workspace/OLIMEX_Start/src/core_cm3.h ****  */
 313:/home/bekeband/workspace/OLIMEX_Start/src/core_cm3.h **** 
 314:/home/bekeband/workspace/OLIMEX_Start/src/core_cm3.h **** /** \brief  Structure type to access the Nested Vectored Interrupt Controller (NVIC).
 315:/home/bekeband/workspace/OLIMEX_Start/src/core_cm3.h ****  */
 316:/home/bekeband/workspace/OLIMEX_Start/src/core_cm3.h **** typedef struct
 317:/home/bekeband/workspace/OLIMEX_Start/src/core_cm3.h **** {
 318:/home/bekeband/workspace/OLIMEX_Start/src/core_cm3.h ****   __IO uint32_t ISER[8];                 /*!< Offset: 0x000 (R/W)  Interrupt Set Enable Register   
 319:/home/bekeband/workspace/OLIMEX_Start/src/core_cm3.h ****        uint32_t RESERVED0[24];
 320:/home/bekeband/workspace/OLIMEX_Start/src/core_cm3.h ****   __IO uint32_t ICER[8];                 /*!< Offset: 0x080 (R/W)  Interrupt Clear Enable Register 
 321:/home/bekeband/workspace/OLIMEX_Start/src/core_cm3.h ****        uint32_t RSERVED1[24];
 322:/home/bekeband/workspace/OLIMEX_Start/src/core_cm3.h ****   __IO uint32_t ISPR[8];                 /*!< Offset: 0x100 (R/W)  Interrupt Set Pending Register  
 323:/home/bekeband/workspace/OLIMEX_Start/src/core_cm3.h ****        uint32_t RESERVED2[24];
 324:/home/bekeband/workspace/OLIMEX_Start/src/core_cm3.h ****   __IO uint32_t ICPR[8];                 /*!< Offset: 0x180 (R/W)  Interrupt Clear Pending Register
 325:/home/bekeband/workspace/OLIMEX_Start/src/core_cm3.h ****        uint32_t RESERVED3[24];
 326:/home/bekeband/workspace/OLIMEX_Start/src/core_cm3.h ****   __IO uint32_t IABR[8];                 /*!< Offset: 0x200 (R/W)  Interrupt Active bit Register   
 327:/home/bekeband/workspace/OLIMEX_Start/src/core_cm3.h ****        uint32_t RESERVED4[56];
 328:/home/bekeband/workspace/OLIMEX_Start/src/core_cm3.h ****   __IO uint8_t  IP[240];                 /*!< Offset: 0x300 (R/W)  Interrupt Priority Register (8Bi
 329:/home/bekeband/workspace/OLIMEX_Start/src/core_cm3.h ****        uint32_t RESERVED5[644];
 330:/home/bekeband/workspace/OLIMEX_Start/src/core_cm3.h ****   __O  uint32_t STIR;                    /*!< Offset: 0xE00 ( /W)  Software Trigger Interrupt Regis
 331:/home/bekeband/workspace/OLIMEX_Start/src/core_cm3.h **** }  NVIC_Type;
 332:/home/bekeband/workspace/OLIMEX_Start/src/core_cm3.h **** 
 333:/home/bekeband/workspace/OLIMEX_Start/src/core_cm3.h **** /* Software Triggered Interrupt Register Definitions */
 334:/home/bekeband/workspace/OLIMEX_Start/src/core_cm3.h **** #define NVIC_STIR_INTID_Pos                 0                                          /*!< STIR: I
 335:/home/bekeband/workspace/OLIMEX_Start/src/core_cm3.h **** #define NVIC_STIR_INTID_Msk                (0x1FFUL << NVIC_STIR_INTID_Pos)            /*!< STIR: I
 336:/home/bekeband/workspace/OLIMEX_Start/src/core_cm3.h **** 
 337:/home/bekeband/workspace/OLIMEX_Start/src/core_cm3.h **** /*@} end of group CMSIS_NVIC */
 338:/home/bekeband/workspace/OLIMEX_Start/src/core_cm3.h **** 
 339:/home/bekeband/workspace/OLIMEX_Start/src/core_cm3.h **** 
 340:/home/bekeband/workspace/OLIMEX_Start/src/core_cm3.h **** /** \ingroup  CMSIS_core_register
 341:/home/bekeband/workspace/OLIMEX_Start/src/core_cm3.h ****     \defgroup CMSIS_SCB     System Control Block (SCB)
 342:/home/bekeband/workspace/OLIMEX_Start/src/core_cm3.h ****     \brief      Type definitions for the System Control Block Registers
 343:/home/bekeband/workspace/OLIMEX_Start/src/core_cm3.h ****   @{
 344:/home/bekeband/workspace/OLIMEX_Start/src/core_cm3.h ****  */
 345:/home/bekeband/workspace/OLIMEX_Start/src/core_cm3.h **** 
 346:/home/bekeband/workspace/OLIMEX_Start/src/core_cm3.h **** /** \brief  Structure type to access the System Control Block (SCB).
 347:/home/bekeband/workspace/OLIMEX_Start/src/core_cm3.h ****  */
 348:/home/bekeband/workspace/OLIMEX_Start/src/core_cm3.h **** typedef struct
 349:/home/bekeband/workspace/OLIMEX_Start/src/core_cm3.h **** {
 350:/home/bekeband/workspace/OLIMEX_Start/src/core_cm3.h ****   __I  uint32_t CPUID;                   /*!< Offset: 0x000 (R/ )  CPUID Base Register             
 351:/home/bekeband/workspace/OLIMEX_Start/src/core_cm3.h ****   __IO uint32_t ICSR;                    /*!< Offset: 0x004 (R/W)  Interrupt Control and State Regi
 352:/home/bekeband/workspace/OLIMEX_Start/src/core_cm3.h ****   __IO uint32_t VTOR;                    /*!< Offset: 0x008 (R/W)  Vector Table Offset Register    
 353:/home/bekeband/workspace/OLIMEX_Start/src/core_cm3.h ****   __IO uint32_t AIRCR;                   /*!< Offset: 0x00C (R/W)  Application Interrupt and Reset 
 354:/home/bekeband/workspace/OLIMEX_Start/src/core_cm3.h ****   __IO uint32_t SCR;                     /*!< Offset: 0x010 (R/W)  System Control Register         
 355:/home/bekeband/workspace/OLIMEX_Start/src/core_cm3.h ****   __IO uint32_t CCR;                     /*!< Offset: 0x014 (R/W)  Configuration Control Register  
 356:/home/bekeband/workspace/OLIMEX_Start/src/core_cm3.h ****   __IO uint8_t  SHP[12];                 /*!< Offset: 0x018 (R/W)  System Handlers Priority Registe
 357:/home/bekeband/workspace/OLIMEX_Start/src/core_cm3.h ****   __IO uint32_t SHCSR;                   /*!< Offset: 0x024 (R/W)  System Handler Control and State
 358:/home/bekeband/workspace/OLIMEX_Start/src/core_cm3.h ****   __IO uint32_t CFSR;                    /*!< Offset: 0x028 (R/W)  Configurable Fault Status Regist
 359:/home/bekeband/workspace/OLIMEX_Start/src/core_cm3.h ****   __IO uint32_t HFSR;                    /*!< Offset: 0x02C (R/W)  HardFault Status Register       
 360:/home/bekeband/workspace/OLIMEX_Start/src/core_cm3.h ****   __IO uint32_t DFSR;                    /*!< Offset: 0x030 (R/W)  Debug Fault Status Register     
 361:/home/bekeband/workspace/OLIMEX_Start/src/core_cm3.h ****   __IO uint32_t MMFAR;                   /*!< Offset: 0x034 (R/W)  MemManage Fault Address Register
 362:/home/bekeband/workspace/OLIMEX_Start/src/core_cm3.h ****   __IO uint32_t BFAR;                    /*!< Offset: 0x038 (R/W)  BusFault Address Register       
 363:/home/bekeband/workspace/OLIMEX_Start/src/core_cm3.h ****   __IO uint32_t AFSR;                    /*!< Offset: 0x03C (R/W)  Auxiliary Fault Status Register 
 364:/home/bekeband/workspace/OLIMEX_Start/src/core_cm3.h ****   __I  uint32_t PFR[2];                  /*!< Offset: 0x040 (R/ )  Processor Feature Register      
 365:/home/bekeband/workspace/OLIMEX_Start/src/core_cm3.h ****   __I  uint32_t DFR;                     /*!< Offset: 0x048 (R/ )  Debug Feature Register          
 366:/home/bekeband/workspace/OLIMEX_Start/src/core_cm3.h ****   __I  uint32_t ADR;                     /*!< Offset: 0x04C (R/ )  Auxiliary Feature Register      
 367:/home/bekeband/workspace/OLIMEX_Start/src/core_cm3.h ****   __I  uint32_t MMFR[4];                 /*!< Offset: 0x050 (R/ )  Memory Model Feature Register   
 368:/home/bekeband/workspace/OLIMEX_Start/src/core_cm3.h ****   __I  uint32_t ISAR[5];                 /*!< Offset: 0x060 (R/ )  Instruction Set Attributes Regis
 369:/home/bekeband/workspace/OLIMEX_Start/src/core_cm3.h ****        uint32_t RESERVED0[5];
 370:/home/bekeband/workspace/OLIMEX_Start/src/core_cm3.h ****   __IO uint32_t CPACR;                   /*!< Offset: 0x088 (R/W)  Coprocessor Access Control Regis
 371:/home/bekeband/workspace/OLIMEX_Start/src/core_cm3.h **** } SCB_Type;
 372:/home/bekeband/workspace/OLIMEX_Start/src/core_cm3.h **** 
 373:/home/bekeband/workspace/OLIMEX_Start/src/core_cm3.h **** /* SCB CPUID Register Definitions */
 374:/home/bekeband/workspace/OLIMEX_Start/src/core_cm3.h **** #define SCB_CPUID_IMPLEMENTER_Pos          24                                             /*!< SCB 
 375:/home/bekeband/workspace/OLIMEX_Start/src/core_cm3.h **** #define SCB_CPUID_IMPLEMENTER_Msk          (0xFFUL << SCB_CPUID_IMPLEMENTER_Pos)          /*!< SCB 
 376:/home/bekeband/workspace/OLIMEX_Start/src/core_cm3.h **** 
 377:/home/bekeband/workspace/OLIMEX_Start/src/core_cm3.h **** #define SCB_CPUID_VARIANT_Pos              20                                             /*!< SCB 
 378:/home/bekeband/workspace/OLIMEX_Start/src/core_cm3.h **** #define SCB_CPUID_VARIANT_Msk              (0xFUL << SCB_CPUID_VARIANT_Pos)               /*!< SCB 
 379:/home/bekeband/workspace/OLIMEX_Start/src/core_cm3.h **** 
 380:/home/bekeband/workspace/OLIMEX_Start/src/core_cm3.h **** #define SCB_CPUID_ARCHITECTURE_Pos         16                                             /*!< SCB 
 381:/home/bekeband/workspace/OLIMEX_Start/src/core_cm3.h **** #define SCB_CPUID_ARCHITECTURE_Msk         (0xFUL << SCB_CPUID_ARCHITECTURE_Pos)          /*!< SCB 
 382:/home/bekeband/workspace/OLIMEX_Start/src/core_cm3.h **** 
 383:/home/bekeband/workspace/OLIMEX_Start/src/core_cm3.h **** #define SCB_CPUID_PARTNO_Pos                4                                             /*!< SCB 
 384:/home/bekeband/workspace/OLIMEX_Start/src/core_cm3.h **** #define SCB_CPUID_PARTNO_Msk               (0xFFFUL << SCB_CPUID_PARTNO_Pos)              /*!< SCB 
 385:/home/bekeband/workspace/OLIMEX_Start/src/core_cm3.h **** 
 386:/home/bekeband/workspace/OLIMEX_Start/src/core_cm3.h **** #define SCB_CPUID_REVISION_Pos              0                                             /*!< SCB 
 387:/home/bekeband/workspace/OLIMEX_Start/src/core_cm3.h **** #define SCB_CPUID_REVISION_Msk             (0xFUL << SCB_CPUID_REVISION_Pos)              /*!< SCB 
 388:/home/bekeband/workspace/OLIMEX_Start/src/core_cm3.h **** 
 389:/home/bekeband/workspace/OLIMEX_Start/src/core_cm3.h **** /* SCB Interrupt Control State Register Definitions */
 390:/home/bekeband/workspace/OLIMEX_Start/src/core_cm3.h **** #define SCB_ICSR_NMIPENDSET_Pos            31                                             /*!< SCB 
 391:/home/bekeband/workspace/OLIMEX_Start/src/core_cm3.h **** #define SCB_ICSR_NMIPENDSET_Msk            (1UL << SCB_ICSR_NMIPENDSET_Pos)               /*!< SCB 
 392:/home/bekeband/workspace/OLIMEX_Start/src/core_cm3.h **** 
 393:/home/bekeband/workspace/OLIMEX_Start/src/core_cm3.h **** #define SCB_ICSR_PENDSVSET_Pos             28                                             /*!< SCB 
 394:/home/bekeband/workspace/OLIMEX_Start/src/core_cm3.h **** #define SCB_ICSR_PENDSVSET_Msk             (1UL << SCB_ICSR_PENDSVSET_Pos)                /*!< SCB 
 395:/home/bekeband/workspace/OLIMEX_Start/src/core_cm3.h **** 
 396:/home/bekeband/workspace/OLIMEX_Start/src/core_cm3.h **** #define SCB_ICSR_PENDSVCLR_Pos             27                                             /*!< SCB 
 397:/home/bekeband/workspace/OLIMEX_Start/src/core_cm3.h **** #define SCB_ICSR_PENDSVCLR_Msk             (1UL << SCB_ICSR_PENDSVCLR_Pos)                /*!< SCB 
 398:/home/bekeband/workspace/OLIMEX_Start/src/core_cm3.h **** 
 399:/home/bekeband/workspace/OLIMEX_Start/src/core_cm3.h **** #define SCB_ICSR_PENDSTSET_Pos             26                                             /*!< SCB 
 400:/home/bekeband/workspace/OLIMEX_Start/src/core_cm3.h **** #define SCB_ICSR_PENDSTSET_Msk             (1UL << SCB_ICSR_PENDSTSET_Pos)                /*!< SCB 
 401:/home/bekeband/workspace/OLIMEX_Start/src/core_cm3.h **** 
 402:/home/bekeband/workspace/OLIMEX_Start/src/core_cm3.h **** #define SCB_ICSR_PENDSTCLR_Pos             25                                             /*!< SCB 
 403:/home/bekeband/workspace/OLIMEX_Start/src/core_cm3.h **** #define SCB_ICSR_PENDSTCLR_Msk             (1UL << SCB_ICSR_PENDSTCLR_Pos)                /*!< SCB 
 404:/home/bekeband/workspace/OLIMEX_Start/src/core_cm3.h **** 
 405:/home/bekeband/workspace/OLIMEX_Start/src/core_cm3.h **** #define SCB_ICSR_ISRPREEMPT_Pos            23                                             /*!< SCB 
 406:/home/bekeband/workspace/OLIMEX_Start/src/core_cm3.h **** #define SCB_ICSR_ISRPREEMPT_Msk            (1UL << SCB_ICSR_ISRPREEMPT_Pos)               /*!< SCB 
 407:/home/bekeband/workspace/OLIMEX_Start/src/core_cm3.h **** 
 408:/home/bekeband/workspace/OLIMEX_Start/src/core_cm3.h **** #define SCB_ICSR_ISRPENDING_Pos            22                                             /*!< SCB 
 409:/home/bekeband/workspace/OLIMEX_Start/src/core_cm3.h **** #define SCB_ICSR_ISRPENDING_Msk            (1UL << SCB_ICSR_ISRPENDING_Pos)               /*!< SCB 
 410:/home/bekeband/workspace/OLIMEX_Start/src/core_cm3.h **** 
 411:/home/bekeband/workspace/OLIMEX_Start/src/core_cm3.h **** #define SCB_ICSR_VECTPENDING_Pos           12                                             /*!< SCB 
 412:/home/bekeband/workspace/OLIMEX_Start/src/core_cm3.h **** #define SCB_ICSR_VECTPENDING_Msk           (0x1FFUL << SCB_ICSR_VECTPENDING_Pos)          /*!< SCB 
 413:/home/bekeband/workspace/OLIMEX_Start/src/core_cm3.h **** 
 414:/home/bekeband/workspace/OLIMEX_Start/src/core_cm3.h **** #define SCB_ICSR_RETTOBASE_Pos             11                                             /*!< SCB 
 415:/home/bekeband/workspace/OLIMEX_Start/src/core_cm3.h **** #define SCB_ICSR_RETTOBASE_Msk             (1UL << SCB_ICSR_RETTOBASE_Pos)                /*!< SCB 
 416:/home/bekeband/workspace/OLIMEX_Start/src/core_cm3.h **** 
 417:/home/bekeband/workspace/OLIMEX_Start/src/core_cm3.h **** #define SCB_ICSR_VECTACTIVE_Pos             0                                             /*!< SCB 
 418:/home/bekeband/workspace/OLIMEX_Start/src/core_cm3.h **** #define SCB_ICSR_VECTACTIVE_Msk            (0x1FFUL << SCB_ICSR_VECTACTIVE_Pos)           /*!< SCB 
 419:/home/bekeband/workspace/OLIMEX_Start/src/core_cm3.h **** 
 420:/home/bekeband/workspace/OLIMEX_Start/src/core_cm3.h **** /* SCB Vector Table Offset Register Definitions */
 421:/home/bekeband/workspace/OLIMEX_Start/src/core_cm3.h **** #if (__CM3_REV < 0x0201)                   /* core r2p1 */
 422:/home/bekeband/workspace/OLIMEX_Start/src/core_cm3.h **** #define SCB_VTOR_TBLBASE_Pos               29                                             /*!< SCB 
 423:/home/bekeband/workspace/OLIMEX_Start/src/core_cm3.h **** #define SCB_VTOR_TBLBASE_Msk               (1UL << SCB_VTOR_TBLBASE_Pos)                  /*!< SCB 
 424:/home/bekeband/workspace/OLIMEX_Start/src/core_cm3.h **** 
 425:/home/bekeband/workspace/OLIMEX_Start/src/core_cm3.h **** #define SCB_VTOR_TBLOFF_Pos                 7                                             /*!< SCB 
 426:/home/bekeband/workspace/OLIMEX_Start/src/core_cm3.h **** #define SCB_VTOR_TBLOFF_Msk                (0x3FFFFFUL << SCB_VTOR_TBLOFF_Pos)            /*!< SCB 
 427:/home/bekeband/workspace/OLIMEX_Start/src/core_cm3.h **** #else
 428:/home/bekeband/workspace/OLIMEX_Start/src/core_cm3.h **** #define SCB_VTOR_TBLOFF_Pos                 7                                             /*!< SCB 
 429:/home/bekeband/workspace/OLIMEX_Start/src/core_cm3.h **** #define SCB_VTOR_TBLOFF_Msk                (0x1FFFFFFUL << SCB_VTOR_TBLOFF_Pos)           /*!< SCB 
 430:/home/bekeband/workspace/OLIMEX_Start/src/core_cm3.h **** #endif
 431:/home/bekeband/workspace/OLIMEX_Start/src/core_cm3.h **** 
 432:/home/bekeband/workspace/OLIMEX_Start/src/core_cm3.h **** /* SCB Application Interrupt and Reset Control Register Definitions */
 433:/home/bekeband/workspace/OLIMEX_Start/src/core_cm3.h **** #define SCB_AIRCR_VECTKEY_Pos              16                                             /*!< SCB 
 434:/home/bekeband/workspace/OLIMEX_Start/src/core_cm3.h **** #define SCB_AIRCR_VECTKEY_Msk              (0xFFFFUL << SCB_AIRCR_VECTKEY_Pos)            /*!< SCB 
 435:/home/bekeband/workspace/OLIMEX_Start/src/core_cm3.h **** 
 436:/home/bekeband/workspace/OLIMEX_Start/src/core_cm3.h **** #define SCB_AIRCR_VECTKEYSTAT_Pos          16                                             /*!< SCB 
 437:/home/bekeband/workspace/OLIMEX_Start/src/core_cm3.h **** #define SCB_AIRCR_VECTKEYSTAT_Msk          (0xFFFFUL << SCB_AIRCR_VECTKEYSTAT_Pos)        /*!< SCB 
 438:/home/bekeband/workspace/OLIMEX_Start/src/core_cm3.h **** 
 439:/home/bekeband/workspace/OLIMEX_Start/src/core_cm3.h **** #define SCB_AIRCR_ENDIANESS_Pos            15                                             /*!< SCB 
 440:/home/bekeband/workspace/OLIMEX_Start/src/core_cm3.h **** #define SCB_AIRCR_ENDIANESS_Msk            (1UL << SCB_AIRCR_ENDIANESS_Pos)               /*!< SCB 
 441:/home/bekeband/workspace/OLIMEX_Start/src/core_cm3.h **** 
 442:/home/bekeband/workspace/OLIMEX_Start/src/core_cm3.h **** #define SCB_AIRCR_PRIGROUP_Pos              8                                             /*!< SCB 
 443:/home/bekeband/workspace/OLIMEX_Start/src/core_cm3.h **** #define SCB_AIRCR_PRIGROUP_Msk             (7UL << SCB_AIRCR_PRIGROUP_Pos)                /*!< SCB 
 444:/home/bekeband/workspace/OLIMEX_Start/src/core_cm3.h **** 
 445:/home/bekeband/workspace/OLIMEX_Start/src/core_cm3.h **** #define SCB_AIRCR_SYSRESETREQ_Pos           2                                             /*!< SCB 
 446:/home/bekeband/workspace/OLIMEX_Start/src/core_cm3.h **** #define SCB_AIRCR_SYSRESETREQ_Msk          (1UL << SCB_AIRCR_SYSRESETREQ_Pos)             /*!< SCB 
 447:/home/bekeband/workspace/OLIMEX_Start/src/core_cm3.h **** 
 448:/home/bekeband/workspace/OLIMEX_Start/src/core_cm3.h **** #define SCB_AIRCR_VECTCLRACTIVE_Pos         1                                             /*!< SCB 
 449:/home/bekeband/workspace/OLIMEX_Start/src/core_cm3.h **** #define SCB_AIRCR_VECTCLRACTIVE_Msk        (1UL << SCB_AIRCR_VECTCLRACTIVE_Pos)           /*!< SCB 
 450:/home/bekeband/workspace/OLIMEX_Start/src/core_cm3.h **** 
 451:/home/bekeband/workspace/OLIMEX_Start/src/core_cm3.h **** #define SCB_AIRCR_VECTRESET_Pos             0                                             /*!< SCB 
 452:/home/bekeband/workspace/OLIMEX_Start/src/core_cm3.h **** #define SCB_AIRCR_VECTRESET_Msk            (1UL << SCB_AIRCR_VECTRESET_Pos)               /*!< SCB 
 453:/home/bekeband/workspace/OLIMEX_Start/src/core_cm3.h **** 
 454:/home/bekeband/workspace/OLIMEX_Start/src/core_cm3.h **** /* SCB System Control Register Definitions */
 455:/home/bekeband/workspace/OLIMEX_Start/src/core_cm3.h **** #define SCB_SCR_SEVONPEND_Pos               4                                             /*!< SCB 
 456:/home/bekeband/workspace/OLIMEX_Start/src/core_cm3.h **** #define SCB_SCR_SEVONPEND_Msk              (1UL << SCB_SCR_SEVONPEND_Pos)                 /*!< SCB 
 457:/home/bekeband/workspace/OLIMEX_Start/src/core_cm3.h **** 
 458:/home/bekeband/workspace/OLIMEX_Start/src/core_cm3.h **** #define SCB_SCR_SLEEPDEEP_Pos               2                                             /*!< SCB 
 459:/home/bekeband/workspace/OLIMEX_Start/src/core_cm3.h **** #define SCB_SCR_SLEEPDEEP_Msk              (1UL << SCB_SCR_SLEEPDEEP_Pos)                 /*!< SCB 
 460:/home/bekeband/workspace/OLIMEX_Start/src/core_cm3.h **** 
 461:/home/bekeband/workspace/OLIMEX_Start/src/core_cm3.h **** #define SCB_SCR_SLEEPONEXIT_Pos             1                                             /*!< SCB 
 462:/home/bekeband/workspace/OLIMEX_Start/src/core_cm3.h **** #define SCB_SCR_SLEEPONEXIT_Msk            (1UL << SCB_SCR_SLEEPONEXIT_Pos)               /*!< SCB 
 463:/home/bekeband/workspace/OLIMEX_Start/src/core_cm3.h **** 
 464:/home/bekeband/workspace/OLIMEX_Start/src/core_cm3.h **** /* SCB Configuration Control Register Definitions */
 465:/home/bekeband/workspace/OLIMEX_Start/src/core_cm3.h **** #define SCB_CCR_STKALIGN_Pos                9                                             /*!< SCB 
 466:/home/bekeband/workspace/OLIMEX_Start/src/core_cm3.h **** #define SCB_CCR_STKALIGN_Msk               (1UL << SCB_CCR_STKALIGN_Pos)                  /*!< SCB 
 467:/home/bekeband/workspace/OLIMEX_Start/src/core_cm3.h **** 
 468:/home/bekeband/workspace/OLIMEX_Start/src/core_cm3.h **** #define SCB_CCR_BFHFNMIGN_Pos               8                                             /*!< SCB 
 469:/home/bekeband/workspace/OLIMEX_Start/src/core_cm3.h **** #define SCB_CCR_BFHFNMIGN_Msk              (1UL << SCB_CCR_BFHFNMIGN_Pos)                 /*!< SCB 
 470:/home/bekeband/workspace/OLIMEX_Start/src/core_cm3.h **** 
 471:/home/bekeband/workspace/OLIMEX_Start/src/core_cm3.h **** #define SCB_CCR_DIV_0_TRP_Pos               4                                             /*!< SCB 
 472:/home/bekeband/workspace/OLIMEX_Start/src/core_cm3.h **** #define SCB_CCR_DIV_0_TRP_Msk              (1UL << SCB_CCR_DIV_0_TRP_Pos)                 /*!< SCB 
 473:/home/bekeband/workspace/OLIMEX_Start/src/core_cm3.h **** 
 474:/home/bekeband/workspace/OLIMEX_Start/src/core_cm3.h **** #define SCB_CCR_UNALIGN_TRP_Pos             3                                             /*!< SCB 
 475:/home/bekeband/workspace/OLIMEX_Start/src/core_cm3.h **** #define SCB_CCR_UNALIGN_TRP_Msk            (1UL << SCB_CCR_UNALIGN_TRP_Pos)               /*!< SCB 
 476:/home/bekeband/workspace/OLIMEX_Start/src/core_cm3.h **** 
 477:/home/bekeband/workspace/OLIMEX_Start/src/core_cm3.h **** #define SCB_CCR_USERSETMPEND_Pos            1                                             /*!< SCB 
 478:/home/bekeband/workspace/OLIMEX_Start/src/core_cm3.h **** #define SCB_CCR_USERSETMPEND_Msk           (1UL << SCB_CCR_USERSETMPEND_Pos)              /*!< SCB 
 479:/home/bekeband/workspace/OLIMEX_Start/src/core_cm3.h **** 
 480:/home/bekeband/workspace/OLIMEX_Start/src/core_cm3.h **** #define SCB_CCR_NONBASETHRDENA_Pos          0                                             /*!< SCB 
 481:/home/bekeband/workspace/OLIMEX_Start/src/core_cm3.h **** #define SCB_CCR_NONBASETHRDENA_Msk         (1UL << SCB_CCR_NONBASETHRDENA_Pos)            /*!< SCB 
 482:/home/bekeband/workspace/OLIMEX_Start/src/core_cm3.h **** 
 483:/home/bekeband/workspace/OLIMEX_Start/src/core_cm3.h **** /* SCB System Handler Control and State Register Definitions */
 484:/home/bekeband/workspace/OLIMEX_Start/src/core_cm3.h **** #define SCB_SHCSR_USGFAULTENA_Pos          18                                             /*!< SCB 
 485:/home/bekeband/workspace/OLIMEX_Start/src/core_cm3.h **** #define SCB_SHCSR_USGFAULTENA_Msk          (1UL << SCB_SHCSR_USGFAULTENA_Pos)             /*!< SCB 
 486:/home/bekeband/workspace/OLIMEX_Start/src/core_cm3.h **** 
 487:/home/bekeband/workspace/OLIMEX_Start/src/core_cm3.h **** #define SCB_SHCSR_BUSFAULTENA_Pos          17                                             /*!< SCB 
 488:/home/bekeband/workspace/OLIMEX_Start/src/core_cm3.h **** #define SCB_SHCSR_BUSFAULTENA_Msk          (1UL << SCB_SHCSR_BUSFAULTENA_Pos)             /*!< SCB 
 489:/home/bekeband/workspace/OLIMEX_Start/src/core_cm3.h **** 
 490:/home/bekeband/workspace/OLIMEX_Start/src/core_cm3.h **** #define SCB_SHCSR_MEMFAULTENA_Pos          16                                             /*!< SCB 
 491:/home/bekeband/workspace/OLIMEX_Start/src/core_cm3.h **** #define SCB_SHCSR_MEMFAULTENA_Msk          (1UL << SCB_SHCSR_MEMFAULTENA_Pos)             /*!< SCB 
 492:/home/bekeband/workspace/OLIMEX_Start/src/core_cm3.h **** 
 493:/home/bekeband/workspace/OLIMEX_Start/src/core_cm3.h **** #define SCB_SHCSR_SVCALLPENDED_Pos         15                                             /*!< SCB 
 494:/home/bekeband/workspace/OLIMEX_Start/src/core_cm3.h **** #define SCB_SHCSR_SVCALLPENDED_Msk         (1UL << SCB_SHCSR_SVCALLPENDED_Pos)            /*!< SCB 
 495:/home/bekeband/workspace/OLIMEX_Start/src/core_cm3.h **** 
 496:/home/bekeband/workspace/OLIMEX_Start/src/core_cm3.h **** #define SCB_SHCSR_BUSFAULTPENDED_Pos       14                                             /*!< SCB 
 497:/home/bekeband/workspace/OLIMEX_Start/src/core_cm3.h **** #define SCB_SHCSR_BUSFAULTPENDED_Msk       (1UL << SCB_SHCSR_BUSFAULTPENDED_Pos)          /*!< SCB 
 498:/home/bekeband/workspace/OLIMEX_Start/src/core_cm3.h **** 
 499:/home/bekeband/workspace/OLIMEX_Start/src/core_cm3.h **** #define SCB_SHCSR_MEMFAULTPENDED_Pos       13                                             /*!< SCB 
 500:/home/bekeband/workspace/OLIMEX_Start/src/core_cm3.h **** #define SCB_SHCSR_MEMFAULTPENDED_Msk       (1UL << SCB_SHCSR_MEMFAULTPENDED_Pos)          /*!< SCB 
 501:/home/bekeband/workspace/OLIMEX_Start/src/core_cm3.h **** 
 502:/home/bekeband/workspace/OLIMEX_Start/src/core_cm3.h **** #define SCB_SHCSR_USGFAULTPENDED_Pos       12                                             /*!< SCB 
 503:/home/bekeband/workspace/OLIMEX_Start/src/core_cm3.h **** #define SCB_SHCSR_USGFAULTPENDED_Msk       (1UL << SCB_SHCSR_USGFAULTPENDED_Pos)          /*!< SCB 
 504:/home/bekeband/workspace/OLIMEX_Start/src/core_cm3.h **** 
 505:/home/bekeband/workspace/OLIMEX_Start/src/core_cm3.h **** #define SCB_SHCSR_SYSTICKACT_Pos           11                                             /*!< SCB 
 506:/home/bekeband/workspace/OLIMEX_Start/src/core_cm3.h **** #define SCB_SHCSR_SYSTICKACT_Msk           (1UL << SCB_SHCSR_SYSTICKACT_Pos)              /*!< SCB 
 507:/home/bekeband/workspace/OLIMEX_Start/src/core_cm3.h **** 
 508:/home/bekeband/workspace/OLIMEX_Start/src/core_cm3.h **** #define SCB_SHCSR_PENDSVACT_Pos            10                                             /*!< SCB 
 509:/home/bekeband/workspace/OLIMEX_Start/src/core_cm3.h **** #define SCB_SHCSR_PENDSVACT_Msk            (1UL << SCB_SHCSR_PENDSVACT_Pos)               /*!< SCB 
 510:/home/bekeband/workspace/OLIMEX_Start/src/core_cm3.h **** 
 511:/home/bekeband/workspace/OLIMEX_Start/src/core_cm3.h **** #define SCB_SHCSR_MONITORACT_Pos            8                                             /*!< SCB 
 512:/home/bekeband/workspace/OLIMEX_Start/src/core_cm3.h **** #define SCB_SHCSR_MONITORACT_Msk           (1UL << SCB_SHCSR_MONITORACT_Pos)              /*!< SCB 
 513:/home/bekeband/workspace/OLIMEX_Start/src/core_cm3.h **** 
 514:/home/bekeband/workspace/OLIMEX_Start/src/core_cm3.h **** #define SCB_SHCSR_SVCALLACT_Pos             7                                             /*!< SCB 
 515:/home/bekeband/workspace/OLIMEX_Start/src/core_cm3.h **** #define SCB_SHCSR_SVCALLACT_Msk            (1UL << SCB_SHCSR_SVCALLACT_Pos)               /*!< SCB 
 516:/home/bekeband/workspace/OLIMEX_Start/src/core_cm3.h **** 
 517:/home/bekeband/workspace/OLIMEX_Start/src/core_cm3.h **** #define SCB_SHCSR_USGFAULTACT_Pos           3                                             /*!< SCB 
 518:/home/bekeband/workspace/OLIMEX_Start/src/core_cm3.h **** #define SCB_SHCSR_USGFAULTACT_Msk          (1UL << SCB_SHCSR_USGFAULTACT_Pos)             /*!< SCB 
 519:/home/bekeband/workspace/OLIMEX_Start/src/core_cm3.h **** 
 520:/home/bekeband/workspace/OLIMEX_Start/src/core_cm3.h **** #define SCB_SHCSR_BUSFAULTACT_Pos           1                                             /*!< SCB 
 521:/home/bekeband/workspace/OLIMEX_Start/src/core_cm3.h **** #define SCB_SHCSR_BUSFAULTACT_Msk          (1UL << SCB_SHCSR_BUSFAULTACT_Pos)             /*!< SCB 
 522:/home/bekeband/workspace/OLIMEX_Start/src/core_cm3.h **** 
 523:/home/bekeband/workspace/OLIMEX_Start/src/core_cm3.h **** #define SCB_SHCSR_MEMFAULTACT_Pos           0                                             /*!< SCB 
 524:/home/bekeband/workspace/OLIMEX_Start/src/core_cm3.h **** #define SCB_SHCSR_MEMFAULTACT_Msk          (1UL << SCB_SHCSR_MEMFAULTACT_Pos)             /*!< SCB 
 525:/home/bekeband/workspace/OLIMEX_Start/src/core_cm3.h **** 
 526:/home/bekeband/workspace/OLIMEX_Start/src/core_cm3.h **** /* SCB Configurable Fault Status Registers Definitions */
 527:/home/bekeband/workspace/OLIMEX_Start/src/core_cm3.h **** #define SCB_CFSR_USGFAULTSR_Pos            16                                             /*!< SCB 
 528:/home/bekeband/workspace/OLIMEX_Start/src/core_cm3.h **** #define SCB_CFSR_USGFAULTSR_Msk            (0xFFFFUL << SCB_CFSR_USGFAULTSR_Pos)          /*!< SCB 
 529:/home/bekeband/workspace/OLIMEX_Start/src/core_cm3.h **** 
 530:/home/bekeband/workspace/OLIMEX_Start/src/core_cm3.h **** #define SCB_CFSR_BUSFAULTSR_Pos             8                                             /*!< SCB 
 531:/home/bekeband/workspace/OLIMEX_Start/src/core_cm3.h **** #define SCB_CFSR_BUSFAULTSR_Msk            (0xFFUL << SCB_CFSR_BUSFAULTSR_Pos)            /*!< SCB 
 532:/home/bekeband/workspace/OLIMEX_Start/src/core_cm3.h **** 
 533:/home/bekeband/workspace/OLIMEX_Start/src/core_cm3.h **** #define SCB_CFSR_MEMFAULTSR_Pos             0                                             /*!< SCB 
 534:/home/bekeband/workspace/OLIMEX_Start/src/core_cm3.h **** #define SCB_CFSR_MEMFAULTSR_Msk            (0xFFUL << SCB_CFSR_MEMFAULTSR_Pos)            /*!< SCB 
 535:/home/bekeband/workspace/OLIMEX_Start/src/core_cm3.h **** 
 536:/home/bekeband/workspace/OLIMEX_Start/src/core_cm3.h **** /* SCB Hard Fault Status Registers Definitions */
 537:/home/bekeband/workspace/OLIMEX_Start/src/core_cm3.h **** #define SCB_HFSR_DEBUGEVT_Pos              31                                             /*!< SCB 
 538:/home/bekeband/workspace/OLIMEX_Start/src/core_cm3.h **** #define SCB_HFSR_DEBUGEVT_Msk              (1UL << SCB_HFSR_DEBUGEVT_Pos)                 /*!< SCB 
 539:/home/bekeband/workspace/OLIMEX_Start/src/core_cm3.h **** 
 540:/home/bekeband/workspace/OLIMEX_Start/src/core_cm3.h **** #define SCB_HFSR_FORCED_Pos                30                                             /*!< SCB 
 541:/home/bekeband/workspace/OLIMEX_Start/src/core_cm3.h **** #define SCB_HFSR_FORCED_Msk                (1UL << SCB_HFSR_FORCED_Pos)                   /*!< SCB 
 542:/home/bekeband/workspace/OLIMEX_Start/src/core_cm3.h **** 
 543:/home/bekeband/workspace/OLIMEX_Start/src/core_cm3.h **** #define SCB_HFSR_VECTTBL_Pos                1                                             /*!< SCB 
 544:/home/bekeband/workspace/OLIMEX_Start/src/core_cm3.h **** #define SCB_HFSR_VECTTBL_Msk               (1UL << SCB_HFSR_VECTTBL_Pos)                  /*!< SCB 
 545:/home/bekeband/workspace/OLIMEX_Start/src/core_cm3.h **** 
 546:/home/bekeband/workspace/OLIMEX_Start/src/core_cm3.h **** /* SCB Debug Fault Status Register Definitions */
 547:/home/bekeband/workspace/OLIMEX_Start/src/core_cm3.h **** #define SCB_DFSR_EXTERNAL_Pos               4                                             /*!< SCB 
 548:/home/bekeband/workspace/OLIMEX_Start/src/core_cm3.h **** #define SCB_DFSR_EXTERNAL_Msk              (1UL << SCB_DFSR_EXTERNAL_Pos)                 /*!< SCB 
 549:/home/bekeband/workspace/OLIMEX_Start/src/core_cm3.h **** 
 550:/home/bekeband/workspace/OLIMEX_Start/src/core_cm3.h **** #define SCB_DFSR_VCATCH_Pos                 3                                             /*!< SCB 
 551:/home/bekeband/workspace/OLIMEX_Start/src/core_cm3.h **** #define SCB_DFSR_VCATCH_Msk                (1UL << SCB_DFSR_VCATCH_Pos)                   /*!< SCB 
 552:/home/bekeband/workspace/OLIMEX_Start/src/core_cm3.h **** 
 553:/home/bekeband/workspace/OLIMEX_Start/src/core_cm3.h **** #define SCB_DFSR_DWTTRAP_Pos                2                                             /*!< SCB 
 554:/home/bekeband/workspace/OLIMEX_Start/src/core_cm3.h **** #define SCB_DFSR_DWTTRAP_Msk               (1UL << SCB_DFSR_DWTTRAP_Pos)                  /*!< SCB 
 555:/home/bekeband/workspace/OLIMEX_Start/src/core_cm3.h **** 
 556:/home/bekeband/workspace/OLIMEX_Start/src/core_cm3.h **** #define SCB_DFSR_BKPT_Pos                   1                                             /*!< SCB 
 557:/home/bekeband/workspace/OLIMEX_Start/src/core_cm3.h **** #define SCB_DFSR_BKPT_Msk                  (1UL << SCB_DFSR_BKPT_Pos)                     /*!< SCB 
 558:/home/bekeband/workspace/OLIMEX_Start/src/core_cm3.h **** 
 559:/home/bekeband/workspace/OLIMEX_Start/src/core_cm3.h **** #define SCB_DFSR_HALTED_Pos                 0                                             /*!< SCB 
 560:/home/bekeband/workspace/OLIMEX_Start/src/core_cm3.h **** #define SCB_DFSR_HALTED_Msk                (1UL << SCB_DFSR_HALTED_Pos)                   /*!< SCB 
 561:/home/bekeband/workspace/OLIMEX_Start/src/core_cm3.h **** 
 562:/home/bekeband/workspace/OLIMEX_Start/src/core_cm3.h **** /*@} end of group CMSIS_SCB */
 563:/home/bekeband/workspace/OLIMEX_Start/src/core_cm3.h **** 
 564:/home/bekeband/workspace/OLIMEX_Start/src/core_cm3.h **** 
 565:/home/bekeband/workspace/OLIMEX_Start/src/core_cm3.h **** /** \ingroup  CMSIS_core_register
 566:/home/bekeband/workspace/OLIMEX_Start/src/core_cm3.h ****     \defgroup CMSIS_SCnSCB System Controls not in SCB (SCnSCB)
 567:/home/bekeband/workspace/OLIMEX_Start/src/core_cm3.h ****     \brief      Type definitions for the System Control and ID Register not in the SCB
 568:/home/bekeband/workspace/OLIMEX_Start/src/core_cm3.h ****   @{
 569:/home/bekeband/workspace/OLIMEX_Start/src/core_cm3.h ****  */
 570:/home/bekeband/workspace/OLIMEX_Start/src/core_cm3.h **** 
 571:/home/bekeband/workspace/OLIMEX_Start/src/core_cm3.h **** /** \brief  Structure type to access the System Control and ID Register not in the SCB.
 572:/home/bekeband/workspace/OLIMEX_Start/src/core_cm3.h ****  */
 573:/home/bekeband/workspace/OLIMEX_Start/src/core_cm3.h **** typedef struct
 574:/home/bekeband/workspace/OLIMEX_Start/src/core_cm3.h **** {
 575:/home/bekeband/workspace/OLIMEX_Start/src/core_cm3.h ****        uint32_t RESERVED0[1];
 576:/home/bekeband/workspace/OLIMEX_Start/src/core_cm3.h ****   __I  uint32_t ICTR;                    /*!< Offset: 0x004 (R/ )  Interrupt Controller Type Regist
 577:/home/bekeband/workspace/OLIMEX_Start/src/core_cm3.h **** #if ((defined __CM3_REV) && (__CM3_REV >= 0x200))
 578:/home/bekeband/workspace/OLIMEX_Start/src/core_cm3.h ****   __IO uint32_t ACTLR;                   /*!< Offset: 0x008 (R/W)  Auxiliary Control Register      
 579:/home/bekeband/workspace/OLIMEX_Start/src/core_cm3.h **** #else
 580:/home/bekeband/workspace/OLIMEX_Start/src/core_cm3.h ****        uint32_t RESERVED1[1];
 581:/home/bekeband/workspace/OLIMEX_Start/src/core_cm3.h **** #endif
 582:/home/bekeband/workspace/OLIMEX_Start/src/core_cm3.h **** } SCnSCB_Type;
 583:/home/bekeband/workspace/OLIMEX_Start/src/core_cm3.h **** 
 584:/home/bekeband/workspace/OLIMEX_Start/src/core_cm3.h **** /* Interrupt Controller Type Register Definitions */
 585:/home/bekeband/workspace/OLIMEX_Start/src/core_cm3.h **** #define SCnSCB_ICTR_INTLINESNUM_Pos         0                                          /*!< ICTR: I
 586:/home/bekeband/workspace/OLIMEX_Start/src/core_cm3.h **** #define SCnSCB_ICTR_INTLINESNUM_Msk        (0xFUL << SCnSCB_ICTR_INTLINESNUM_Pos)      /*!< ICTR: I
 587:/home/bekeband/workspace/OLIMEX_Start/src/core_cm3.h **** 
 588:/home/bekeband/workspace/OLIMEX_Start/src/core_cm3.h **** /* Auxiliary Control Register Definitions */
 589:/home/bekeband/workspace/OLIMEX_Start/src/core_cm3.h **** 
 590:/home/bekeband/workspace/OLIMEX_Start/src/core_cm3.h **** #define SCnSCB_ACTLR_DISFOLD_Pos            2                                          /*!< ACTLR: 
 591:/home/bekeband/workspace/OLIMEX_Start/src/core_cm3.h **** #define SCnSCB_ACTLR_DISFOLD_Msk           (1UL << SCnSCB_ACTLR_DISFOLD_Pos)           /*!< ACTLR: 
 592:/home/bekeband/workspace/OLIMEX_Start/src/core_cm3.h **** 
 593:/home/bekeband/workspace/OLIMEX_Start/src/core_cm3.h **** #define SCnSCB_ACTLR_DISDEFWBUF_Pos         1                                          /*!< ACTLR: 
 594:/home/bekeband/workspace/OLIMEX_Start/src/core_cm3.h **** #define SCnSCB_ACTLR_DISDEFWBUF_Msk        (1UL << SCnSCB_ACTLR_DISDEFWBUF_Pos)        /*!< ACTLR: 
 595:/home/bekeband/workspace/OLIMEX_Start/src/core_cm3.h **** 
 596:/home/bekeband/workspace/OLIMEX_Start/src/core_cm3.h **** #define SCnSCB_ACTLR_DISMCYCINT_Pos         0                                          /*!< ACTLR: 
 597:/home/bekeband/workspace/OLIMEX_Start/src/core_cm3.h **** #define SCnSCB_ACTLR_DISMCYCINT_Msk        (1UL << SCnSCB_ACTLR_DISMCYCINT_Pos)        /*!< ACTLR: 
 598:/home/bekeband/workspace/OLIMEX_Start/src/core_cm3.h **** 
 599:/home/bekeband/workspace/OLIMEX_Start/src/core_cm3.h **** /*@} end of group CMSIS_SCnotSCB */
 600:/home/bekeband/workspace/OLIMEX_Start/src/core_cm3.h **** 
 601:/home/bekeband/workspace/OLIMEX_Start/src/core_cm3.h **** 
 602:/home/bekeband/workspace/OLIMEX_Start/src/core_cm3.h **** /** \ingroup  CMSIS_core_register
 603:/home/bekeband/workspace/OLIMEX_Start/src/core_cm3.h ****     \defgroup CMSIS_SysTick     System Tick Timer (SysTick)
 604:/home/bekeband/workspace/OLIMEX_Start/src/core_cm3.h ****     \brief      Type definitions for the System Timer Registers.
 605:/home/bekeband/workspace/OLIMEX_Start/src/core_cm3.h ****   @{
 606:/home/bekeband/workspace/OLIMEX_Start/src/core_cm3.h ****  */
 607:/home/bekeband/workspace/OLIMEX_Start/src/core_cm3.h **** 
 608:/home/bekeband/workspace/OLIMEX_Start/src/core_cm3.h **** /** \brief  Structure type to access the System Timer (SysTick).
 609:/home/bekeband/workspace/OLIMEX_Start/src/core_cm3.h ****  */
 610:/home/bekeband/workspace/OLIMEX_Start/src/core_cm3.h **** typedef struct
 611:/home/bekeband/workspace/OLIMEX_Start/src/core_cm3.h **** {
 612:/home/bekeband/workspace/OLIMEX_Start/src/core_cm3.h ****   __IO uint32_t CTRL;                    /*!< Offset: 0x000 (R/W)  SysTick Control and Status Regis
 613:/home/bekeband/workspace/OLIMEX_Start/src/core_cm3.h ****   __IO uint32_t LOAD;                    /*!< Offset: 0x004 (R/W)  SysTick Reload Value Register   
 614:/home/bekeband/workspace/OLIMEX_Start/src/core_cm3.h ****   __IO uint32_t VAL;                     /*!< Offset: 0x008 (R/W)  SysTick Current Value Register  
 615:/home/bekeband/workspace/OLIMEX_Start/src/core_cm3.h ****   __I  uint32_t CALIB;                   /*!< Offset: 0x00C (R/ )  SysTick Calibration Register    
 616:/home/bekeband/workspace/OLIMEX_Start/src/core_cm3.h **** } SysTick_Type;
 617:/home/bekeband/workspace/OLIMEX_Start/src/core_cm3.h **** 
 618:/home/bekeband/workspace/OLIMEX_Start/src/core_cm3.h **** /* SysTick Control / Status Register Definitions */
 619:/home/bekeband/workspace/OLIMEX_Start/src/core_cm3.h **** #define SysTick_CTRL_COUNTFLAG_Pos         16                                             /*!< SysT
 620:/home/bekeband/workspace/OLIMEX_Start/src/core_cm3.h **** #define SysTick_CTRL_COUNTFLAG_Msk         (1UL << SysTick_CTRL_COUNTFLAG_Pos)            /*!< SysT
 621:/home/bekeband/workspace/OLIMEX_Start/src/core_cm3.h **** 
 622:/home/bekeband/workspace/OLIMEX_Start/src/core_cm3.h **** #define SysTick_CTRL_CLKSOURCE_Pos          2                                             /*!< SysT
 623:/home/bekeband/workspace/OLIMEX_Start/src/core_cm3.h **** #define SysTick_CTRL_CLKSOURCE_Msk         (1UL << SysTick_CTRL_CLKSOURCE_Pos)            /*!< SysT
 624:/home/bekeband/workspace/OLIMEX_Start/src/core_cm3.h **** 
 625:/home/bekeband/workspace/OLIMEX_Start/src/core_cm3.h **** #define SysTick_CTRL_TICKINT_Pos            1                                             /*!< SysT
 626:/home/bekeband/workspace/OLIMEX_Start/src/core_cm3.h **** #define SysTick_CTRL_TICKINT_Msk           (1UL << SysTick_CTRL_TICKINT_Pos)              /*!< SysT
 627:/home/bekeband/workspace/OLIMEX_Start/src/core_cm3.h **** 
 628:/home/bekeband/workspace/OLIMEX_Start/src/core_cm3.h **** #define SysTick_CTRL_ENABLE_Pos             0                                             /*!< SysT
