   1              		.syntax unified
   2              		.cpu cortex-m3
   3              		.fpu softvfp
   4              		.eabi_attribute 20, 1
   5              		.eabi_attribute 21, 1
   6              		.eabi_attribute 23, 3
   7              		.eabi_attribute 24, 1
   8              		.eabi_attribute 25, 1
   9              		.eabi_attribute 26, 1
  10              		.eabi_attribute 30, 1
  11              		.eabi_attribute 34, 1
  12              		.eabi_attribute 18, 4
  13              		.thumb
  14              		.syntax unified
  15              		.file	"read.c"
  16              		.text
  17              	.Ltext0:
  18              		.cfi_sections	.debug_frame
  19              		.section	.text._read,"ax",%progbits
  20              		.align	2
  21              		.weak	_read
  22              		.thumb
  23              		.thumb_func
  25              	_read:
  26              	.LFB73:
  27              		.file 1 "../src/common/utils/stdio/read.c"
   1:../src/common/utils/stdio/read.c **** /**
   2:../src/common/utils/stdio/read.c ****  * \file
   3:../src/common/utils/stdio/read.c ****  *
   4:../src/common/utils/stdio/read.c ****  * \brief System-specific implementation of the \ref _read function used by
   5:../src/common/utils/stdio/read.c ****  *         the standard library.
   6:../src/common/utils/stdio/read.c ****  *
   7:../src/common/utils/stdio/read.c ****  * Copyright (c) 2009-2015 Atmel Corporation. All rights reserved.
   8:../src/common/utils/stdio/read.c ****  *
   9:../src/common/utils/stdio/read.c ****  * \asf_license_start
  10:../src/common/utils/stdio/read.c ****  *
  11:../src/common/utils/stdio/read.c ****  * \page License
  12:../src/common/utils/stdio/read.c ****  *
  13:../src/common/utils/stdio/read.c ****  * Redistribution and use in source and binary forms, with or without
  14:../src/common/utils/stdio/read.c ****  * modification, are permitted provided that the following conditions are met:
  15:../src/common/utils/stdio/read.c ****  *
  16:../src/common/utils/stdio/read.c ****  * 1. Redistributions of source code must retain the above copyright notice,
  17:../src/common/utils/stdio/read.c ****  *    this list of conditions and the following disclaimer.
  18:../src/common/utils/stdio/read.c ****  *
  19:../src/common/utils/stdio/read.c ****  * 2. Redistributions in binary form must reproduce the above copyright notice,
  20:../src/common/utils/stdio/read.c ****  *    this list of conditions and the following disclaimer in the documentation
  21:../src/common/utils/stdio/read.c ****  *    and/or other materials provided with the distribution.
  22:../src/common/utils/stdio/read.c ****  *
  23:../src/common/utils/stdio/read.c ****  * 3. The name of Atmel may not be used to endorse or promote products derived
  24:../src/common/utils/stdio/read.c ****  *    from this software without specific prior written permission.
  25:../src/common/utils/stdio/read.c ****  *
  26:../src/common/utils/stdio/read.c ****  * 4. This software may only be redistributed and used in connection with an
  27:../src/common/utils/stdio/read.c ****  *    Atmel microcontroller product.
  28:../src/common/utils/stdio/read.c ****  *
  29:../src/common/utils/stdio/read.c ****  * THIS SOFTWARE IS PROVIDED BY ATMEL "AS IS" AND ANY EXPRESS OR IMPLIED
  30:../src/common/utils/stdio/read.c ****  * WARRANTIES, INCLUDING, BUT NOT LIMITED TO, THE IMPLIED WARRANTIES OF
  31:../src/common/utils/stdio/read.c ****  * MERCHANTABILITY, FITNESS FOR A PARTICULAR PURPOSE AND NON-INFRINGEMENT ARE
  32:../src/common/utils/stdio/read.c ****  * EXPRESSLY AND SPECIFICALLY DISCLAIMED. IN NO EVENT SHALL ATMEL BE LIABLE FOR
  33:../src/common/utils/stdio/read.c ****  * ANY DIRECT, INDIRECT, INCIDENTAL, SPECIAL, EXEMPLARY, OR CONSEQUENTIAL
  34:../src/common/utils/stdio/read.c ****  * DAMAGES (INCLUDING, BUT NOT LIMITED TO, PROCUREMENT OF SUBSTITUTE GOODS
  35:../src/common/utils/stdio/read.c ****  * OR SERVICES; LOSS OF USE, DATA, OR PROFITS; OR BUSINESS INTERRUPTION)
  36:../src/common/utils/stdio/read.c ****  * HOWEVER CAUSED AND ON ANY THEORY OF LIABILITY, WHETHER IN CONTRACT,
  37:../src/common/utils/stdio/read.c ****  * STRICT LIABILITY, OR TORT (INCLUDING NEGLIGENCE OR OTHERWISE) ARISING IN
  38:../src/common/utils/stdio/read.c ****  * ANY WAY OUT OF THE USE OF THIS SOFTWARE, EVEN IF ADVISED OF THE
  39:../src/common/utils/stdio/read.c ****  * POSSIBILITY OF SUCH DAMAGE.
  40:../src/common/utils/stdio/read.c ****  *
  41:../src/common/utils/stdio/read.c ****  * \asf_license_stop
  42:../src/common/utils/stdio/read.c ****  *
  43:../src/common/utils/stdio/read.c ****  */
  44:../src/common/utils/stdio/read.c **** /*
  45:../src/common/utils/stdio/read.c ****  * Support and FAQ: visit <a href="http://www.atmel.com/design-support/">Atmel Support</a>
  46:../src/common/utils/stdio/read.c ****  */
  47:../src/common/utils/stdio/read.c **** 
  48:../src/common/utils/stdio/read.c **** #include "compiler.h"
  49:../src/common/utils/stdio/read.c **** 
  50:../src/common/utils/stdio/read.c **** /**
  51:../src/common/utils/stdio/read.c ****  * \defgroup group_common_utils_stdio Standard I/O (stdio)
  52:../src/common/utils/stdio/read.c ****  *
  53:../src/common/utils/stdio/read.c ****  * Common standard I/O driver that implements the stdio
  54:../src/common/utils/stdio/read.c ****  * read and write functions on AVR and SAM devices.
  55:../src/common/utils/stdio/read.c ****  *
  56:../src/common/utils/stdio/read.c ****  * \{
  57:../src/common/utils/stdio/read.c ****  */
  58:../src/common/utils/stdio/read.c **** 
  59:../src/common/utils/stdio/read.c **** extern volatile void *volatile stdio_base;
  60:../src/common/utils/stdio/read.c **** void (*ptr_get)(void volatile*, char*);
  61:../src/common/utils/stdio/read.c **** 
  62:../src/common/utils/stdio/read.c **** 
  63:../src/common/utils/stdio/read.c **** // IAR common implementation
  64:../src/common/utils/stdio/read.c **** #if ( defined(__ICCAVR32__) || defined(__ICCAVR__) || defined(__ICCARM__) )
  65:../src/common/utils/stdio/read.c **** 
  66:../src/common/utils/stdio/read.c **** #include <yfuns.h>
  67:../src/common/utils/stdio/read.c **** 
  68:../src/common/utils/stdio/read.c **** _STD_BEGIN
  69:../src/common/utils/stdio/read.c **** 
  70:../src/common/utils/stdio/read.c **** #pragma module_name = "?__read"
  71:../src/common/utils/stdio/read.c **** 
  72:../src/common/utils/stdio/read.c **** /*! \brief Reads a number of bytes, at most \a size, into the memory area
  73:../src/common/utils/stdio/read.c ****  *         pointed to by \a buffer.
  74:../src/common/utils/stdio/read.c ****  *
  75:../src/common/utils/stdio/read.c ****  * \param handle File handle to read from.
  76:../src/common/utils/stdio/read.c ****  * \param buffer Pointer to buffer to write read bytes to.
  77:../src/common/utils/stdio/read.c ****  * \param size Number of bytes to read.
  78:../src/common/utils/stdio/read.c ****  *
  79:../src/common/utils/stdio/read.c ****  * \return The number of bytes read, \c 0 at the end of the file, or
  80:../src/common/utils/stdio/read.c ****  *         \c _LLIO_ERROR on failure.
  81:../src/common/utils/stdio/read.c ****  */
  82:../src/common/utils/stdio/read.c **** size_t __read(int handle, unsigned char *buffer, size_t size)
  83:../src/common/utils/stdio/read.c **** {
  84:../src/common/utils/stdio/read.c **** 	int nChars = 0;
  85:../src/common/utils/stdio/read.c **** 	// This implementation only reads from stdin.
  86:../src/common/utils/stdio/read.c **** 	// For all other file handles, it returns failure.
  87:../src/common/utils/stdio/read.c **** 	if (handle != _LLIO_STDIN) {
  88:../src/common/utils/stdio/read.c **** 		return _LLIO_ERROR;
  89:../src/common/utils/stdio/read.c **** 	}
  90:../src/common/utils/stdio/read.c **** 	for (; size > 0; --size) {
  91:../src/common/utils/stdio/read.c **** 		ptr_get(stdio_base, (char*)buffer);
  92:../src/common/utils/stdio/read.c **** 		buffer++;
  93:../src/common/utils/stdio/read.c **** 		nChars++;
  94:../src/common/utils/stdio/read.c **** 	}
  95:../src/common/utils/stdio/read.c **** 	return nChars;
  96:../src/common/utils/stdio/read.c **** }
  97:../src/common/utils/stdio/read.c **** 
  98:../src/common/utils/stdio/read.c **** /*! \brief This routine is required by IAR DLIB library since EWAVR V6.10
  99:../src/common/utils/stdio/read.c ****  * the implementation is empty to be compatible with old IAR version.
 100:../src/common/utils/stdio/read.c ****  */
 101:../src/common/utils/stdio/read.c **** int __close(int handle)
 102:../src/common/utils/stdio/read.c **** {
 103:../src/common/utils/stdio/read.c **** 	UNUSED(handle);
 104:../src/common/utils/stdio/read.c **** 	return 0;
 105:../src/common/utils/stdio/read.c **** }
 106:../src/common/utils/stdio/read.c **** 
 107:../src/common/utils/stdio/read.c **** /*! \brief This routine is required by IAR DLIB library since EWAVR V6.10
 108:../src/common/utils/stdio/read.c ****  * the implementation is empty to be compatible with old IAR version.
 109:../src/common/utils/stdio/read.c ****  */
 110:../src/common/utils/stdio/read.c **** int remove(const char* val)
 111:../src/common/utils/stdio/read.c **** {
 112:../src/common/utils/stdio/read.c **** 	UNUSED(val);
 113:../src/common/utils/stdio/read.c **** 	return 0;
 114:../src/common/utils/stdio/read.c **** }
 115:../src/common/utils/stdio/read.c **** 
 116:../src/common/utils/stdio/read.c **** /*! \brief This routine is required by IAR DLIB library since EWAVR V6.10
 117:../src/common/utils/stdio/read.c ****  * the implementation is empty to be compatible with old IAR version.
 118:../src/common/utils/stdio/read.c ****  */
 119:../src/common/utils/stdio/read.c **** long __lseek(int handle, long val, int val2)
 120:../src/common/utils/stdio/read.c **** {
 121:../src/common/utils/stdio/read.c **** 	UNUSED(handle);
 122:../src/common/utils/stdio/read.c **** 	UNUSED(val2);
 123:../src/common/utils/stdio/read.c **** 	return val;
 124:../src/common/utils/stdio/read.c **** }
 125:../src/common/utils/stdio/read.c **** 
 126:../src/common/utils/stdio/read.c **** _STD_END
 127:../src/common/utils/stdio/read.c **** 
 128:../src/common/utils/stdio/read.c **** // GCC AVR32 and SAM implementation
 129:../src/common/utils/stdio/read.c **** #elif (defined(__GNUC__) && !XMEGA && !MEGA) 
 130:../src/common/utils/stdio/read.c **** 
 131:../src/common/utils/stdio/read.c **** int __attribute__((weak))
 132:../src/common/utils/stdio/read.c **** _read (int file, char * ptr, int len); // Remove GCC compiler warning
 133:../src/common/utils/stdio/read.c **** 
 134:../src/common/utils/stdio/read.c **** int __attribute__((weak))
 135:../src/common/utils/stdio/read.c **** _read (int file, char * ptr, int len)
 136:../src/common/utils/stdio/read.c **** {
  28              		.loc 1 136 0
  29              		.cfi_startproc
  30              		@ args = 0, pretend = 0, frame = 0
  31              		@ frame_needed = 0, uses_anonymous_args = 0
  32              	.LVL0:
 137:../src/common/utils/stdio/read.c **** 	int nChars = 0;
 138:../src/common/utils/stdio/read.c **** 
 139:../src/common/utils/stdio/read.c **** 	if (file != 0) {
  33              		.loc 1 139 0
  34 0000 88B9     		cbnz	r0, .L5
 136:../src/common/utils/stdio/read.c **** 	int nChars = 0;
  35              		.loc 1 136 0
  36 0002 70B5     		push	{r4, r5, r6, lr}
  37              		.cfi_def_cfa_offset 16
  38              		.cfi_offset 4, -16
  39              		.cfi_offset 5, -12
  40              		.cfi_offset 6, -8
  41              		.cfi_offset 14, -4
  42 0004 0D46     		mov	r5, r1
  43 0006 1446     		mov	r4, r2
  44 0008 0026     		movs	r6, #0
  45 000a 08E0     		b	.L3
  46              	.LVL1:
  47              	.L4:
 140:../src/common/utils/stdio/read.c **** 		return -1;
 141:../src/common/utils/stdio/read.c **** 	}
 142:../src/common/utils/stdio/read.c **** 
 143:../src/common/utils/stdio/read.c **** 	for (; len > 0; --len) {
 144:../src/common/utils/stdio/read.c **** 		ptr_get(stdio_base, ptr);
  48              		.loc 1 144 0 discriminator 2
  49 000c 074B     		ldr	r3, .L8
  50 000e 1868     		ldr	r0, [r3]
  51 0010 074B     		ldr	r3, .L8+4
  52 0012 1B68     		ldr	r3, [r3]
  53 0014 2946     		mov	r1, r5
  54 0016 9847     		blx	r3
  55              	.LVL2:
 145:../src/common/utils/stdio/read.c **** 		ptr++;
  56              		.loc 1 145 0 discriminator 2
  57 0018 0135     		adds	r5, r5, #1
  58              	.LVL3:
 146:../src/common/utils/stdio/read.c **** 		nChars++;
  59              		.loc 1 146 0 discriminator 2
  60 001a 0136     		adds	r6, r6, #1
  61              	.LVL4:
 143:../src/common/utils/stdio/read.c **** 		ptr_get(stdio_base, ptr);
  62              		.loc 1 143 0 discriminator 2
  63 001c 013C     		subs	r4, r4, #1
  64              	.LVL5:
  65              	.L3:
 143:../src/common/utils/stdio/read.c **** 		ptr_get(stdio_base, ptr);
  66              		.loc 1 143 0 is_stmt 0 discriminator 1
  67 001e 002C     		cmp	r4, #0
  68 0020 F4DC     		bgt	.L4
 147:../src/common/utils/stdio/read.c **** 	}
 148:../src/common/utils/stdio/read.c **** 	return nChars;
  69              		.loc 1 148 0 is_stmt 1
  70 0022 3046     		mov	r0, r6
  71 0024 70BD     		pop	{r4, r5, r6, pc}
  72              	.LVL6:
  73              	.L5:
  74              		.cfi_def_cfa_offset 0
  75              		.cfi_restore 4
  76              		.cfi_restore 5
  77              		.cfi_restore 6
  78              		.cfi_restore 14
 140:../src/common/utils/stdio/read.c **** 	}
  79              		.loc 1 140 0
  80 0026 4FF0FF30 		mov	r0, #-1
  81              	.LVL7:
  82 002a 7047     		bx	lr
  83              	.L9:
  84              		.align	2
  85              	.L8:
  86 002c 00000000 		.word	stdio_base
  87 0030 00000000 		.word	ptr_get
  88              		.cfi_endproc
  89              	.LFE73:
  91              		.comm	ptr_get,4,4
  92              		.section	.bss.cpu_irq_critical_section_counter,"aw",%nobits
  93              		.align	2
  96              	cpu_irq_critical_section_counter:
  97 0000 00000000 		.space	4
  98              		.section	.bss.cpu_irq_prev_interrupt_state,"aw",%nobits
 101              	cpu_irq_prev_interrupt_state:
 102 0000 00       		.space	1
 103              		.text
 104              	.Letext0:
 105              		.file 2 "/usr/local/gcc-arm-none-eabi-5_2-2015q4/arm-none-eabi/include/machine/_default_types.h"
 106              		.file 3 "/usr/local/gcc-arm-none-eabi-5_2-2015q4/arm-none-eabi/include/sys/_stdint.h"
 107              		.file 4 "/home/bekeband/workspace/OLIMEX_Start/src/interrupt/interrupt_sam_nvic.h"
 108              		.file 5 "/home/bekeband/workspace/OLIMEX_Start/src/core_cm3.h"